
C:/Users/Acer/Documents/Embebidos/Prueba_4_motores_pwm_diff_slice/build/motor_control.elf:     file format elf32-littlearm

Sections:
Idx Name          Size      VMA       LMA       File off  Algn
  0 .boot2        00000100  10000000  10000000  00001000  2**0
                  CONTENTS, ALLOC, LOAD, READONLY, CODE
  1 .text         00009650  10000100  10000100  00001100  2**3
                  CONTENTS, ALLOC, LOAD, READONLY, CODE
  2 .rodata       00001a58  10009750  10009750  0000a750  2**3
                  CONTENTS, ALLOC, LOAD, READONLY, DATA
  3 .binary_info  00000040  1000b1a8  1000b1a8  0000c1a8  2**2
                  CONTENTS, ALLOC, LOAD, READONLY, DATA
  4 .ram_vector_table 000000c0  20000000  20000000  0000f000  2**2
                  ALLOC
  5 .data         000015a0  200000c0  1000b1e8  0000d0c0  2**4
                  CONTENTS, ALLOC, LOAD, READONLY, CODE
  6 .uninitialized_data 00000000  20001660  20001660  0000e660  2**0
                  CONTENTS
  7 .scratch_x    00000000  20040000  20040000  0000e660  2**0
                  CONTENTS
  8 .scratch_y    00000000  20041000  20041000  0000e660  2**0
                  CONTENTS
  9 .bss          00000f38  20001660  20001660  0000f000  2**3
                  ALLOC
 10 .heap         00000800  20002598  20002598  0000e660  2**2
                  CONTENTS, READONLY
 11 .stack1_dummy 00000800  20040000  20040000  0000f000  2**2
                  ALLOC
 12 .stack_dummy  00000800  20041000  20041000  0000ee60  2**5
                  CONTENTS, READONLY
 13 .ARM.attributes 00000028  00000000  00000000  0000f660  2**0
                  CONTENTS, READONLY
 14 .comment      00000049  00000000  00000000  0000f688  2**0
                  CONTENTS, READONLY
 15 .debug_info   000353bf  00000000  00000000  0000f6d1  2**0
                  CONTENTS, READONLY, DEBUGGING, OCTETS
 16 .debug_abbrev 00008d60  00000000  00000000  00044a90  2**0
                  CONTENTS, READONLY, DEBUGGING, OCTETS
 17 .debug_loc    00024a34  00000000  00000000  0004d7f0  2**0
                  CONTENTS, READONLY, DEBUGGING, OCTETS
 18 .debug_aranges 00001938  00000000  00000000  00072228  2**3
                  CONTENTS, READONLY, DEBUGGING, OCTETS
 19 .debug_ranges 00006360  00000000  00000000  00073b60  2**3
                  CONTENTS, READONLY, DEBUGGING, OCTETS
 20 .debug_line   000210c5  00000000  00000000  00079ec0  2**0
                  CONTENTS, READONLY, DEBUGGING, OCTETS
 21 .debug_str    00008ebd  00000000  00000000  0009af85  2**0
                  CONTENTS, READONLY, DEBUGGING, OCTETS
 22 .debug_frame  0000393c  00000000  00000000  000a3e44  2**2
                  CONTENTS, READONLY, DEBUGGING, OCTETS

C:/Users/Acer/Documents/Embebidos/Prueba_4_motores_pwm_diff_slice/build/motor_control.elf:     file format elf32-littlearm


Disassembly of section .boot2:

10000000 <__boot2_start__>:
10000000:	4b32b500 	.word	0x4b32b500
10000004:	60582021 	.word	0x60582021
10000008:	21026898 	.word	0x21026898
1000000c:	60984388 	.word	0x60984388
10000010:	611860d8 	.word	0x611860d8
10000014:	4b2e6158 	.word	0x4b2e6158
10000018:	60992100 	.word	0x60992100
1000001c:	61592102 	.word	0x61592102
10000020:	22f02101 	.word	0x22f02101
10000024:	492b5099 	.word	0x492b5099
10000028:	21016019 	.word	0x21016019
1000002c:	20356099 	.word	0x20356099
10000030:	f844f000 	.word	0xf844f000
10000034:	42902202 	.word	0x42902202
10000038:	2106d014 	.word	0x2106d014
1000003c:	f0006619 	.word	0xf0006619
10000040:	6e19f834 	.word	0x6e19f834
10000044:	66192101 	.word	0x66192101
10000048:	66182000 	.word	0x66182000
1000004c:	f000661a 	.word	0xf000661a
10000050:	6e19f82c 	.word	0x6e19f82c
10000054:	6e196e19 	.word	0x6e196e19
10000058:	f0002005 	.word	0xf0002005
1000005c:	2101f82f 	.word	0x2101f82f
10000060:	d1f94208 	.word	0xd1f94208
10000064:	60992100 	.word	0x60992100
10000068:	6019491b 	.word	0x6019491b
1000006c:	60592100 	.word	0x60592100
10000070:	481b491a 	.word	0x481b491a
10000074:	21016001 	.word	0x21016001
10000078:	21eb6099 	.word	0x21eb6099
1000007c:	21a06619 	.word	0x21a06619
10000080:	f0006619 	.word	0xf0006619
10000084:	2100f812 	.word	0x2100f812
10000088:	49166099 	.word	0x49166099
1000008c:	60014814 	.word	0x60014814
10000090:	60992101 	.word	0x60992101
10000094:	2800bc01 	.word	0x2800bc01
10000098:	4700d000 	.word	0x4700d000
1000009c:	49134812 	.word	0x49134812
100000a0:	c8036008 	.word	0xc8036008
100000a4:	8808f380 	.word	0x8808f380
100000a8:	b5034708 	.word	0xb5034708
100000ac:	20046a99 	.word	0x20046a99
100000b0:	d0fb4201 	.word	0xd0fb4201
100000b4:	42012001 	.word	0x42012001
100000b8:	bd03d1f8 	.word	0xbd03d1f8
100000bc:	6618b502 	.word	0x6618b502
100000c0:	f7ff6618 	.word	0xf7ff6618
100000c4:	6e18fff2 	.word	0x6e18fff2
100000c8:	bd026e18 	.word	0xbd026e18
100000cc:	40020000 	.word	0x40020000
100000d0:	18000000 	.word	0x18000000
100000d4:	00070000 	.word	0x00070000
100000d8:	005f0300 	.word	0x005f0300
100000dc:	00002221 	.word	0x00002221
100000e0:	180000f4 	.word	0x180000f4
100000e4:	a0002022 	.word	0xa0002022
100000e8:	10000100 	.word	0x10000100
100000ec:	e000ed08 	.word	0xe000ed08
	...
100000fc:	7a4eb274 	.word	0x7a4eb274

Disassembly of section .text:

10000100 <__VECTOR_TABLE>:
10000100:	20042000 	.word	0x20042000
10000104:	100001f7 	.word	0x100001f7
10000108:	100001c3 	.word	0x100001c3
1000010c:	100001c5 	.word	0x100001c5
10000110:	100001c1 	.word	0x100001c1
10000114:	100001c1 	.word	0x100001c1
10000118:	100001c1 	.word	0x100001c1
1000011c:	100001c1 	.word	0x100001c1
10000120:	100001c1 	.word	0x100001c1
10000124:	100001c1 	.word	0x100001c1
10000128:	100001c1 	.word	0x100001c1
1000012c:	100001c7 	.word	0x100001c7
10000130:	100001c1 	.word	0x100001c1
10000134:	100001c1 	.word	0x100001c1
10000138:	100001c9 	.word	0x100001c9
1000013c:	100001cb 	.word	0x100001cb
10000140:	100001cd 	.word	0x100001cd
10000144:	100001cd 	.word	0x100001cd
10000148:	100001cd 	.word	0x100001cd
1000014c:	100001cd 	.word	0x100001cd
10000150:	100001cd 	.word	0x100001cd
10000154:	100001cd 	.word	0x100001cd
10000158:	100001cd 	.word	0x100001cd
1000015c:	100001cd 	.word	0x100001cd
10000160:	100001cd 	.word	0x100001cd
10000164:	100001cd 	.word	0x100001cd
10000168:	100001cd 	.word	0x100001cd
1000016c:	100001cd 	.word	0x100001cd
10000170:	100001cd 	.word	0x100001cd
10000174:	100001cd 	.word	0x100001cd
10000178:	100001cd 	.word	0x100001cd
1000017c:	100001cd 	.word	0x100001cd
10000180:	100001cd 	.word	0x100001cd
10000184:	100001cd 	.word	0x100001cd
10000188:	100001cd 	.word	0x100001cd
1000018c:	100001cd 	.word	0x100001cd
10000190:	100001cd 	.word	0x100001cd
10000194:	100001cd 	.word	0x100001cd
10000198:	100001cd 	.word	0x100001cd
1000019c:	100001cd 	.word	0x100001cd
100001a0:	100001cd 	.word	0x100001cd
100001a4:	100001cd 	.word	0x100001cd
100001a8:	100001cd 	.word	0x100001cd
100001ac:	100001cd 	.word	0x100001cd
100001b0:	100001cd 	.word	0x100001cd
100001b4:	100001cd 	.word	0x100001cd
100001b8:	100001cd 	.word	0x100001cd
100001bc:	100001cd 	.word	0x100001cd

100001c0 <isr_invalid>:
100001c0:	be00      	bkpt	0x0000

100001c2 <isr_nmi>:
100001c2:	be00      	bkpt	0x0000

100001c4 <isr_hardfault>:
100001c4:	be00      	bkpt	0x0000

100001c6 <isr_svcall>:
100001c6:	be00      	bkpt	0x0000

100001c8 <isr_pendsv>:
100001c8:	be00      	bkpt	0x0000

100001ca <isr_systick>:
100001ca:	be00      	bkpt	0x0000

100001cc <__unhandled_user_irq>:
100001cc:	f3ef 8005 	mrs	r0, IPSR
100001d0:	3810      	subs	r0, #16

100001d2 <unhandled_user_irq_num_in_r0>:
100001d2:	be00      	bkpt	0x0000

100001d4 <binary_info_header>:
100001d4:	7188ebf2 	.word	0x7188ebf2
100001d8:	1000b1a8 	.word	0x1000b1a8
100001dc:	1000b1e8 	.word	0x1000b1e8
100001e0:	10000234 	.word	0x10000234
100001e4:	e71aa390 	.word	0xe71aa390

100001e8 <_entry_point>:
100001e8:	2000      	movs	r0, #0
100001ea:	491f      	ldr	r1, [pc, #124]	; (10000268 <hold_non_core0_in_bootrom+0xa>)
100001ec:	6008      	str	r0, [r1, #0]
100001ee:	c806      	ldmia	r0!, {r1, r2}
100001f0:	f381 8808 	msr	MSP, r1
100001f4:	4710      	bx	r2

100001f6 <_reset_handler>:
100001f6:	481d      	ldr	r0, [pc, #116]	; (1000026c <hold_non_core0_in_bootrom+0xe>)
100001f8:	6800      	ldr	r0, [r0, #0]
100001fa:	2800      	cmp	r0, #0
100001fc:	d12f      	bne.n	1000025e <hold_non_core0_in_bootrom>
100001fe:	a40d      	add	r4, pc, #52	; (adr r4, 10000234 <data_cpy_table>)
10000200:	cc0e      	ldmia	r4!, {r1, r2, r3}
10000202:	2900      	cmp	r1, #0
10000204:	d002      	beq.n	1000020c <_reset_handler+0x16>
10000206:	f000 f812 	bl	1000022e <data_cpy>
1000020a:	e7f9      	b.n	10000200 <_reset_handler+0xa>
1000020c:	4918      	ldr	r1, [pc, #96]	; (10000270 <hold_non_core0_in_bootrom+0x12>)
1000020e:	4a19      	ldr	r2, [pc, #100]	; (10000274 <hold_non_core0_in_bootrom+0x16>)
10000210:	2000      	movs	r0, #0
10000212:	e000      	b.n	10000216 <bss_fill_test>

10000214 <bss_fill_loop>:
10000214:	c101      	stmia	r1!, {r0}

10000216 <bss_fill_test>:
10000216:	4291      	cmp	r1, r2
10000218:	d1fc      	bne.n	10000214 <bss_fill_loop>

1000021a <platform_entry>:
1000021a:	4917      	ldr	r1, [pc, #92]	; (10000278 <hold_non_core0_in_bootrom+0x1a>)
1000021c:	4788      	blx	r1
1000021e:	4917      	ldr	r1, [pc, #92]	; (1000027c <hold_non_core0_in_bootrom+0x1e>)
10000220:	4788      	blx	r1
10000222:	4917      	ldr	r1, [pc, #92]	; (10000280 <hold_non_core0_in_bootrom+0x22>)
10000224:	4788      	blx	r1
10000226:	be00      	bkpt	0x0000
10000228:	e7fd      	b.n	10000226 <platform_entry+0xc>

1000022a <data_cpy_loop>:
1000022a:	c901      	ldmia	r1!, {r0}
1000022c:	c201      	stmia	r2!, {r0}

1000022e <data_cpy>:
1000022e:	429a      	cmp	r2, r3
10000230:	d3fb      	bcc.n	1000022a <data_cpy_loop>
10000232:	4770      	bx	lr

10000234 <data_cpy_table>:
10000234:	1000b1e8 	.word	0x1000b1e8
10000238:	200000c0 	.word	0x200000c0
1000023c:	20001660 	.word	0x20001660
10000240:	1000c788 	.word	0x1000c788
10000244:	20040000 	.word	0x20040000
10000248:	20040000 	.word	0x20040000
1000024c:	1000c788 	.word	0x1000c788
10000250:	20041000 	.word	0x20041000
10000254:	20041000 	.word	0x20041000
10000258:	00000000 	.word	0x00000000
1000025c:	4770      	bx	lr

1000025e <hold_non_core0_in_bootrom>:
1000025e:	4809      	ldr	r0, [pc, #36]	; (10000284 <hold_non_core0_in_bootrom+0x26>)
10000260:	f004 fc9e 	bl	10004ba0 <rom_func_lookup>
10000264:	4700      	bx	r0
10000266:	0000      	.short	0x0000
10000268:	e000ed08 	.word	0xe000ed08
1000026c:	d0000000 	.word	0xd0000000
10000270:	20001660 	.word	0x20001660
10000274:	20002598 	.word	0x20002598
10000278:	10003929 	.word	0x10003929
1000027c:	100005a1 	.word	0x100005a1
10000280:	100038e5 	.word	0x100038e5
10000284:	00005657 	.word	0x00005657

10000288 <__bi_50>:
10000288:	50520006 5360b3ab 1000a928              ..RP..`S(...

10000294 <__bi_38>:
10000294:	50520006 02031c86 1000a938              ..RP....8...

100002a0 <__bi_30>:
100002a0:	50520006 9da22254 1000a948              ..RPT"..H...

100002ac <__bi_22>:
100002ac:	50520005 68f465de 1000c788              ..RP.e.h....

100002b8 <_init>:
100002b8:	b5f8      	push	{r3, r4, r5, r6, r7, lr}
100002ba:	46c0      	nop			; (mov r8, r8)

100002bc <__do_global_dtors_aux>:
100002bc:	b510      	push	{r4, lr}
100002be:	4c06      	ldr	r4, [pc, #24]	; (100002d8 <__do_global_dtors_aux+0x1c>)
100002c0:	7823      	ldrb	r3, [r4, #0]
100002c2:	2b00      	cmp	r3, #0
100002c4:	d107      	bne.n	100002d6 <__do_global_dtors_aux+0x1a>
100002c6:	4b05      	ldr	r3, [pc, #20]	; (100002dc <__do_global_dtors_aux+0x20>)
100002c8:	2b00      	cmp	r3, #0
100002ca:	d002      	beq.n	100002d2 <__do_global_dtors_aux+0x16>
100002cc:	4804      	ldr	r0, [pc, #16]	; (100002e0 <__do_global_dtors_aux+0x24>)
100002ce:	e000      	b.n	100002d2 <__do_global_dtors_aux+0x16>
100002d0:	bf00      	nop
100002d2:	2301      	movs	r3, #1
100002d4:	7023      	strb	r3, [r4, #0]
100002d6:	bd10      	pop	{r4, pc}
100002d8:	20001810 	.word	0x20001810
100002dc:	00000000 	.word	0x00000000
100002e0:	10009750 	.word	0x10009750

100002e4 <frame_dummy>:
100002e4:	4b04      	ldr	r3, [pc, #16]	; (100002f8 <frame_dummy+0x14>)
100002e6:	b510      	push	{r4, lr}
100002e8:	2b00      	cmp	r3, #0
100002ea:	d003      	beq.n	100002f4 <frame_dummy+0x10>
100002ec:	4903      	ldr	r1, [pc, #12]	; (100002fc <frame_dummy+0x18>)
100002ee:	4804      	ldr	r0, [pc, #16]	; (10000300 <frame_dummy+0x1c>)
100002f0:	e000      	b.n	100002f4 <frame_dummy+0x10>
100002f2:	bf00      	nop
100002f4:	bd10      	pop	{r4, pc}
100002f6:	46c0      	nop			; (mov r8, r8)
100002f8:	00000000 	.word	0x00000000
100002fc:	20001814 	.word	0x20001814
10000300:	10009750 	.word	0x10009750

10000304 <main2>:
10000304:	b5f0      	push	{r4, r5, r6, r7, lr}
10000306:	46ce      	mov	lr, r9
10000308:	4647      	mov	r7, r8
1000030a:	b580      	push	{r7, lr}
1000030c:	b08f      	sub	sp, #60	; 0x3c
1000030e:	2300      	movs	r3, #0
10000310:	9302      	str	r3, [sp, #8]
10000312:	9303      	str	r3, [sp, #12]
10000314:	e117      	b.n	10000546 <main2+0x242>
10000316:	2b03      	cmp	r3, #3
10000318:	d101      	bne.n	1000031e <main2+0x1a>
1000031a:	4b8e      	ldr	r3, [pc, #568]	; (10000554 <main2+0x250>)
1000031c:	4699      	mov	r9, r3
1000031e:	2300      	movs	r3, #0
10000320:	4a8d      	ldr	r2, [pc, #564]	; (10000558 <main2+0x254>)
10000322:	6013      	str	r3, [r2, #0]
10000324:	4a8d      	ldr	r2, [pc, #564]	; (1000055c <main2+0x258>)
10000326:	6013      	str	r3, [r2, #0]
10000328:	4a8d      	ldr	r2, [pc, #564]	; (10000560 <main2+0x25c>)
1000032a:	7013      	strb	r3, [r2, #0]
1000032c:	f002 fc86 	bl	10002c3c <time_us_64>
10000330:	9000      	str	r0, [sp, #0]
10000332:	9101      	str	r1, [sp, #4]
10000334:	f002 fc82 	bl	10002c3c <time_us_64>
10000338:	0006      	movs	r6, r0
1000033a:	000f      	movs	r7, r1
1000033c:	2200      	movs	r2, #0
1000033e:	2300      	movs	r3, #0
10000340:	4648      	mov	r0, r9
10000342:	f000 ffe9 	bl	10001318 <obtainAngle>
10000346:	4b87      	ldr	r3, [pc, #540]	; (10000564 <main2+0x260>)
10000348:	6819      	ldr	r1, [r3, #0]
1000034a:	685a      	ldr	r2, [r3, #4]
1000034c:	9104      	str	r1, [sp, #16]
1000034e:	9205      	str	r2, [sp, #20]
10000350:	4643      	mov	r3, r8
10000352:	00db      	lsls	r3, r3, #3
10000354:	a806      	add	r0, sp, #24
10000356:	4684      	mov	ip, r0
10000358:	4463      	add	r3, ip
1000035a:	6019      	str	r1, [r3, #0]
1000035c:	605a      	str	r2, [r3, #4]
1000035e:	e01e      	b.n	1000039e <main2+0x9a>
10000360:	230f      	movs	r3, #15
10000362:	220e      	movs	r2, #14
10000364:	2113      	movs	r1, #19
10000366:	2012      	movs	r0, #18
10000368:	f001 f866 	bl	10001438 <switchI2c>
1000036c:	4b7e      	ldr	r3, [pc, #504]	; (10000568 <main2+0x264>)
1000036e:	4699      	mov	r9, r3
10000370:	e7d5      	b.n	1000031e <main2+0x1a>
10000372:	4b7d      	ldr	r3, [pc, #500]	; (10000568 <main2+0x264>)
10000374:	4699      	mov	r9, r3
10000376:	e7d2      	b.n	1000031e <main2+0x1a>
10000378:	4b7a      	ldr	r3, [pc, #488]	; (10000564 <main2+0x260>)
1000037a:	681a      	ldr	r2, [r3, #0]
1000037c:	9202      	str	r2, [sp, #8]
1000037e:	685b      	ldr	r3, [r3, #4]
10000380:	9303      	str	r3, [sp, #12]
10000382:	9a04      	ldr	r2, [sp, #16]
10000384:	9b05      	ldr	r3, [sp, #20]
10000386:	4648      	mov	r0, r9
10000388:	f000 ffc6 	bl	10001318 <obtainAngle>
1000038c:	0026      	movs	r6, r4
1000038e:	002f      	movs	r7, r5
10000390:	9a00      	ldr	r2, [sp, #0]
10000392:	9b01      	ldr	r3, [sp, #4]
10000394:	1aa4      	subs	r4, r4, r2
10000396:	419d      	sbcs	r5, r3
10000398:	2d00      	cmp	r5, #0
1000039a:	d114      	bne.n	100003c6 <main2+0xc2>
1000039c:	d010      	beq.n	100003c0 <main2+0xbc>
1000039e:	f002 fc4d 	bl	10002c3c <time_us_64>
100003a2:	0004      	movs	r4, r0
100003a4:	000d      	movs	r5, r1
100003a6:	0002      	movs	r2, r0
100003a8:	000b      	movs	r3, r1
100003aa:	1b92      	subs	r2, r2, r6
100003ac:	41bb      	sbcs	r3, r7
100003ae:	0011      	movs	r1, r2
100003b0:	2b00      	cmp	r3, #0
100003b2:	d1e1      	bne.n	10000378 <main2+0x74>
100003b4:	d1ec      	bne.n	10000390 <main2+0x8c>
100003b6:	23c8      	movs	r3, #200	; 0xc8
100003b8:	009b      	lsls	r3, r3, #2
100003ba:	4299      	cmp	r1, r3
100003bc:	d3e8      	bcc.n	10000390 <main2+0x8c>
100003be:	e7db      	b.n	10000378 <main2+0x74>
100003c0:	4b6a      	ldr	r3, [pc, #424]	; (1000056c <main2+0x268>)
100003c2:	429c      	cmp	r4, r3
100003c4:	d9eb      	bls.n	1000039e <main2+0x9a>
100003c6:	4b67      	ldr	r3, [pc, #412]	; (10000564 <main2+0x260>)
100003c8:	681c      	ldr	r4, [r3, #0]
100003ca:	685d      	ldr	r5, [r3, #4]
100003cc:	9a02      	ldr	r2, [sp, #8]
100003ce:	9b03      	ldr	r3, [sp, #12]
100003d0:	0020      	movs	r0, r4
100003d2:	0029      	movs	r1, r5
100003d4:	f004 fe73 	bl	100050be <__wrap___aeabi_dsub>
100003d8:	000e      	movs	r6, r1
100003da:	9002      	str	r0, [sp, #8]
100003dc:	9103      	str	r1, [sp, #12]
100003de:	2200      	movs	r2, #0
100003e0:	2300      	movs	r3, #0
100003e2:	9802      	ldr	r0, [sp, #8]
100003e4:	0031      	movs	r1, r6
100003e6:	f004 fedd 	bl	100051a4 <__wrap___aeabi_dcmplt>
100003ea:	2800      	cmp	r0, #0
100003ec:	d132      	bne.n	10000454 <main2+0x150>
100003ee:	2200      	movs	r2, #0
100003f0:	4b5f      	ldr	r3, [pc, #380]	; (10000570 <main2+0x26c>)
100003f2:	9f02      	ldr	r7, [sp, #8]
100003f4:	0038      	movs	r0, r7
100003f6:	9e03      	ldr	r6, [sp, #12]
100003f8:	0031      	movs	r1, r6
100003fa:	f004 fed9 	bl	100051b0 <__wrap___aeabi_dcmple>
100003fe:	2800      	cmp	r0, #0
10000400:	d107      	bne.n	10000412 <main2+0x10e>
10000402:	2200      	movs	r2, #0
10000404:	4b5b      	ldr	r3, [pc, #364]	; (10000574 <main2+0x270>)
10000406:	0038      	movs	r0, r7
10000408:	0031      	movs	r1, r6
1000040a:	f004 fee1 	bl	100051d0 <__wrap___aeabi_dcmpgt>
1000040e:	2800      	cmp	r0, #0
10000410:	d027      	beq.n	10000462 <main2+0x15e>
10000412:	4643      	mov	r3, r8
10000414:	00db      	lsls	r3, r3, #3
10000416:	4958      	ldr	r1, [pc, #352]	; (10000578 <main2+0x274>)
10000418:	18c9      	adds	r1, r1, r3
1000041a:	2200      	movs	r2, #0
1000041c:	2300      	movs	r3, #0
1000041e:	600a      	str	r2, [r1, #0]
10000420:	604b      	str	r3, [r1, #4]
10000422:	2301      	movs	r3, #1
10000424:	469c      	mov	ip, r3
10000426:	44e0      	add	r8, ip
10000428:	4643      	mov	r3, r8
1000042a:	2b03      	cmp	r3, #3
1000042c:	dc7a      	bgt.n	10000524 <main2+0x220>
1000042e:	4643      	mov	r3, r8
10000430:	2b02      	cmp	r3, #2
10000432:	d095      	beq.n	10000360 <main2+0x5c>
10000434:	dd00      	ble.n	10000438 <main2+0x134>
10000436:	e76e      	b.n	10000316 <main2+0x12>
10000438:	2b00      	cmp	r3, #0
1000043a:	d09a      	beq.n	10000372 <main2+0x6e>
1000043c:	2b01      	cmp	r3, #1
1000043e:	d000      	beq.n	10000442 <main2+0x13e>
10000440:	e76d      	b.n	1000031e <main2+0x1a>
10000442:	230d      	movs	r3, #13
10000444:	220c      	movs	r2, #12
10000446:	2115      	movs	r1, #21
10000448:	2014      	movs	r0, #20
1000044a:	f000 fff5 	bl	10001438 <switchI2c>
1000044e:	4b41      	ldr	r3, [pc, #260]	; (10000554 <main2+0x250>)
10000450:	4699      	mov	r9, r3
10000452:	e764      	b.n	1000031e <main2+0x1a>
10000454:	0033      	movs	r3, r6
10000456:	2280      	movs	r2, #128	; 0x80
10000458:	0612      	lsls	r2, r2, #24
1000045a:	4694      	mov	ip, r2
1000045c:	4463      	add	r3, ip
1000045e:	9303      	str	r3, [sp, #12]
10000460:	e7c5      	b.n	100003ee <main2+0xea>
10000462:	4643      	mov	r3, r8
10000464:	009b      	lsls	r3, r3, #2
10000466:	4a45      	ldr	r2, [pc, #276]	; (1000057c <main2+0x278>)
10000468:	589a      	ldr	r2, [r3, r2]
1000046a:	4b45      	ldr	r3, [pc, #276]	; (10000580 <main2+0x27c>)
1000046c:	429a      	cmp	r2, r3
1000046e:	dd34      	ble.n	100004da <main2+0x1d6>
10000470:	0022      	movs	r2, r4
10000472:	002b      	movs	r3, r5
10000474:	2000      	movs	r0, #0
10000476:	4943      	ldr	r1, [pc, #268]	; (10000584 <main2+0x280>)
10000478:	f004 fe21 	bl	100050be <__wrap___aeabi_dsub>
1000047c:	0004      	movs	r4, r0
1000047e:	000d      	movs	r5, r1
10000480:	4b38      	ldr	r3, [pc, #224]	; (10000564 <main2+0x260>)
10000482:	601c      	str	r4, [r3, #0]
10000484:	605d      	str	r5, [r3, #4]
10000486:	4b34      	ldr	r3, [pc, #208]	; (10000558 <main2+0x254>)
10000488:	6818      	ldr	r0, [r3, #0]
1000048a:	f004 feb9 	bl	10005200 <__wrap___aeabi_i2d>
1000048e:	0002      	movs	r2, r0
10000490:	000b      	movs	r3, r1
10000492:	f004 fe1d 	bl	100050d0 <__wrap___aeabi_dadd>
10000496:	0006      	movs	r6, r0
10000498:	000f      	movs	r7, r1
1000049a:	2200      	movs	r2, #0
1000049c:	4b3a      	ldr	r3, [pc, #232]	; (10000588 <main2+0x284>)
1000049e:	0020      	movs	r0, r4
100004a0:	0029      	movs	r1, r5
100004a2:	f004 fe1e 	bl	100050e2 <__wrap___aeabi_ddiv>
100004a6:	0002      	movs	r2, r0
100004a8:	000b      	movs	r3, r1
100004aa:	0030      	movs	r0, r6
100004ac:	0039      	movs	r1, r7
100004ae:	f004 fe0f 	bl	100050d0 <__wrap___aeabi_dadd>
100004b2:	4a36      	ldr	r2, [pc, #216]	; (1000058c <main2+0x288>)
100004b4:	4b36      	ldr	r3, [pc, #216]	; (10000590 <main2+0x28c>)
100004b6:	f004 fe32 	bl	1000511e <__wrap___aeabi_dmul>
100004ba:	2200      	movs	r2, #0
100004bc:	4b35      	ldr	r3, [pc, #212]	; (10000594 <main2+0x290>)
100004be:	f004 fe2e 	bl	1000511e <__wrap___aeabi_dmul>
100004c2:	000c      	movs	r4, r1
100004c4:	4643      	mov	r3, r8
100004c6:	00db      	lsls	r3, r3, #3
100004c8:	492b      	ldr	r1, [pc, #172]	; (10000578 <main2+0x274>)
100004ca:	18c9      	adds	r1, r1, r3
100004cc:	0002      	movs	r2, r0
100004ce:	2080      	movs	r0, #128	; 0x80
100004d0:	0600      	lsls	r0, r0, #24
100004d2:	1823      	adds	r3, r4, r0
100004d4:	600a      	str	r2, [r1, #0]
100004d6:	604b      	str	r3, [r1, #4]
100004d8:	e7a3      	b.n	10000422 <main2+0x11e>
100004da:	4b1f      	ldr	r3, [pc, #124]	; (10000558 <main2+0x254>)
100004dc:	6818      	ldr	r0, [r3, #0]
100004de:	f004 fe8f 	bl	10005200 <__wrap___aeabi_i2d>
100004e2:	0002      	movs	r2, r0
100004e4:	000b      	movs	r3, r1
100004e6:	f004 fdf3 	bl	100050d0 <__wrap___aeabi_dadd>
100004ea:	0006      	movs	r6, r0
100004ec:	000f      	movs	r7, r1
100004ee:	2200      	movs	r2, #0
100004f0:	4b25      	ldr	r3, [pc, #148]	; (10000588 <main2+0x284>)
100004f2:	0020      	movs	r0, r4
100004f4:	0029      	movs	r1, r5
100004f6:	f004 fdf4 	bl	100050e2 <__wrap___aeabi_ddiv>
100004fa:	0002      	movs	r2, r0
100004fc:	000b      	movs	r3, r1
100004fe:	0030      	movs	r0, r6
10000500:	0039      	movs	r1, r7
10000502:	f004 fde5 	bl	100050d0 <__wrap___aeabi_dadd>
10000506:	4a21      	ldr	r2, [pc, #132]	; (1000058c <main2+0x288>)
10000508:	4b21      	ldr	r3, [pc, #132]	; (10000590 <main2+0x28c>)
1000050a:	f004 fe08 	bl	1000511e <__wrap___aeabi_dmul>
1000050e:	2200      	movs	r2, #0
10000510:	4b20      	ldr	r3, [pc, #128]	; (10000594 <main2+0x290>)
10000512:	f004 fe04 	bl	1000511e <__wrap___aeabi_dmul>
10000516:	4643      	mov	r3, r8
10000518:	00da      	lsls	r2, r3, #3
1000051a:	4b17      	ldr	r3, [pc, #92]	; (10000578 <main2+0x274>)
1000051c:	189b      	adds	r3, r3, r2
1000051e:	6018      	str	r0, [r3, #0]
10000520:	6059      	str	r1, [r3, #4]
10000522:	e77e      	b.n	10000422 <main2+0x11e>
10000524:	2315      	movs	r3, #21
10000526:	2214      	movs	r2, #20
10000528:	210d      	movs	r1, #13
1000052a:	200c      	movs	r0, #12
1000052c:	f000 ff84 	bl	10001438 <switchI2c>
10000530:	2313      	movs	r3, #19
10000532:	2212      	movs	r2, #18
10000534:	210f      	movs	r1, #15
10000536:	200e      	movs	r0, #14
10000538:	f000 ff7e 	bl	10001438 <switchI2c>
1000053c:	f001 f804 	bl	10001548 <calcularControlPID>
10000540:	4815      	ldr	r0, [pc, #84]	; (10000598 <main2+0x294>)
10000542:	f009 f87d 	bl	10009640 <__sem_release_veneer>
10000546:	4815      	ldr	r0, [pc, #84]	; (1000059c <main2+0x298>)
10000548:	f009 f8b2 	bl	100096b0 <__sem_acquire_blocking_veneer>
1000054c:	2300      	movs	r3, #0
1000054e:	4698      	mov	r8, r3
10000550:	e76a      	b.n	10000428 <main2+0x124>
10000552:	46c0      	nop			; (mov r8, r8)
10000554:	20000df0 	.word	0x20000df0
10000558:	2000231c 	.word	0x2000231c
1000055c:	20001f0c 	.word	0x20001f0c
10000560:	20002592 	.word	0x20002592
10000564:	20001660 	.word	0x20001660
10000568:	20000de8 	.word	0x20000de8
1000056c:	000061a7 	.word	0x000061a7
10000570:	3ff00000 	.word	0x3ff00000
10000574:	40766000 	.word	0x40766000
10000578:	200017f0 	.word	0x200017f0
1000057c:	20000c80 	.word	0x20000c80
10000580:	000002ee 	.word	0x000002ee
10000584:	40768000 	.word	0x40768000
10000588:	40668000 	.word	0x40668000
1000058c:	fc8b007a 	.word	0xfc8b007a
10000590:	400921fa 	.word	0x400921fa
10000594:	40440000 	.word	0x40440000
10000598:	20002440 	.word	0x20002440
1000059c:	20002448 	.word	0x20002448

100005a0 <main>:
100005a0:	b5d0      	push	{r4, r6, r7, lr}
100005a2:	46de      	mov	lr, fp
100005a4:	4657      	mov	r7, sl
100005a6:	464e      	mov	r6, r9
100005a8:	4644      	mov	r4, r8
100005aa:	b5d0      	push	{r4, r6, r7, lr}
100005ac:	b0a4      	sub	sp, #144	; 0x90
100005ae:	f005 fd77 	bl	100060a0 <stdio_init_all>
100005b2:	2201      	movs	r2, #1
100005b4:	2100      	movs	r1, #0
100005b6:	48b5      	ldr	r0, [pc, #724]	; (1000088c <main+0x2ec>)
100005b8:	f001 fcf2 	bl	10001fa0 <sem_init>
100005bc:	2201      	movs	r2, #1
100005be:	2101      	movs	r1, #1
100005c0:	48b3      	ldr	r0, [pc, #716]	; (10000890 <main+0x2f0>)
100005c2:	f001 fced 	bl	10001fa0 <sem_init>
100005c6:	f000 fd6d 	bl	100010a4 <initMotorControl>
100005ca:	48b2      	ldr	r0, [pc, #712]	; (10000894 <main+0x2f4>)
100005cc:	f002 fa82 	bl	10002ad4 <sleep_ms>
100005d0:	f000 fdea 	bl	100011a8 <initI2C>
100005d4:	f000 ff44 	bl	10001460 <checkMagnetPresent>
100005d8:	211f      	movs	r1, #31
100005da:	200f      	movs	r0, #15
100005dc:	f001 f8cc 	bl	10001778 <gpio_set_function>
100005e0:	211f      	movs	r1, #31
100005e2:	200e      	movs	r0, #14
100005e4:	f001 f8c8 	bl	10001778 <gpio_set_function>
100005e8:	2103      	movs	r1, #3
100005ea:	201a      	movs	r0, #26
100005ec:	f001 f8c4 	bl	10001778 <gpio_set_function>
100005f0:	2103      	movs	r1, #3
100005f2:	201b      	movs	r0, #27
100005f4:	f001 f8c0 	bl	10001778 <gpio_set_function>
100005f8:	f001 f86e 	bl	100016d8 <mpu6050_reset>
100005fc:	211f      	movs	r1, #31
100005fe:	201a      	movs	r0, #26
10000600:	f001 f8ba 	bl	10001778 <gpio_set_function>
10000604:	211f      	movs	r1, #31
10000606:	201b      	movs	r0, #27
10000608:	f001 f8b6 	bl	10001778 <gpio_set_function>
1000060c:	2103      	movs	r1, #3
1000060e:	200f      	movs	r0, #15
10000610:	f001 f8b2 	bl	10001778 <gpio_set_function>
10000614:	2103      	movs	r1, #3
10000616:	200e      	movs	r0, #14
10000618:	f001 f8ae 	bl	10001778 <gpio_set_function>
1000061c:	2109      	movs	r1, #9
1000061e:	2008      	movs	r0, #8
10000620:	f000 f99e 	bl	10000960 <initUart>
10000624:	489c      	ldr	r0, [pc, #624]	; (10000898 <main+0x2f8>)
10000626:	f008 f9c5 	bl	100089b4 <multicore_launch_core1>
1000062a:	2300      	movs	r3, #0
1000062c:	9321      	str	r3, [sp, #132]	; 0x84
1000062e:	9322      	str	r3, [sp, #136]	; 0x88
10000630:	9323      	str	r3, [sp, #140]	; 0x8c
10000632:	931e      	str	r3, [sp, #120]	; 0x78
10000634:	931f      	str	r3, [sp, #124]	; 0x7c
10000636:	9320      	str	r3, [sp, #128]	; 0x80
10000638:	931b      	str	r3, [sp, #108]	; 0x6c
1000063a:	931c      	str	r3, [sp, #112]	; 0x70
1000063c:	931d      	str	r3, [sp, #116]	; 0x74
1000063e:	9318      	str	r3, [sp, #96]	; 0x60
10000640:	9319      	str	r3, [sp, #100]	; 0x64
10000642:	931a      	str	r3, [sp, #104]	; 0x68
10000644:	9315      	str	r3, [sp, #84]	; 0x54
10000646:	9316      	str	r3, [sp, #88]	; 0x58
10000648:	9317      	str	r3, [sp, #92]	; 0x5c
1000064a:	f002 faf7 	bl	10002c3c <time_us_64>
1000064e:	2342      	movs	r3, #66	; 0x42
10000650:	aa04      	add	r2, sp, #16
10000652:	4694      	mov	ip, r2
10000654:	4463      	add	r3, ip
10000656:	2200      	movs	r2, #0
10000658:	801a      	strh	r2, [r3, #0]
1000065a:	2300      	movs	r3, #0
1000065c:	2400      	movs	r4, #0
1000065e:	9308      	str	r3, [sp, #32]
10000660:	9409      	str	r4, [sp, #36]	; 0x24
10000662:	9306      	str	r3, [sp, #24]
10000664:	9407      	str	r4, [sp, #28]
10000666:	2300      	movs	r3, #0
10000668:	4698      	mov	r8, r3
1000066a:	e0d4      	b.n	10000816 <main+0x276>
1000066c:	009a      	lsls	r2, r3, #2
1000066e:	a915      	add	r1, sp, #84	; 0x54
10000670:	5850      	ldr	r0, [r2, r1]
10000672:	a91e      	add	r1, sp, #120	; 0x78
10000674:	5050      	str	r0, [r2, r1]
10000676:	3301      	adds	r3, #1
10000678:	2b02      	cmp	r3, #2
1000067a:	ddf7      	ble.n	1000066c <main+0xcc>
1000067c:	9806      	ldr	r0, [sp, #24]
1000067e:	9907      	ldr	r1, [sp, #28]
10000680:	f004 fe06 	bl	10005290 <__wrap___aeabi_d2f>
10000684:	9023      	str	r0, [sp, #140]	; 0x8c
10000686:	2600      	movs	r6, #0
10000688:	e009      	b.n	1000069e <main+0xfe>
1000068a:	00b7      	lsls	r7, r6, #2
1000068c:	ab0a      	add	r3, sp, #40	; 0x28
1000068e:	58f8      	ldr	r0, [r7, r3]
10000690:	ab21      	add	r3, sp, #132	; 0x84
10000692:	58f9      	ldr	r1, [r7, r3]
10000694:	f005 f96b 	bl	1000596e <__wrap___aeabi_fsub>
10000698:	ab15      	add	r3, sp, #84	; 0x54
1000069a:	51d8      	str	r0, [r3, r7]
1000069c:	3601      	adds	r6, #1
1000069e:	2e02      	cmp	r6, #2
100006a0:	ddf3      	ble.n	1000068a <main+0xea>
100006a2:	ae1b      	add	r6, sp, #108	; 0x6c
100006a4:	9b1b      	ldr	r3, [sp, #108]	; 0x6c
100006a6:	9318      	str	r3, [sp, #96]	; 0x60
100006a8:	9b1c      	ldr	r3, [sp, #112]	; 0x70
100006aa:	9319      	str	r3, [sp, #100]	; 0x64
100006ac:	9b1d      	ldr	r3, [sp, #116]	; 0x74
100006ae:	931a      	str	r3, [sp, #104]	; 0x68
100006b0:	9600      	str	r6, [sp, #0]
100006b2:	ab18      	add	r3, sp, #96	; 0x60
100006b4:	aa21      	add	r2, sp, #132	; 0x84
100006b6:	a91e      	add	r1, sp, #120	; 0x78
100006b8:	a815      	add	r0, sp, #84	; 0x54
100006ba:	f000 faa7 	bl	10000c0c <control>
100006be:	ab10      	add	r3, sp, #64	; 0x40
100006c0:	aa0d      	add	r2, sp, #52	; 0x34
100006c2:	a921      	add	r1, sp, #132	; 0x84
100006c4:	0030      	movs	r0, r6
100006c6:	f000 f985 	bl	100009d4 <planta>
100006ca:	2700      	movs	r7, #0
100006cc:	2f01      	cmp	r7, #1
100006ce:	dc0d      	bgt.n	100006ec <main+0x14c>
100006d0:	00bc      	lsls	r4, r7, #2
100006d2:	ab0d      	add	r3, sp, #52	; 0x34
100006d4:	58e0      	ldr	r0, [r4, r3]
100006d6:	4971      	ldr	r1, [pc, #452]	; (1000089c <main+0x2fc>)
100006d8:	f005 f969 	bl	100059ae <__wrap___aeabi_fmul>
100006dc:	1c01      	adds	r1, r0, #0
100006de:	ae21      	add	r6, sp, #132	; 0x84
100006e0:	59a0      	ldr	r0, [r4, r6]
100006e2:	f005 f949 	bl	10005978 <__wrap___aeabi_fadd>
100006e6:	5130      	str	r0, [r6, r4]
100006e8:	3701      	adds	r7, #1
100006ea:	e7ef      	b.n	100006cc <main+0x12c>
100006ec:	9b11      	ldr	r3, [sp, #68]	; 0x44
100006ee:	4699      	mov	r9, r3
100006f0:	9b12      	ldr	r3, [sp, #72]	; 0x48
100006f2:	469a      	mov	sl, r3
100006f4:	9b13      	ldr	r3, [sp, #76]	; 0x4c
100006f6:	469b      	mov	fp, r3
100006f8:	9810      	ldr	r0, [sp, #64]	; 0x40
100006fa:	f005 f99d 	bl	10005a38 <__wrap___aeabi_f2d>
100006fe:	0006      	movs	r6, r0
10000700:	000f      	movs	r7, r1
10000702:	4658      	mov	r0, fp
10000704:	f005 f998 	bl	10005a38 <__wrap___aeabi_f2d>
10000708:	9004      	str	r0, [sp, #16]
1000070a:	9105      	str	r1, [sp, #20]
1000070c:	4650      	mov	r0, sl
1000070e:	f005 f993 	bl	10005a38 <__wrap___aeabi_f2d>
10000712:	9002      	str	r0, [sp, #8]
10000714:	9103      	str	r1, [sp, #12]
10000716:	4648      	mov	r0, r9
10000718:	f005 f98e 	bl	10005a38 <__wrap___aeabi_f2d>
1000071c:	9000      	str	r0, [sp, #0]
1000071e:	9101      	str	r1, [sp, #4]
10000720:	0032      	movs	r2, r6
10000722:	003b      	movs	r3, r7
10000724:	485e      	ldr	r0, [pc, #376]	; (100008a0 <main+0x300>)
10000726:	f005 fcaf 	bl	10006088 <__wrap_printf>
1000072a:	2600      	movs	r6, #0
1000072c:	e000      	b.n	10000730 <main+0x190>
1000072e:	3601      	adds	r6, #1
10000730:	2e03      	cmp	r6, #3
10000732:	dc13      	bgt.n	1000075c <main+0x1bc>
10000734:	00b3      	lsls	r3, r6, #2
10000736:	aa10      	add	r2, sp, #64	; 0x40
10000738:	589f      	ldr	r7, [r3, r2]
1000073a:	495a      	ldr	r1, [pc, #360]	; (100008a4 <main+0x304>)
1000073c:	1c38      	adds	r0, r7, #0
1000073e:	f005 f96d 	bl	10005a1c <__wrap___aeabi_fcmpgt>
10000742:	2800      	cmp	r0, #0
10000744:	d0f3      	beq.n	1000072e <main+0x18e>
10000746:	4958      	ldr	r1, [pc, #352]	; (100008a8 <main+0x308>)
10000748:	1c38      	adds	r0, r7, #0
1000074a:	f005 f961 	bl	10005a10 <__wrap___aeabi_fcmplt>
1000074e:	2800      	cmp	r0, #0
10000750:	d0ed      	beq.n	1000072e <main+0x18e>
10000752:	00b3      	lsls	r3, r6, #2
10000754:	aa10      	add	r2, sp, #64	; 0x40
10000756:	2100      	movs	r1, #0
10000758:	5099      	str	r1, [r3, r2]
1000075a:	e7e8      	b.n	1000072e <main+0x18e>
1000075c:	9b11      	ldr	r3, [sp, #68]	; 0x44
1000075e:	4699      	mov	r9, r3
10000760:	9b12      	ldr	r3, [sp, #72]	; 0x48
10000762:	469a      	mov	sl, r3
10000764:	9b13      	ldr	r3, [sp, #76]	; 0x4c
10000766:	469b      	mov	fp, r3
10000768:	9810      	ldr	r0, [sp, #64]	; 0x40
1000076a:	f005 f965 	bl	10005a38 <__wrap___aeabi_f2d>
1000076e:	0006      	movs	r6, r0
10000770:	000f      	movs	r7, r1
10000772:	4658      	mov	r0, fp
10000774:	f005 f960 	bl	10005a38 <__wrap___aeabi_f2d>
10000778:	9004      	str	r0, [sp, #16]
1000077a:	9105      	str	r1, [sp, #20]
1000077c:	4650      	mov	r0, sl
1000077e:	f005 f95b 	bl	10005a38 <__wrap___aeabi_f2d>
10000782:	9002      	str	r0, [sp, #8]
10000784:	9103      	str	r1, [sp, #12]
10000786:	4648      	mov	r0, r9
10000788:	f005 f956 	bl	10005a38 <__wrap___aeabi_f2d>
1000078c:	9000      	str	r0, [sp, #0]
1000078e:	9101      	str	r1, [sp, #4]
10000790:	0032      	movs	r2, r6
10000792:	003b      	movs	r3, r7
10000794:	4842      	ldr	r0, [pc, #264]	; (100008a0 <main+0x300>)
10000796:	f005 fc77 	bl	10006088 <__wrap_printf>
1000079a:	9810      	ldr	r0, [sp, #64]	; 0x40
1000079c:	f005 f94c 	bl	10005a38 <__wrap___aeabi_f2d>
100007a0:	4e42      	ldr	r6, [pc, #264]	; (100008ac <main+0x30c>)
100007a2:	6030      	str	r0, [r6, #0]
100007a4:	6071      	str	r1, [r6, #4]
100007a6:	9812      	ldr	r0, [sp, #72]	; 0x48
100007a8:	f005 f946 	bl	10005a38 <__wrap___aeabi_f2d>
100007ac:	60b0      	str	r0, [r6, #8]
100007ae:	60f1      	str	r1, [r6, #12]
100007b0:	9811      	ldr	r0, [sp, #68]	; 0x44
100007b2:	f005 f941 	bl	10005a38 <__wrap___aeabi_f2d>
100007b6:	6130      	str	r0, [r6, #16]
100007b8:	6171      	str	r1, [r6, #20]
100007ba:	9813      	ldr	r0, [sp, #76]	; 0x4c
100007bc:	f005 f93c 	bl	10005a38 <__wrap___aeabi_f2d>
100007c0:	61b0      	str	r0, [r6, #24]
100007c2:	61f1      	str	r1, [r6, #28]
100007c4:	211f      	movs	r1, #31
100007c6:	200f      	movs	r0, #15
100007c8:	f000 ffd6 	bl	10001778 <gpio_set_function>
100007cc:	211f      	movs	r1, #31
100007ce:	200e      	movs	r0, #14
100007d0:	f000 ffd2 	bl	10001778 <gpio_set_function>
100007d4:	2103      	movs	r1, #3
100007d6:	201b      	movs	r0, #27
100007d8:	f000 ffce 	bl	10001778 <gpio_set_function>
100007dc:	2103      	movs	r1, #3
100007de:	201a      	movs	r0, #26
100007e0:	f000 ffca 	bl	10001778 <gpio_set_function>
100007e4:	2042      	movs	r0, #66	; 0x42
100007e6:	ab04      	add	r3, sp, #16
100007e8:	469c      	mov	ip, r3
100007ea:	4460      	add	r0, ip
100007ec:	f000 ffa4 	bl	10001738 <mpu6050_read_raw>
100007f0:	211f      	movs	r1, #31
100007f2:	201b      	movs	r0, #27
100007f4:	f000 ffc0 	bl	10001778 <gpio_set_function>
100007f8:	211f      	movs	r1, #31
100007fa:	201a      	movs	r0, #26
100007fc:	f000 ffbc 	bl	10001778 <gpio_set_function>
10000800:	2103      	movs	r1, #3
10000802:	200f      	movs	r0, #15
10000804:	f000 ffb8 	bl	10001778 <gpio_set_function>
10000808:	2103      	movs	r1, #3
1000080a:	200e      	movs	r0, #14
1000080c:	f000 ffb4 	bl	10001778 <gpio_set_function>
10000810:	481f      	ldr	r0, [pc, #124]	; (10000890 <main+0x2f0>)
10000812:	f008 ff15 	bl	10009640 <__sem_release_veneer>
10000816:	481d      	ldr	r0, [pc, #116]	; (1000088c <main+0x2ec>)
10000818:	f008 ff4a 	bl	100096b0 <__sem_acquire_blocking_veneer>
1000081c:	f000 fc60 	bl	100010e0 <adjustPWM>
10000820:	4b23      	ldr	r3, [pc, #140]	; (100008b0 <main+0x310>)
10000822:	6a98      	ldr	r0, [r3, #40]	; 0x28
10000824:	4642      	mov	r2, r8
10000826:	1a80      	subs	r0, r0, r2
10000828:	6a9b      	ldr	r3, [r3, #40]	; 0x28
1000082a:	4698      	mov	r8, r3
1000082c:	2342      	movs	r3, #66	; 0x42
1000082e:	aa04      	add	r2, sp, #16
10000830:	4694      	mov	ip, r2
10000832:	4463      	add	r3, ip
10000834:	2200      	movs	r2, #0
10000836:	5e9a      	ldrsh	r2, [r3, r2]
10000838:	0013      	movs	r3, r2
1000083a:	333c      	adds	r3, #60	; 0x3c
1000083c:	b29b      	uxth	r3, r3
1000083e:	2b78      	cmp	r3, #120	; 0x78
10000840:	d912      	bls.n	10000868 <main+0x2c8>
10000842:	4350      	muls	r0, r2
10000844:	f004 fcdc 	bl	10005200 <__wrap___aeabi_i2d>
10000848:	4a1a      	ldr	r2, [pc, #104]	; (100008b4 <main+0x314>)
1000084a:	4b1b      	ldr	r3, [pc, #108]	; (100008b8 <main+0x318>)
1000084c:	f004 fc49 	bl	100050e2 <__wrap___aeabi_ddiv>
10000850:	0002      	movs	r2, r0
10000852:	000b      	movs	r3, r1
10000854:	9808      	ldr	r0, [sp, #32]
10000856:	9909      	ldr	r1, [sp, #36]	; 0x24
10000858:	f004 fc3a 	bl	100050d0 <__wrap___aeabi_dadd>
1000085c:	0003      	movs	r3, r0
1000085e:	000c      	movs	r4, r1
10000860:	9306      	str	r3, [sp, #24]
10000862:	9407      	str	r4, [sp, #28]
10000864:	9308      	str	r3, [sp, #32]
10000866:	9409      	str	r4, [sp, #36]	; 0x24
10000868:	f002 f9e8 	bl	10002c3c <time_us_64>
1000086c:	9821      	ldr	r0, [sp, #132]	; 0x84
1000086e:	f005 f8e3 	bl	10005a38 <__wrap___aeabi_f2d>
10000872:	4a12      	ldr	r2, [pc, #72]	; (100008bc <main+0x31c>)
10000874:	4b12      	ldr	r3, [pc, #72]	; (100008c0 <main+0x320>)
10000876:	f004 fc22 	bl	100050be <__wrap___aeabi_dsub>
1000087a:	f004 fd09 	bl	10005290 <__wrap___aeabi_d2f>
1000087e:	900a      	str	r0, [sp, #40]	; 0x28
10000880:	2300      	movs	r3, #0
10000882:	930b      	str	r3, [sp, #44]	; 0x2c
10000884:	930c      	str	r3, [sp, #48]	; 0x30
10000886:	2300      	movs	r3, #0
10000888:	e6f6      	b.n	10000678 <main+0xd8>
1000088a:	46c0      	nop			; (mov r8, r8)
1000088c:	20002440 	.word	0x20002440
10000890:	20002448 	.word	0x20002448
10000894:	00000bb8 	.word	0x00000bb8
10000898:	10000305 	.word	0x10000305
1000089c:	3a83126f 	.word	0x3a83126f
100008a0:	10009750 	.word	0x10009750
100008a4:	c3160000 	.word	0xc3160000
100008a8:	43160000 	.word	0x43160000
100008ac:	20001768 	.word	0x20001768
100008b0:	40054000 	.word	0x40054000
100008b4:	42700000 	.word	0x42700000
100008b8:	41fbf9fa 	.word	0x41fbf9fa
100008bc:	9999999a 	.word	0x9999999a
100008c0:	3fb99999 	.word	0x3fb99999

100008c4 <uart_rx_handler>:
100008c4:	b570      	push	{r4, r5, r6, lr}
100008c6:	b082      	sub	sp, #8
100008c8:	2014      	movs	r0, #20
100008ca:	f005 fa49 	bl	10005d60 <__wrap_malloc>
100008ce:	0004      	movs	r4, r0
100008d0:	4b1e      	ldr	r3, [pc, #120]	; (1000094c <uart_rx_handler+0x88>)
100008d2:	2280      	movs	r2, #128	; 0x80
100008d4:	0392      	lsls	r2, r2, #14
100008d6:	601a      	str	r2, [r3, #0]
100008d8:	e00b      	b.n	100008f2 <uart_rx_handler+0x2e>
100008da:	466b      	mov	r3, sp
100008dc:	79da      	ldrb	r2, [r3, #7]
100008de:	2a0a      	cmp	r2, #10
100008e0:	d01c      	beq.n	1000091c <uart_rx_handler+0x58>
100008e2:	491b      	ldr	r1, [pc, #108]	; (10000950 <uart_rx_handler+0x8c>)
100008e4:	780b      	ldrb	r3, [r1, #0]
100008e6:	b2d8      	uxtb	r0, r3
100008e8:	3301      	adds	r3, #1
100008ea:	b2db      	uxtb	r3, r3
100008ec:	700b      	strb	r3, [r1, #0]
100008ee:	4b19      	ldr	r3, [pc, #100]	; (10000954 <uart_rx_handler+0x90>)
100008f0:	541a      	strb	r2, [r3, r0]
100008f2:	4b19      	ldr	r3, [pc, #100]	; (10000958 <uart_rx_handler+0x94>)
100008f4:	699b      	ldr	r3, [r3, #24]
100008f6:	2110      	movs	r1, #16
100008f8:	000a      	movs	r2, r1
100008fa:	401a      	ands	r2, r3
100008fc:	4219      	tst	r1, r3
100008fe:	d11f      	bne.n	10000940 <uart_rx_handler+0x7c>
10000900:	466b      	mov	r3, sp
10000902:	1dd9      	adds	r1, r3, #7
10000904:	2a00      	cmp	r2, #0
10000906:	d1e8      	bne.n	100008da <uart_rx_handler+0x16>
10000908:	4b13      	ldr	r3, [pc, #76]	; (10000958 <uart_rx_handler+0x94>)
1000090a:	699b      	ldr	r3, [r3, #24]
1000090c:	06db      	lsls	r3, r3, #27
1000090e:	d4fb      	bmi.n	10000908 <uart_rx_handler+0x44>
10000910:	4b11      	ldr	r3, [pc, #68]	; (10000958 <uart_rx_handler+0x94>)
10000912:	681b      	ldr	r3, [r3, #0]
10000914:	700b      	strb	r3, [r1, #0]
10000916:	3201      	adds	r2, #1
10000918:	3101      	adds	r1, #1
1000091a:	e7f3      	b.n	10000904 <uart_rx_handler+0x40>
1000091c:	4d0c      	ldr	r5, [pc, #48]	; (10000950 <uart_rx_handler+0x8c>)
1000091e:	782b      	ldrb	r3, [r5, #0]
10000920:	b2db      	uxtb	r3, r3
10000922:	490c      	ldr	r1, [pc, #48]	; (10000954 <uart_rx_handler+0x90>)
10000924:	2600      	movs	r6, #0
10000926:	54ce      	strb	r6, [r1, r3]
10000928:	0020      	movs	r0, r4
1000092a:	f008 fd1d 	bl	10009368 <strcpy>
1000092e:	0021      	movs	r1, r4
10000930:	480a      	ldr	r0, [pc, #40]	; (1000095c <uart_rx_handler+0x98>)
10000932:	f005 fba9 	bl	10006088 <__wrap_printf>
10000936:	0020      	movs	r0, r4
10000938:	f000 fae8 	bl	10000f0c <moverMotor>
1000093c:	702e      	strb	r6, [r5, #0]
1000093e:	e7d8      	b.n	100008f2 <uart_rx_handler+0x2e>
10000940:	0020      	movs	r0, r4
10000942:	f005 fa2b 	bl	10005d9c <__wrap_free>
10000946:	b002      	add	sp, #8
10000948:	bd70      	pop	{r4, r5, r6, pc}
1000094a:	46c0      	nop			; (mov r8, r8)
1000094c:	e000e280 	.word	0xe000e280
10000950:	2000258c 	.word	0x2000258c
10000954:	20001db8 	.word	0x20001db8
10000958:	40038000 	.word	0x40038000
1000095c:	10009760 	.word	0x10009760

10000960 <initUart>:
10000960:	b570      	push	{r4, r5, r6, lr}
10000962:	0006      	movs	r6, r0
10000964:	000d      	movs	r5, r1
10000966:	2196      	movs	r1, #150	; 0x96
10000968:	4c17      	ldr	r4, [pc, #92]	; (100009c8 <initUart+0x68>)
1000096a:	0189      	lsls	r1, r1, #6
1000096c:	0020      	movs	r0, r4
1000096e:	f002 fd3b 	bl	100033e8 <uart_init>
10000972:	2300      	movs	r3, #0
10000974:	2201      	movs	r2, #1
10000976:	2108      	movs	r1, #8
10000978:	0020      	movs	r0, r4
1000097a:	f002 fd03 	bl	10003384 <uart_set_format>
1000097e:	2100      	movs	r1, #0
10000980:	0020      	movs	r0, r4
10000982:	f002 fd15 	bl	100033b0 <uart_set_fifo_enabled>
10000986:	2102      	movs	r1, #2
10000988:	0030      	movs	r0, r6
1000098a:	f000 fef5 	bl	10001778 <gpio_set_function>
1000098e:	2102      	movs	r1, #2
10000990:	0028      	movs	r0, r5
10000992:	f000 fef1 	bl	10001778 <gpio_set_function>
10000996:	2064      	movs	r0, #100	; 0x64
10000998:	f002 f89c 	bl	10002ad4 <sleep_ms>
1000099c:	2350      	movs	r3, #80	; 0x50
1000099e:	63a3      	str	r3, [r4, #56]	; 0x38
100009a0:	6b63      	ldr	r3, [r4, #52]	; 0x34
100009a2:	2238      	movs	r2, #56	; 0x38
100009a4:	401a      	ands	r2, r3
100009a6:	4909      	ldr	r1, [pc, #36]	; (100009cc <initUart+0x6c>)
100009a8:	2380      	movs	r3, #128	; 0x80
100009aa:	015b      	lsls	r3, r3, #5
100009ac:	430b      	orrs	r3, r1
100009ae:	601a      	str	r2, [r3, #0]
100009b0:	4907      	ldr	r1, [pc, #28]	; (100009d0 <initUart+0x70>)
100009b2:	2015      	movs	r0, #21
100009b4:	f001 f840 	bl	10001a38 <irq_set_exclusive_handler>
100009b8:	2101      	movs	r1, #1
100009ba:	2015      	movs	r0, #21
100009bc:	f001 f812 	bl	100019e4 <irq_set_enabled>
100009c0:	2064      	movs	r0, #100	; 0x64
100009c2:	f002 f887 	bl	10002ad4 <sleep_ms>
100009c6:	bd70      	pop	{r4, r5, r6, pc}
100009c8:	40038000 	.word	0x40038000
100009cc:	40038034 	.word	0x40038034
100009d0:	100008c5 	.word	0x100008c5

100009d4 <planta>:
100009d4:	b5f0      	push	{r4, r5, r6, r7, lr}
100009d6:	46de      	mov	lr, fp
100009d8:	4657      	mov	r7, sl
100009da:	464e      	mov	r6, r9
100009dc:	4645      	mov	r5, r8
100009de:	b5e0      	push	{r5, r6, r7, lr}
100009e0:	b09b      	sub	sp, #108	; 0x6c
100009e2:	0004      	movs	r4, r0
100009e4:	4692      	mov	sl, r2
100009e6:	001d      	movs	r5, r3
100009e8:	688e      	ldr	r6, [r1, #8]
100009ea:	1c30      	adds	r0, r6, #0
100009ec:	f005 f82e 	bl	10005a4c <__wrap_cosf>
100009f0:	4681      	mov	r9, r0
100009f2:	9011      	str	r0, [sp, #68]	; 0x44
100009f4:	1c30      	adds	r0, r6, #0
100009f6:	f005 f83d 	bl	10005a74 <__wrap_sinf>
100009fa:	9000      	str	r0, [sp, #0]
100009fc:	0003      	movs	r3, r0
100009fe:	2280      	movs	r2, #128	; 0x80
10000a00:	0612      	lsls	r2, r2, #24
10000a02:	4694      	mov	ip, r2
10000a04:	4463      	add	r3, ip
10000a06:	469b      	mov	fp, r3
10000a08:	9312      	str	r3, [sp, #72]	; 0x48
10000a0a:	2300      	movs	r3, #0
10000a0c:	9313      	str	r3, [sp, #76]	; 0x4c
10000a0e:	9014      	str	r0, [sp, #80]	; 0x50
10000a10:	464a      	mov	r2, r9
10000a12:	9215      	str	r2, [sp, #84]	; 0x54
10000a14:	9316      	str	r3, [sp, #88]	; 0x58
10000a16:	9317      	str	r3, [sp, #92]	; 0x5c
10000a18:	9318      	str	r3, [sp, #96]	; 0x60
10000a1a:	23fe      	movs	r3, #254	; 0xfe
10000a1c:	059b      	lsls	r3, r3, #22
10000a1e:	9319      	str	r3, [sp, #100]	; 0x64
10000a20:	4b74      	ldr	r3, [pc, #464]	; (10000bf4 <planta+0x220>)
10000a22:	4698      	mov	r8, r3
10000a24:	9305      	str	r3, [sp, #20]
10000a26:	4f74      	ldr	r7, [pc, #464]	; (10000bf8 <planta+0x224>)
10000a28:	9706      	str	r7, [sp, #24]
10000a2a:	4e74      	ldr	r6, [pc, #464]	; (10000bfc <planta+0x228>)
10000a2c:	9607      	str	r6, [sp, #28]
10000a2e:	9308      	str	r3, [sp, #32]
10000a30:	9309      	str	r3, [sp, #36]	; 0x24
10000a32:	960a      	str	r6, [sp, #40]	; 0x28
10000a34:	970b      	str	r7, [sp, #44]	; 0x2c
10000a36:	930c      	str	r3, [sp, #48]	; 0x30
10000a38:	960d      	str	r6, [sp, #52]	; 0x34
10000a3a:	970e      	str	r7, [sp, #56]	; 0x38
10000a3c:	970f      	str	r7, [sp, #60]	; 0x3c
10000a3e:	9610      	str	r6, [sp, #64]	; 0x40
10000a40:	1c19      	adds	r1, r3, #0
10000a42:	6820      	ldr	r0, [r4, #0]
10000a44:	f004 ffb3 	bl	100059ae <__wrap___aeabi_fmul>
10000a48:	9001      	str	r0, [sp, #4]
10000a4a:	1c39      	adds	r1, r7, #0
10000a4c:	6860      	ldr	r0, [r4, #4]
10000a4e:	f004 ffae 	bl	100059ae <__wrap___aeabi_fmul>
10000a52:	1c01      	adds	r1, r0, #0
10000a54:	9801      	ldr	r0, [sp, #4]
10000a56:	f004 ff8f 	bl	10005978 <__wrap___aeabi_fadd>
10000a5a:	9001      	str	r0, [sp, #4]
10000a5c:	1c31      	adds	r1, r6, #0
10000a5e:	68a0      	ldr	r0, [r4, #8]
10000a60:	f004 ffa5 	bl	100059ae <__wrap___aeabi_fmul>
10000a64:	1c01      	adds	r1, r0, #0
10000a66:	9801      	ldr	r0, [sp, #4]
10000a68:	f004 ff86 	bl	10005978 <__wrap___aeabi_fadd>
10000a6c:	9001      	str	r0, [sp, #4]
10000a6e:	6028      	str	r0, [r5, #0]
10000a70:	4641      	mov	r1, r8
10000a72:	6820      	ldr	r0, [r4, #0]
10000a74:	f004 ff9b 	bl	100059ae <__wrap___aeabi_fmul>
10000a78:	9002      	str	r0, [sp, #8]
10000a7a:	4641      	mov	r1, r8
10000a7c:	6860      	ldr	r0, [r4, #4]
10000a7e:	f004 ff96 	bl	100059ae <__wrap___aeabi_fmul>
10000a82:	1c01      	adds	r1, r0, #0
10000a84:	9802      	ldr	r0, [sp, #8]
10000a86:	f004 ff77 	bl	10005978 <__wrap___aeabi_fadd>
10000a8a:	9002      	str	r0, [sp, #8]
10000a8c:	1c31      	adds	r1, r6, #0
10000a8e:	68a0      	ldr	r0, [r4, #8]
10000a90:	f004 ff8d 	bl	100059ae <__wrap___aeabi_fmul>
10000a94:	1c01      	adds	r1, r0, #0
10000a96:	9802      	ldr	r0, [sp, #8]
10000a98:	f004 ff6e 	bl	10005978 <__wrap___aeabi_fadd>
10000a9c:	9002      	str	r0, [sp, #8]
10000a9e:	6068      	str	r0, [r5, #4]
10000aa0:	1c39      	adds	r1, r7, #0
10000aa2:	6820      	ldr	r0, [r4, #0]
10000aa4:	f004 ff83 	bl	100059ae <__wrap___aeabi_fmul>
10000aa8:	9003      	str	r0, [sp, #12]
10000aaa:	4641      	mov	r1, r8
10000aac:	6860      	ldr	r0, [r4, #4]
10000aae:	f004 ff7e 	bl	100059ae <__wrap___aeabi_fmul>
10000ab2:	1c01      	adds	r1, r0, #0
10000ab4:	9803      	ldr	r0, [sp, #12]
10000ab6:	f004 ff5f 	bl	10005978 <__wrap___aeabi_fadd>
10000aba:	4680      	mov	r8, r0
10000abc:	1c31      	adds	r1, r6, #0
10000abe:	68a0      	ldr	r0, [r4, #8]
10000ac0:	f004 ff75 	bl	100059ae <__wrap___aeabi_fmul>
10000ac4:	1c01      	adds	r1, r0, #0
10000ac6:	4640      	mov	r0, r8
10000ac8:	f004 ff56 	bl	10005978 <__wrap___aeabi_fadd>
10000acc:	4680      	mov	r8, r0
10000ace:	60a8      	str	r0, [r5, #8]
10000ad0:	1c39      	adds	r1, r7, #0
10000ad2:	6820      	ldr	r0, [r4, #0]
10000ad4:	f004 ff6b 	bl	100059ae <__wrap___aeabi_fmul>
10000ad8:	9003      	str	r0, [sp, #12]
10000ada:	1c39      	adds	r1, r7, #0
10000adc:	6860      	ldr	r0, [r4, #4]
10000ade:	f004 ff66 	bl	100059ae <__wrap___aeabi_fmul>
10000ae2:	1c01      	adds	r1, r0, #0
10000ae4:	9803      	ldr	r0, [sp, #12]
10000ae6:	f004 ff47 	bl	10005978 <__wrap___aeabi_fadd>
10000aea:	1c07      	adds	r7, r0, #0
10000aec:	1c31      	adds	r1, r6, #0
10000aee:	68a0      	ldr	r0, [r4, #8]
10000af0:	f004 ff5d 	bl	100059ae <__wrap___aeabi_fmul>
10000af4:	1c01      	adds	r1, r0, #0
10000af6:	1c38      	adds	r0, r7, #0
10000af8:	f004 ff3e 	bl	10005978 <__wrap___aeabi_fadd>
10000afc:	1c06      	adds	r6, r0, #0
10000afe:	60e8      	str	r0, [r5, #12]
10000b00:	493f      	ldr	r1, [pc, #252]	; (10000c00 <planta+0x22c>)
10000b02:	9801      	ldr	r0, [sp, #4]
10000b04:	f004 ff53 	bl	100059ae <__wrap___aeabi_fmul>
10000b08:	6028      	str	r0, [r5, #0]
10000b0a:	493d      	ldr	r1, [pc, #244]	; (10000c00 <planta+0x22c>)
10000b0c:	9802      	ldr	r0, [sp, #8]
10000b0e:	f004 ff4e 	bl	100059ae <__wrap___aeabi_fmul>
10000b12:	6068      	str	r0, [r5, #4]
10000b14:	493a      	ldr	r1, [pc, #232]	; (10000c00 <planta+0x22c>)
10000b16:	4640      	mov	r0, r8
10000b18:	f004 ff49 	bl	100059ae <__wrap___aeabi_fmul>
10000b1c:	60a8      	str	r0, [r5, #8]
10000b1e:	4938      	ldr	r1, [pc, #224]	; (10000c00 <planta+0x22c>)
10000b20:	1c30      	adds	r0, r6, #0
10000b22:	f004 ff44 	bl	100059ae <__wrap___aeabi_fmul>
10000b26:	60e8      	str	r0, [r5, #12]
10000b28:	2700      	movs	r7, #0
10000b2a:	46a0      	mov	r8, r4
10000b2c:	002c      	movs	r4, r5
10000b2e:	e008      	b.n	10000b42 <planta+0x16e>
10000b30:	4934      	ldr	r1, [pc, #208]	; (10000c04 <planta+0x230>)
10000b32:	1c28      	adds	r0, r5, #0
10000b34:	f004 ff6c 	bl	10005a10 <__wrap___aeabi_fcmplt>
10000b38:	2800      	cmp	r0, #0
10000b3a:	d001      	beq.n	10000b40 <planta+0x16c>
10000b3c:	4b31      	ldr	r3, [pc, #196]	; (10000c04 <planta+0x230>)
10000b3e:	6033      	str	r3, [r6, #0]
10000b40:	3701      	adds	r7, #1
10000b42:	2f03      	cmp	r7, #3
10000b44:	dc0b      	bgt.n	10000b5e <planta+0x18a>
10000b46:	00be      	lsls	r6, r7, #2
10000b48:	19a6      	adds	r6, r4, r6
10000b4a:	6835      	ldr	r5, [r6, #0]
10000b4c:	492e      	ldr	r1, [pc, #184]	; (10000c08 <planta+0x234>)
10000b4e:	1c28      	adds	r0, r5, #0
10000b50:	f004 ff64 	bl	10005a1c <__wrap___aeabi_fcmpgt>
10000b54:	2800      	cmp	r0, #0
10000b56:	d0eb      	beq.n	10000b30 <planta+0x15c>
10000b58:	4b2b      	ldr	r3, [pc, #172]	; (10000c08 <planta+0x234>)
10000b5a:	6033      	str	r3, [r6, #0]
10000b5c:	e7f0      	b.n	10000b40 <planta+0x16c>
10000b5e:	4644      	mov	r4, r8
10000b60:	6821      	ldr	r1, [r4, #0]
10000b62:	4648      	mov	r0, r9
10000b64:	f004 ff23 	bl	100059ae <__wrap___aeabi_fmul>
10000b68:	1c05      	adds	r5, r0, #0
10000b6a:	6861      	ldr	r1, [r4, #4]
10000b6c:	4658      	mov	r0, fp
10000b6e:	f004 ff1e 	bl	100059ae <__wrap___aeabi_fmul>
10000b72:	1c01      	adds	r1, r0, #0
10000b74:	1c28      	adds	r0, r5, #0
10000b76:	f004 feff 	bl	10005978 <__wrap___aeabi_fadd>
10000b7a:	1c05      	adds	r5, r0, #0
10000b7c:	2100      	movs	r1, #0
10000b7e:	68a0      	ldr	r0, [r4, #8]
10000b80:	f004 ff15 	bl	100059ae <__wrap___aeabi_fmul>
10000b84:	1c01      	adds	r1, r0, #0
10000b86:	1c28      	adds	r0, r5, #0
10000b88:	f004 fef6 	bl	10005978 <__wrap___aeabi_fadd>
10000b8c:	4653      	mov	r3, sl
10000b8e:	6018      	str	r0, [r3, #0]
10000b90:	6821      	ldr	r1, [r4, #0]
10000b92:	9800      	ldr	r0, [sp, #0]
10000b94:	f004 ff0b 	bl	100059ae <__wrap___aeabi_fmul>
10000b98:	1c05      	adds	r5, r0, #0
10000b9a:	6861      	ldr	r1, [r4, #4]
10000b9c:	4648      	mov	r0, r9
10000b9e:	f004 ff06 	bl	100059ae <__wrap___aeabi_fmul>
10000ba2:	1c01      	adds	r1, r0, #0
10000ba4:	1c28      	adds	r0, r5, #0
10000ba6:	f004 fee7 	bl	10005978 <__wrap___aeabi_fadd>
10000baa:	1c05      	adds	r5, r0, #0
10000bac:	2100      	movs	r1, #0
10000bae:	68a0      	ldr	r0, [r4, #8]
10000bb0:	f004 fefd 	bl	100059ae <__wrap___aeabi_fmul>
10000bb4:	1c01      	adds	r1, r0, #0
10000bb6:	1c28      	adds	r0, r5, #0
10000bb8:	f004 fede 	bl	10005978 <__wrap___aeabi_fadd>
10000bbc:	4653      	mov	r3, sl
10000bbe:	6058      	str	r0, [r3, #4]
10000bc0:	2100      	movs	r1, #0
10000bc2:	6820      	ldr	r0, [r4, #0]
10000bc4:	f004 fef3 	bl	100059ae <__wrap___aeabi_fmul>
10000bc8:	1c05      	adds	r5, r0, #0
10000bca:	2100      	movs	r1, #0
10000bcc:	6860      	ldr	r0, [r4, #4]
10000bce:	f004 feee 	bl	100059ae <__wrap___aeabi_fmul>
10000bd2:	1c01      	adds	r1, r0, #0
10000bd4:	1c28      	adds	r0, r5, #0
10000bd6:	f004 fecf 	bl	10005978 <__wrap___aeabi_fadd>
10000bda:	68a1      	ldr	r1, [r4, #8]
10000bdc:	f004 fecc 	bl	10005978 <__wrap___aeabi_fadd>
10000be0:	4653      	mov	r3, sl
10000be2:	6098      	str	r0, [r3, #8]
10000be4:	b01b      	add	sp, #108	; 0x6c
10000be6:	bcf0      	pop	{r4, r5, r6, r7}
10000be8:	46bb      	mov	fp, r7
10000bea:	46b2      	mov	sl, r6
10000bec:	46a9      	mov	r9, r5
10000bee:	46a0      	mov	r8, r4
10000bf0:	bdf0      	pop	{r4, r5, r6, r7, pc}
10000bf2:	46c0      	nop			; (mov r8, r8)
10000bf4:	c0e2462e 	.word	0xc0e2462e
10000bf8:	40e2462e 	.word	0x40e2462e
10000bfc:	41200000 	.word	0x41200000
10000c00:	40a00000 	.word	0x40a00000
10000c04:	c3480000 	.word	0xc3480000
10000c08:	43480000 	.word	0x43480000

10000c0c <control>:
10000c0c:	b5f0      	push	{r4, r5, r6, r7, lr}
10000c0e:	46de      	mov	lr, fp
10000c10:	4657      	mov	r7, sl
10000c12:	464e      	mov	r6, r9
10000c14:	4645      	mov	r5, r8
10000c16:	b5e0      	push	{r5, r6, r7, lr}
10000c18:	b09b      	sub	sp, #108	; 0x6c
10000c1a:	4682      	mov	sl, r0
10000c1c:	4689      	mov	r9, r1
10000c1e:	9301      	str	r3, [sp, #4]
10000c20:	6894      	ldr	r4, [r2, #8]
10000c22:	1c20      	adds	r0, r4, #0
10000c24:	f004 ff12 	bl	10005a4c <__wrap_cosf>
10000c28:	1c07      	adds	r7, r0, #0
10000c2a:	9011      	str	r0, [sp, #68]	; 0x44
10000c2c:	1c20      	adds	r0, r4, #0
10000c2e:	f004 ff21 	bl	10005a74 <__wrap_sinf>
10000c32:	4680      	mov	r8, r0
10000c34:	2380      	movs	r3, #128	; 0x80
10000c36:	061b      	lsls	r3, r3, #24
10000c38:	4443      	add	r3, r8
10000c3a:	469b      	mov	fp, r3
10000c3c:	9312      	str	r3, [sp, #72]	; 0x48
10000c3e:	2300      	movs	r3, #0
10000c40:	9313      	str	r3, [sp, #76]	; 0x4c
10000c42:	9014      	str	r0, [sp, #80]	; 0x50
10000c44:	9715      	str	r7, [sp, #84]	; 0x54
10000c46:	9316      	str	r3, [sp, #88]	; 0x58
10000c48:	9317      	str	r3, [sp, #92]	; 0x5c
10000c4a:	9318      	str	r3, [sp, #96]	; 0x60
10000c4c:	23fe      	movs	r3, #254	; 0xfe
10000c4e:	059b      	lsls	r3, r3, #22
10000c50:	9319      	str	r3, [sp, #100]	; 0x64
10000c52:	2500      	movs	r5, #0
10000c54:	e018      	b.n	10000c88 <control+0x7c>
10000c56:	00ac      	lsls	r4, r5, #2
10000c58:	9b01      	ldr	r3, [sp, #4]
10000c5a:	591e      	ldr	r6, [r3, r4]
10000c5c:	4952      	ldr	r1, [pc, #328]	; (10000da8 <control+0x19c>)
10000c5e:	4653      	mov	r3, sl
10000c60:	5918      	ldr	r0, [r3, r4]
10000c62:	f004 fea4 	bl	100059ae <__wrap___aeabi_fmul>
10000c66:	1c01      	adds	r1, r0, #0
10000c68:	1c30      	adds	r0, r6, #0
10000c6a:	f004 fe85 	bl	10005978 <__wrap___aeabi_fadd>
10000c6e:	1c06      	adds	r6, r0, #0
10000c70:	494e      	ldr	r1, [pc, #312]	; (10000dac <control+0x1a0>)
10000c72:	464b      	mov	r3, r9
10000c74:	5918      	ldr	r0, [r3, r4]
10000c76:	f004 fe9a 	bl	100059ae <__wrap___aeabi_fmul>
10000c7a:	1c01      	adds	r1, r0, #0
10000c7c:	1c30      	adds	r0, r6, #0
10000c7e:	f004 fe7b 	bl	10005978 <__wrap___aeabi_fadd>
10000c82:	ab0e      	add	r3, sp, #56	; 0x38
10000c84:	5118      	str	r0, [r3, r4]
10000c86:	3501      	adds	r5, #1
10000c88:	2d02      	cmp	r5, #2
10000c8a:	dde4      	ble.n	10000c56 <control+0x4a>
10000c8c:	9705      	str	r7, [sp, #20]
10000c8e:	4643      	mov	r3, r8
10000c90:	9306      	str	r3, [sp, #24]
10000c92:	2400      	movs	r4, #0
10000c94:	9407      	str	r4, [sp, #28]
10000c96:	465b      	mov	r3, fp
10000c98:	9308      	str	r3, [sp, #32]
10000c9a:	9709      	str	r7, [sp, #36]	; 0x24
10000c9c:	940a      	str	r4, [sp, #40]	; 0x28
10000c9e:	940b      	str	r4, [sp, #44]	; 0x2c
10000ca0:	940c      	str	r4, [sp, #48]	; 0x30
10000ca2:	23fe      	movs	r3, #254	; 0xfe
10000ca4:	059b      	lsls	r3, r3, #22
10000ca6:	930d      	str	r3, [sp, #52]	; 0x34
10000ca8:	9b0e      	ldr	r3, [sp, #56]	; 0x38
10000caa:	4699      	mov	r9, r3
10000cac:	1c19      	adds	r1, r3, #0
10000cae:	1c38      	adds	r0, r7, #0
10000cb0:	f004 fe7d 	bl	100059ae <__wrap___aeabi_fmul>
10000cb4:	1c05      	adds	r5, r0, #0
10000cb6:	9e0f      	ldr	r6, [sp, #60]	; 0x3c
10000cb8:	1c31      	adds	r1, r6, #0
10000cba:	4658      	mov	r0, fp
10000cbc:	f004 fe77 	bl	100059ae <__wrap___aeabi_fmul>
10000cc0:	1c01      	adds	r1, r0, #0
10000cc2:	1c28      	adds	r0, r5, #0
10000cc4:	f004 fe58 	bl	10005978 <__wrap___aeabi_fadd>
10000cc8:	4683      	mov	fp, r0
10000cca:	9b10      	ldr	r3, [sp, #64]	; 0x40
10000ccc:	469a      	mov	sl, r3
10000cce:	1c21      	adds	r1, r4, #0
10000cd0:	1c18      	adds	r0, r3, #0
10000cd2:	f004 fe6c 	bl	100059ae <__wrap___aeabi_fmul>
10000cd6:	1c05      	adds	r5, r0, #0
10000cd8:	1c01      	adds	r1, r0, #0
10000cda:	4658      	mov	r0, fp
10000cdc:	f004 fe4c 	bl	10005978 <__wrap___aeabi_fadd>
10000ce0:	9002      	str	r0, [sp, #8]
10000ce2:	4649      	mov	r1, r9
10000ce4:	4640      	mov	r0, r8
10000ce6:	f004 fe62 	bl	100059ae <__wrap___aeabi_fmul>
10000cea:	4680      	mov	r8, r0
10000cec:	1c31      	adds	r1, r6, #0
10000cee:	1c38      	adds	r0, r7, #0
10000cf0:	f004 fe5d 	bl	100059ae <__wrap___aeabi_fmul>
10000cf4:	1c01      	adds	r1, r0, #0
10000cf6:	4640      	mov	r0, r8
10000cf8:	f004 fe3e 	bl	10005978 <__wrap___aeabi_fadd>
10000cfc:	1c01      	adds	r1, r0, #0
10000cfe:	1c28      	adds	r0, r5, #0
10000d00:	f004 fe3a 	bl	10005978 <__wrap___aeabi_fadd>
10000d04:	9003      	str	r0, [sp, #12]
10000d06:	1c21      	adds	r1, r4, #0
10000d08:	4648      	mov	r0, r9
10000d0a:	f004 fe50 	bl	100059ae <__wrap___aeabi_fmul>
10000d0e:	1c05      	adds	r5, r0, #0
10000d10:	1c21      	adds	r1, r4, #0
10000d12:	1c30      	adds	r0, r6, #0
10000d14:	f004 fe4b 	bl	100059ae <__wrap___aeabi_fmul>
10000d18:	1c01      	adds	r1, r0, #0
10000d1a:	1c28      	adds	r0, r5, #0
10000d1c:	f004 fe2c 	bl	10005978 <__wrap___aeabi_fadd>
10000d20:	1c01      	adds	r1, r0, #0
10000d22:	4650      	mov	r0, sl
10000d24:	f004 fe28 	bl	10005978 <__wrap___aeabi_fadd>
10000d28:	1c05      	adds	r5, r0, #0
10000d2a:	9004      	str	r0, [sp, #16]
10000d2c:	2400      	movs	r4, #0
10000d2e:	e00a      	b.n	10000d46 <control+0x13a>
10000d30:	491f      	ldr	r1, [pc, #124]	; (10000db0 <control+0x1a4>)
10000d32:	1c30      	adds	r0, r6, #0
10000d34:	f004 fe6c 	bl	10005a10 <__wrap___aeabi_fcmplt>
10000d38:	2800      	cmp	r0, #0
10000d3a:	d014      	beq.n	10000d66 <control+0x15a>
10000d3c:	00a3      	lsls	r3, r4, #2
10000d3e:	4a1c      	ldr	r2, [pc, #112]	; (10000db0 <control+0x1a4>)
10000d40:	9924      	ldr	r1, [sp, #144]	; 0x90
10000d42:	50ca      	str	r2, [r1, r3]
10000d44:	3401      	adds	r4, #1
10000d46:	2c01      	cmp	r4, #1
10000d48:	dc11      	bgt.n	10000d6e <control+0x162>
10000d4a:	00a3      	lsls	r3, r4, #2
10000d4c:	aa02      	add	r2, sp, #8
10000d4e:	589e      	ldr	r6, [r3, r2]
10000d50:	4918      	ldr	r1, [pc, #96]	; (10000db4 <control+0x1a8>)
10000d52:	1c30      	adds	r0, r6, #0
10000d54:	f004 fe62 	bl	10005a1c <__wrap___aeabi_fcmpgt>
10000d58:	2800      	cmp	r0, #0
10000d5a:	d0e9      	beq.n	10000d30 <control+0x124>
10000d5c:	00a3      	lsls	r3, r4, #2
10000d5e:	4a15      	ldr	r2, [pc, #84]	; (10000db4 <control+0x1a8>)
10000d60:	9924      	ldr	r1, [sp, #144]	; 0x90
10000d62:	50ca      	str	r2, [r1, r3]
10000d64:	e7ee      	b.n	10000d44 <control+0x138>
10000d66:	00a3      	lsls	r3, r4, #2
10000d68:	9a24      	ldr	r2, [sp, #144]	; 0x90
10000d6a:	50d6      	str	r6, [r2, r3]
10000d6c:	e7ea      	b.n	10000d44 <control+0x138>
10000d6e:	4912      	ldr	r1, [pc, #72]	; (10000db8 <control+0x1ac>)
10000d70:	1c28      	adds	r0, r5, #0
10000d72:	f004 fe53 	bl	10005a1c <__wrap___aeabi_fcmpgt>
10000d76:	2800      	cmp	r0, #0
10000d78:	d009      	beq.n	10000d8e <control+0x182>
10000d7a:	4b0f      	ldr	r3, [pc, #60]	; (10000db8 <control+0x1ac>)
10000d7c:	9a24      	ldr	r2, [sp, #144]	; 0x90
10000d7e:	6093      	str	r3, [r2, #8]
10000d80:	b01b      	add	sp, #108	; 0x6c
10000d82:	bcf0      	pop	{r4, r5, r6, r7}
10000d84:	46bb      	mov	fp, r7
10000d86:	46b2      	mov	sl, r6
10000d88:	46a9      	mov	r9, r5
10000d8a:	46a0      	mov	r8, r4
10000d8c:	bdf0      	pop	{r4, r5, r6, r7, pc}
10000d8e:	490b      	ldr	r1, [pc, #44]	; (10000dbc <control+0x1b0>)
10000d90:	1c28      	adds	r0, r5, #0
10000d92:	f004 fe3d 	bl	10005a10 <__wrap___aeabi_fcmplt>
10000d96:	2800      	cmp	r0, #0
10000d98:	d003      	beq.n	10000da2 <control+0x196>
10000d9a:	4b08      	ldr	r3, [pc, #32]	; (10000dbc <control+0x1b0>)
10000d9c:	9a24      	ldr	r2, [sp, #144]	; 0x90
10000d9e:	6093      	str	r3, [r2, #8]
10000da0:	e7ee      	b.n	10000d80 <control+0x174>
10000da2:	9b24      	ldr	r3, [sp, #144]	; 0x90
10000da4:	609d      	str	r5, [r3, #8]
10000da6:	e7eb      	b.n	10000d80 <control+0x174>
10000da8:	43160000 	.word	0x43160000
10000dac:	c2480000 	.word	0xc2480000
10000db0:	c1200000 	.word	0xc1200000
10000db4:	41200000 	.word	0x41200000
10000db8:	3fc8f5c3 	.word	0x3fc8f5c3
10000dbc:	bfc8f5c3 	.word	0xbfc8f5c3

10000dc0 <initPWM>:
10000dc0:	b5f0      	push	{r4, r5, r6, r7, lr}
10000dc2:	b087      	sub	sp, #28
10000dc4:	0840      	lsrs	r0, r0, #1
10000dc6:	2407      	movs	r4, #7
10000dc8:	4004      	ands	r4, r0
10000dca:	2907      	cmp	r1, #7
10000dcc:	d935      	bls.n	10000e3a <initPWM+0x7a>
10000dce:	4821      	ldr	r0, [pc, #132]	; (10000e54 <initPWM+0x94>)
10000dd0:	f003 ff12 	bl	10004bf8 <__wrap___aeabi_idiv>
10000dd4:	4684      	mov	ip, r0
10000dd6:	4b20      	ldr	r3, [pc, #128]	; (10000e58 <initPWM+0x98>)
10000dd8:	4298      	cmp	r0, r3
10000dda:	d834      	bhi.n	10000e46 <initPWM+0x86>
10000ddc:	466b      	mov	r3, sp
10000dde:	2100      	movs	r1, #0
10000de0:	9100      	str	r1, [sp, #0]
10000de2:	6059      	str	r1, [r3, #4]
10000de4:	6099      	str	r1, [r3, #8]
10000de6:	2210      	movs	r2, #16
10000de8:	605a      	str	r2, [r3, #4]
10000dea:	4a1c      	ldr	r2, [pc, #112]	; (10000e5c <initPWM+0x9c>)
10000dec:	609a      	str	r2, [r3, #8]
10000dee:	aa03      	add	r2, sp, #12
10000df0:	0015      	movs	r5, r2
10000df2:	cbc1      	ldmia	r3!, {r0, r6, r7}
10000df4:	c5c1      	stmia	r5!, {r0, r6, r7}
10000df6:	23fa      	movs	r3, #250	; 0xfa
10000df8:	011b      	lsls	r3, r3, #4
10000dfa:	9304      	str	r3, [sp, #16]
10000dfc:	2330      	movs	r3, #48	; 0x30
10000dfe:	9d03      	ldr	r5, [sp, #12]
10000e00:	439d      	bics	r5, r3
10000e02:	9503      	str	r5, [sp, #12]
10000e04:	4663      	mov	r3, ip
10000e06:	0418      	lsls	r0, r3, #16
10000e08:	0c00      	lsrs	r0, r0, #16
10000e0a:	9005      	str	r0, [sp, #20]
10000e0c:	4d14      	ldr	r5, [pc, #80]	; (10000e60 <initPWM+0xa0>)
10000e0e:	00a0      	lsls	r0, r4, #2
10000e10:	1903      	adds	r3, r0, r4
10000e12:	009b      	lsls	r3, r3, #2
10000e14:	5159      	str	r1, [r3, r5]
10000e16:	1903      	adds	r3, r0, r4
10000e18:	009b      	lsls	r3, r3, #2
10000e1a:	46ac      	mov	ip, r5
10000e1c:	4463      	add	r3, ip
10000e1e:	6099      	str	r1, [r3, #8]
10000e20:	60d9      	str	r1, [r3, #12]
10000e22:	9905      	ldr	r1, [sp, #20]
10000e24:	6119      	str	r1, [r3, #16]
10000e26:	9a04      	ldr	r2, [sp, #16]
10000e28:	605a      	str	r2, [r3, #4]
10000e2a:	2301      	movs	r3, #1
10000e2c:	9a03      	ldr	r2, [sp, #12]
10000e2e:	4313      	orrs	r3, r2
10000e30:	1900      	adds	r0, r0, r4
10000e32:	0080      	lsls	r0, r0, #2
10000e34:	5143      	str	r3, [r0, r5]
10000e36:	b007      	add	sp, #28
10000e38:	bdf0      	pop	{r4, r5, r6, r7, pc}
10000e3a:	4b0a      	ldr	r3, [pc, #40]	; (10000e64 <initPWM+0xa4>)
10000e3c:	4a0a      	ldr	r2, [pc, #40]	; (10000e68 <initPWM+0xa8>)
10000e3e:	2112      	movs	r1, #18
10000e40:	480a      	ldr	r0, [pc, #40]	; (10000e6c <initPWM+0xac>)
10000e42:	f002 fd53 	bl	100038ec <__assert_func>
10000e46:	4b0a      	ldr	r3, [pc, #40]	; (10000e70 <initPWM+0xb0>)
10000e48:	4a07      	ldr	r2, [pc, #28]	; (10000e68 <initPWM+0xa8>)
10000e4a:	2116      	movs	r1, #22
10000e4c:	4807      	ldr	r0, [pc, #28]	; (10000e6c <initPWM+0xac>)
10000e4e:	f002 fd4d 	bl	100038ec <__assert_func>
10000e52:	46c0      	nop			; (mov r8, r8)
10000e54:	0007a120 	.word	0x0007a120
10000e58:	0000fffe 	.word	0x0000fffe
10000e5c:	0000ffff 	.word	0x0000ffff
10000e60:	40050000 	.word	0x40050000
10000e64:	10009774 	.word	0x10009774
10000e68:	100097f4 	.word	0x100097f4
10000e6c:	1000977c 	.word	0x1000977c
10000e70:	100097d0 	.word	0x100097d0

10000e74 <initMotor>:
10000e74:	b570      	push	{r4, r5, r6, lr}
10000e76:	0006      	movs	r6, r0
10000e78:	2104      	movs	r1, #4
10000e7a:	f000 fc7d 	bl	10001778 <gpio_set_function>
10000e7e:	0873      	lsrs	r3, r6, #1
10000e80:	2507      	movs	r5, #7
10000e82:	401d      	ands	r5, r3
10000e84:	2301      	movs	r3, #1
10000e86:	001c      	movs	r4, r3
10000e88:	4034      	ands	r4, r6
10000e8a:	00aa      	lsls	r2, r5, #2
10000e8c:	1952      	adds	r2, r2, r5
10000e8e:	0092      	lsls	r2, r2, #2
10000e90:	4919      	ldr	r1, [pc, #100]	; (10000ef8 <initMotor+0x84>)
10000e92:	468c      	mov	ip, r1
10000e94:	4462      	add	r2, ip
10000e96:	4233      	tst	r3, r6
10000e98:	d026      	beq.n	10000ee8 <initMotor+0x74>
10000e9a:	2110      	movs	r1, #16
10000e9c:	23cd      	movs	r3, #205	; 0xcd
10000e9e:	009b      	lsls	r3, r3, #2
10000ea0:	408b      	lsls	r3, r1
10000ea2:	2c00      	cmp	r4, #0
10000ea4:	d022      	beq.n	10000eec <initMotor+0x78>
10000ea6:	4915      	ldr	r1, [pc, #84]	; (10000efc <initMotor+0x88>)
10000ea8:	6810      	ldr	r0, [r2, #0]
10000eaa:	4043      	eors	r3, r0
10000eac:	400b      	ands	r3, r1
10000eae:	2180      	movs	r1, #128	; 0x80
10000eb0:	0149      	lsls	r1, r1, #5
10000eb2:	430a      	orrs	r2, r1
10000eb4:	6013      	str	r3, [r2, #0]
10000eb6:	4812      	ldr	r0, [pc, #72]	; (10000f00 <initMotor+0x8c>)
10000eb8:	f001 fe0c 	bl	10002ad4 <sleep_ms>
10000ebc:	00ab      	lsls	r3, r5, #2
10000ebe:	195b      	adds	r3, r3, r5
10000ec0:	009b      	lsls	r3, r3, #2
10000ec2:	4a0d      	ldr	r2, [pc, #52]	; (10000ef8 <initMotor+0x84>)
10000ec4:	4694      	mov	ip, r2
10000ec6:	4463      	add	r3, ip
10000ec8:	2c00      	cmp	r4, #0
10000eca:	d011      	beq.n	10000ef0 <initMotor+0x7c>
10000ecc:	2110      	movs	r1, #16
10000ece:	4a0d      	ldr	r2, [pc, #52]	; (10000f04 <initMotor+0x90>)
10000ed0:	408a      	lsls	r2, r1
10000ed2:	2c00      	cmp	r4, #0
10000ed4:	d00e      	beq.n	10000ef4 <initMotor+0x80>
10000ed6:	4909      	ldr	r1, [pc, #36]	; (10000efc <initMotor+0x88>)
10000ed8:	6818      	ldr	r0, [r3, #0]
10000eda:	4042      	eors	r2, r0
10000edc:	400a      	ands	r2, r1
10000ede:	2180      	movs	r1, #128	; 0x80
10000ee0:	0149      	lsls	r1, r1, #5
10000ee2:	430b      	orrs	r3, r1
10000ee4:	601a      	str	r2, [r3, #0]
10000ee6:	bd70      	pop	{r4, r5, r6, pc}
10000ee8:	0021      	movs	r1, r4
10000eea:	e7d7      	b.n	10000e9c <initMotor+0x28>
10000eec:	4906      	ldr	r1, [pc, #24]	; (10000f08 <initMotor+0x94>)
10000eee:	e7db      	b.n	10000ea8 <initMotor+0x34>
10000ef0:	0021      	movs	r1, r4
10000ef2:	e7ec      	b.n	10000ece <initMotor+0x5a>
10000ef4:	4904      	ldr	r1, [pc, #16]	; (10000f08 <initMotor+0x94>)
10000ef6:	e7ef      	b.n	10000ed8 <initMotor+0x64>
10000ef8:	4005000c 	.word	0x4005000c
10000efc:	ffff0000 	.word	0xffff0000
10000f00:	00000bb8 	.word	0x00000bb8
10000f04:	000002ee 	.word	0x000002ee
10000f08:	0000ffff 	.word	0x0000ffff

10000f0c <moverMotor>:
10000f0c:	7803      	ldrb	r3, [r0, #0]
10000f0e:	2b7a      	cmp	r3, #122	; 0x7a
10000f10:	d009      	beq.n	10000f26 <moverMotor+0x1a>
10000f12:	7803      	ldrb	r3, [r0, #0]
10000f14:	2b73      	cmp	r3, #115	; 0x73
10000f16:	d025      	beq.n	10000f64 <moverMotor+0x58>
10000f18:	7803      	ldrb	r3, [r0, #0]
10000f1a:	2b61      	cmp	r3, #97	; 0x61
10000f1c:	d040      	beq.n	10000fa0 <moverMotor+0x94>
10000f1e:	7803      	ldrb	r3, [r0, #0]
10000f20:	2b62      	cmp	r3, #98	; 0x62
10000f22:	d05c      	beq.n	10000fde <moverMotor+0xd2>
10000f24:	4770      	bx	lr
10000f26:	4b3d      	ldr	r3, [pc, #244]	; (1000101c <moverMotor+0x110>)
10000f28:	681a      	ldr	r2, [r3, #0]
10000f2a:	23c3      	movs	r3, #195	; 0xc3
10000f2c:	009b      	lsls	r3, r3, #2
10000f2e:	405a      	eors	r2, r3
10000f30:	0412      	lsls	r2, r2, #16
10000f32:	0c12      	lsrs	r2, r2, #16
10000f34:	493a      	ldr	r1, [pc, #232]	; (10001020 <moverMotor+0x114>)
10000f36:	600a      	str	r2, [r1, #0]
10000f38:	4a3a      	ldr	r2, [pc, #232]	; (10001024 <moverMotor+0x118>)
10000f3a:	6812      	ldr	r2, [r2, #0]
10000f3c:	405a      	eors	r2, r3
10000f3e:	0412      	lsls	r2, r2, #16
10000f40:	0c12      	lsrs	r2, r2, #16
10000f42:	4939      	ldr	r1, [pc, #228]	; (10001028 <moverMotor+0x11c>)
10000f44:	600a      	str	r2, [r1, #0]
10000f46:	4a39      	ldr	r2, [pc, #228]	; (1000102c <moverMotor+0x120>)
10000f48:	6812      	ldr	r2, [r2, #0]
10000f4a:	405a      	eors	r2, r3
10000f4c:	0412      	lsls	r2, r2, #16
10000f4e:	0c12      	lsrs	r2, r2, #16
10000f50:	4937      	ldr	r1, [pc, #220]	; (10001030 <moverMotor+0x124>)
10000f52:	600a      	str	r2, [r1, #0]
10000f54:	4a37      	ldr	r2, [pc, #220]	; (10001034 <moverMotor+0x128>)
10000f56:	6812      	ldr	r2, [r2, #0]
10000f58:	4053      	eors	r3, r2
10000f5a:	041b      	lsls	r3, r3, #16
10000f5c:	0c1b      	lsrs	r3, r3, #16
10000f5e:	4a36      	ldr	r2, [pc, #216]	; (10001038 <moverMotor+0x12c>)
10000f60:	6013      	str	r3, [r2, #0]
10000f62:	e7d6      	b.n	10000f12 <moverMotor+0x6>
10000f64:	4b2d      	ldr	r3, [pc, #180]	; (1000101c <moverMotor+0x110>)
10000f66:	681a      	ldr	r2, [r3, #0]
10000f68:	4b34      	ldr	r3, [pc, #208]	; (1000103c <moverMotor+0x130>)
10000f6a:	405a      	eors	r2, r3
10000f6c:	0412      	lsls	r2, r2, #16
10000f6e:	0c12      	lsrs	r2, r2, #16
10000f70:	492b      	ldr	r1, [pc, #172]	; (10001020 <moverMotor+0x114>)
10000f72:	600a      	str	r2, [r1, #0]
10000f74:	4a2b      	ldr	r2, [pc, #172]	; (10001024 <moverMotor+0x118>)
10000f76:	6812      	ldr	r2, [r2, #0]
10000f78:	405a      	eors	r2, r3
10000f7a:	0412      	lsls	r2, r2, #16
10000f7c:	0c12      	lsrs	r2, r2, #16
10000f7e:	492a      	ldr	r1, [pc, #168]	; (10001028 <moverMotor+0x11c>)
10000f80:	600a      	str	r2, [r1, #0]
10000f82:	4a2a      	ldr	r2, [pc, #168]	; (1000102c <moverMotor+0x120>)
10000f84:	6812      	ldr	r2, [r2, #0]
10000f86:	405a      	eors	r2, r3
10000f88:	0412      	lsls	r2, r2, #16
10000f8a:	0c12      	lsrs	r2, r2, #16
10000f8c:	4928      	ldr	r1, [pc, #160]	; (10001030 <moverMotor+0x124>)
10000f8e:	600a      	str	r2, [r1, #0]
10000f90:	4a28      	ldr	r2, [pc, #160]	; (10001034 <moverMotor+0x128>)
10000f92:	6812      	ldr	r2, [r2, #0]
10000f94:	4053      	eors	r3, r2
10000f96:	041b      	lsls	r3, r3, #16
10000f98:	0c1b      	lsrs	r3, r3, #16
10000f9a:	4a27      	ldr	r2, [pc, #156]	; (10001038 <moverMotor+0x12c>)
10000f9c:	6013      	str	r3, [r2, #0]
10000f9e:	e7bb      	b.n	10000f18 <moverMotor+0xc>
10000fa0:	4b1e      	ldr	r3, [pc, #120]	; (1000101c <moverMotor+0x110>)
10000fa2:	681a      	ldr	r2, [r3, #0]
10000fa4:	23aa      	movs	r3, #170	; 0xaa
10000fa6:	009b      	lsls	r3, r3, #2
10000fa8:	405a      	eors	r2, r3
10000faa:	0412      	lsls	r2, r2, #16
10000fac:	0c12      	lsrs	r2, r2, #16
10000fae:	491c      	ldr	r1, [pc, #112]	; (10001020 <moverMotor+0x114>)
10000fb0:	600a      	str	r2, [r1, #0]
10000fb2:	4a1c      	ldr	r2, [pc, #112]	; (10001024 <moverMotor+0x118>)
10000fb4:	6812      	ldr	r2, [r2, #0]
10000fb6:	405a      	eors	r2, r3
10000fb8:	0412      	lsls	r2, r2, #16
10000fba:	0c12      	lsrs	r2, r2, #16
10000fbc:	491a      	ldr	r1, [pc, #104]	; (10001028 <moverMotor+0x11c>)
10000fbe:	600a      	str	r2, [r1, #0]
10000fc0:	4a1a      	ldr	r2, [pc, #104]	; (1000102c <moverMotor+0x120>)
10000fc2:	6812      	ldr	r2, [r2, #0]
10000fc4:	405a      	eors	r2, r3
10000fc6:	0412      	lsls	r2, r2, #16
10000fc8:	0c12      	lsrs	r2, r2, #16
10000fca:	4919      	ldr	r1, [pc, #100]	; (10001030 <moverMotor+0x124>)
10000fcc:	600a      	str	r2, [r1, #0]
10000fce:	4a19      	ldr	r2, [pc, #100]	; (10001034 <moverMotor+0x128>)
10000fd0:	6812      	ldr	r2, [r2, #0]
10000fd2:	4053      	eors	r3, r2
10000fd4:	041b      	lsls	r3, r3, #16
10000fd6:	0c1b      	lsrs	r3, r3, #16
10000fd8:	4a17      	ldr	r2, [pc, #92]	; (10001038 <moverMotor+0x12c>)
10000fda:	6013      	str	r3, [r2, #0]
10000fdc:	e79f      	b.n	10000f1e <moverMotor+0x12>
10000fde:	4b0f      	ldr	r3, [pc, #60]	; (1000101c <moverMotor+0x110>)
10000fe0:	681a      	ldr	r2, [r3, #0]
10000fe2:	4b16      	ldr	r3, [pc, #88]	; (1000103c <moverMotor+0x130>)
10000fe4:	405a      	eors	r2, r3
10000fe6:	0412      	lsls	r2, r2, #16
10000fe8:	0c12      	lsrs	r2, r2, #16
10000fea:	490d      	ldr	r1, [pc, #52]	; (10001020 <moverMotor+0x114>)
10000fec:	600a      	str	r2, [r1, #0]
10000fee:	4a0d      	ldr	r2, [pc, #52]	; (10001024 <moverMotor+0x118>)
10000ff0:	6812      	ldr	r2, [r2, #0]
10000ff2:	405a      	eors	r2, r3
10000ff4:	0412      	lsls	r2, r2, #16
10000ff6:	0c12      	lsrs	r2, r2, #16
10000ff8:	490b      	ldr	r1, [pc, #44]	; (10001028 <moverMotor+0x11c>)
10000ffa:	600a      	str	r2, [r1, #0]
10000ffc:	4a0b      	ldr	r2, [pc, #44]	; (1000102c <moverMotor+0x120>)
10000ffe:	6812      	ldr	r2, [r2, #0]
10001000:	405a      	eors	r2, r3
10001002:	0412      	lsls	r2, r2, #16
10001004:	0c12      	lsrs	r2, r2, #16
10001006:	490a      	ldr	r1, [pc, #40]	; (10001030 <moverMotor+0x124>)
10001008:	600a      	str	r2, [r1, #0]
1000100a:	4a0a      	ldr	r2, [pc, #40]	; (10001034 <moverMotor+0x128>)
1000100c:	6812      	ldr	r2, [r2, #0]
1000100e:	4053      	eors	r3, r2
10001010:	041b      	lsls	r3, r3, #16
10001012:	0c1b      	lsrs	r3, r3, #16
10001014:	4a08      	ldr	r2, [pc, #32]	; (10001038 <moverMotor+0x12c>)
10001016:	6013      	str	r3, [r2, #0]
10001018:	e784      	b.n	10000f24 <moverMotor+0x18>
1000101a:	46c0      	nop			; (mov r8, r8)
1000101c:	4005000c 	.word	0x4005000c
10001020:	4005100c 	.word	0x4005100c
10001024:	40050020 	.word	0x40050020
10001028:	40051020 	.word	0x40051020
1000102c:	40050034 	.word	0x40050034
10001030:	40051034 	.word	0x40051034
10001034:	40050048 	.word	0x40050048
10001038:	40051048 	.word	0x40051048
1000103c:	000002ee 	.word	0x000002ee

10001040 <setDutyxPID>:
10001040:	b510      	push	{r4, lr}
10001042:	b280      	uxth	r0, r0
10001044:	4c0f      	ldr	r4, [pc, #60]	; (10001084 <setDutyxPID+0x44>)
10001046:	6824      	ldr	r4, [r4, #0]
10001048:	4060      	eors	r0, r4
1000104a:	0400      	lsls	r0, r0, #16
1000104c:	0c00      	lsrs	r0, r0, #16
1000104e:	4c0e      	ldr	r4, [pc, #56]	; (10001088 <setDutyxPID+0x48>)
10001050:	6020      	str	r0, [r4, #0]
10001052:	b289      	uxth	r1, r1
10001054:	480d      	ldr	r0, [pc, #52]	; (1000108c <setDutyxPID+0x4c>)
10001056:	6800      	ldr	r0, [r0, #0]
10001058:	4041      	eors	r1, r0
1000105a:	0409      	lsls	r1, r1, #16
1000105c:	0c09      	lsrs	r1, r1, #16
1000105e:	480c      	ldr	r0, [pc, #48]	; (10001090 <setDutyxPID+0x50>)
10001060:	6001      	str	r1, [r0, #0]
10001062:	b292      	uxth	r2, r2
10001064:	490b      	ldr	r1, [pc, #44]	; (10001094 <setDutyxPID+0x54>)
10001066:	6809      	ldr	r1, [r1, #0]
10001068:	404a      	eors	r2, r1
1000106a:	0412      	lsls	r2, r2, #16
1000106c:	0c12      	lsrs	r2, r2, #16
1000106e:	490a      	ldr	r1, [pc, #40]	; (10001098 <setDutyxPID+0x58>)
10001070:	600a      	str	r2, [r1, #0]
10001072:	b29b      	uxth	r3, r3
10001074:	4a09      	ldr	r2, [pc, #36]	; (1000109c <setDutyxPID+0x5c>)
10001076:	6812      	ldr	r2, [r2, #0]
10001078:	4053      	eors	r3, r2
1000107a:	041b      	lsls	r3, r3, #16
1000107c:	0c1b      	lsrs	r3, r3, #16
1000107e:	4a08      	ldr	r2, [pc, #32]	; (100010a0 <setDutyxPID+0x60>)
10001080:	6013      	str	r3, [r2, #0]
10001082:	bd10      	pop	{r4, pc}
10001084:	4005000c 	.word	0x4005000c
10001088:	4005100c 	.word	0x4005100c
1000108c:	40050020 	.word	0x40050020
10001090:	40051020 	.word	0x40051020
10001094:	40050034 	.word	0x40050034
10001098:	40051034 	.word	0x40051034
1000109c:	40050048 	.word	0x40050048
100010a0:	40051048 	.word	0x40051048

100010a4 <initMotorControl>:
100010a4:	b510      	push	{r4, lr}
100010a6:	2132      	movs	r1, #50	; 0x32
100010a8:	2000      	movs	r0, #0
100010aa:	f7ff fe89 	bl	10000dc0 <initPWM>
100010ae:	2132      	movs	r1, #50	; 0x32
100010b0:	2002      	movs	r0, #2
100010b2:	f7ff fe85 	bl	10000dc0 <initPWM>
100010b6:	2132      	movs	r1, #50	; 0x32
100010b8:	2004      	movs	r0, #4
100010ba:	f7ff fe81 	bl	10000dc0 <initPWM>
100010be:	2132      	movs	r1, #50	; 0x32
100010c0:	2006      	movs	r0, #6
100010c2:	f7ff fe7d 	bl	10000dc0 <initPWM>
100010c6:	2000      	movs	r0, #0
100010c8:	f7ff fed4 	bl	10000e74 <initMotor>
100010cc:	2002      	movs	r0, #2
100010ce:	f7ff fed1 	bl	10000e74 <initMotor>
100010d2:	2004      	movs	r0, #4
100010d4:	f7ff fece 	bl	10000e74 <initMotor>
100010d8:	2006      	movs	r0, #6
100010da:	f7ff fecb 	bl	10000e74 <initMotor>
100010de:	bd10      	pop	{r4, pc}

100010e0 <adjustPWM>:
100010e0:	b5f0      	push	{r4, r5, r6, r7, lr}
100010e2:	b085      	sub	sp, #20
100010e4:	2400      	movs	r4, #0
100010e6:	e009      	b.n	100010fc <adjustPWM+0x1c>
100010e8:	23aa      	movs	r3, #170	; 0xaa
100010ea:	009b      	lsls	r3, r3, #2
100010ec:	4298      	cmp	r0, r3
100010ee:	da04      	bge.n	100010fa <adjustPWM+0x1a>
100010f0:	00a3      	lsls	r3, r4, #2
100010f2:	4a22      	ldr	r2, [pc, #136]	; (1000117c <adjustPWM+0x9c>)
100010f4:	21aa      	movs	r1, #170	; 0xaa
100010f6:	0089      	lsls	r1, r1, #2
100010f8:	5099      	str	r1, [r3, r2]
100010fa:	3401      	adds	r4, #1
100010fc:	2c03      	cmp	r4, #3
100010fe:	dc13      	bgt.n	10001128 <adjustPWM+0x48>
10001100:	4e1e      	ldr	r6, [pc, #120]	; (1000117c <adjustPWM+0x9c>)
10001102:	00a7      	lsls	r7, r4, #2
10001104:	59bd      	ldr	r5, [r7, r6]
10001106:	00e2      	lsls	r2, r4, #3
10001108:	4b1d      	ldr	r3, [pc, #116]	; (10001180 <adjustPWM+0xa0>)
1000110a:	189b      	adds	r3, r3, r2
1000110c:	6818      	ldr	r0, [r3, #0]
1000110e:	6859      	ldr	r1, [r3, #4]
10001110:	f004 f88e 	bl	10005230 <__wrap___aeabi_d2iz>
10001114:	1828      	adds	r0, r5, r0
10001116:	51b8      	str	r0, [r7, r6]
10001118:	23c8      	movs	r3, #200	; 0xc8
1000111a:	009b      	lsls	r3, r3, #2
1000111c:	4298      	cmp	r0, r3
1000111e:	dde3      	ble.n	100010e8 <adjustPWM+0x8>
10001120:	21c8      	movs	r1, #200	; 0xc8
10001122:	0089      	lsls	r1, r1, #2
10001124:	51b9      	str	r1, [r7, r6]
10001126:	e7e8      	b.n	100010fa <adjustPWM+0x1a>
10001128:	466a      	mov	r2, sp
1000112a:	4b16      	ldr	r3, [pc, #88]	; (10001184 <adjustPWM+0xa4>)
1000112c:	cb13      	ldmia	r3!, {r0, r1, r4}
1000112e:	c213      	stmia	r2!, {r0, r1, r4}
10001130:	681b      	ldr	r3, [r3, #0]
10001132:	6013      	str	r3, [r2, #0]
10001134:	4b11      	ldr	r3, [pc, #68]	; (1000117c <adjustPWM+0x9c>)
10001136:	681b      	ldr	r3, [r3, #0]
10001138:	4a13      	ldr	r2, [pc, #76]	; (10001188 <adjustPWM+0xa8>)
1000113a:	189a      	adds	r2, r3, r2
1000113c:	2a28      	cmp	r2, #40	; 0x28
1000113e:	d900      	bls.n	10001142 <adjustPWM+0x62>
10001140:	9300      	str	r3, [sp, #0]
10001142:	4b0e      	ldr	r3, [pc, #56]	; (1000117c <adjustPWM+0x9c>)
10001144:	685b      	ldr	r3, [r3, #4]
10001146:	4a10      	ldr	r2, [pc, #64]	; (10001188 <adjustPWM+0xa8>)
10001148:	189a      	adds	r2, r3, r2
1000114a:	2a28      	cmp	r2, #40	; 0x28
1000114c:	d900      	bls.n	10001150 <adjustPWM+0x70>
1000114e:	9301      	str	r3, [sp, #4]
10001150:	4b0a      	ldr	r3, [pc, #40]	; (1000117c <adjustPWM+0x9c>)
10001152:	689b      	ldr	r3, [r3, #8]
10001154:	4a0c      	ldr	r2, [pc, #48]	; (10001188 <adjustPWM+0xa8>)
10001156:	189a      	adds	r2, r3, r2
10001158:	2a28      	cmp	r2, #40	; 0x28
1000115a:	d900      	bls.n	1000115e <adjustPWM+0x7e>
1000115c:	9302      	str	r3, [sp, #8]
1000115e:	4b07      	ldr	r3, [pc, #28]	; (1000117c <adjustPWM+0x9c>)
10001160:	68db      	ldr	r3, [r3, #12]
10001162:	4a09      	ldr	r2, [pc, #36]	; (10001188 <adjustPWM+0xa8>)
10001164:	189a      	adds	r2, r3, r2
10001166:	2a28      	cmp	r2, #40	; 0x28
10001168:	d900      	bls.n	1000116c <adjustPWM+0x8c>
1000116a:	9303      	str	r3, [sp, #12]
1000116c:	9b03      	ldr	r3, [sp, #12]
1000116e:	9a01      	ldr	r2, [sp, #4]
10001170:	9902      	ldr	r1, [sp, #8]
10001172:	9800      	ldr	r0, [sp, #0]
10001174:	f7ff ff64 	bl	10001040 <setDutyxPID>
10001178:	b005      	add	sp, #20
1000117a:	bdf0      	pop	{r4, r5, r6, r7, pc}
1000117c:	20000c80 	.word	0x20000c80
10001180:	20001790 	.word	0x20001790
10001184:	100097e4 	.word	0x100097e4
10001188:	fffffd26 	.word	0xfffffd26

1000118c <reserved_addr>:
1000118c:	2378      	movs	r3, #120	; 0x78
1000118e:	001a      	movs	r2, r3
10001190:	4002      	ands	r2, r0
10001192:	4203      	tst	r3, r0
10001194:	d005      	beq.n	100011a2 <reserved_addr+0x16>
10001196:	2a78      	cmp	r2, #120	; 0x78
10001198:	d001      	beq.n	1000119e <reserved_addr+0x12>
1000119a:	2000      	movs	r0, #0
1000119c:	e002      	b.n	100011a4 <reserved_addr+0x18>
1000119e:	2001      	movs	r0, #1
100011a0:	e000      	b.n	100011a4 <reserved_addr+0x18>
100011a2:	2001      	movs	r0, #1
100011a4:	4770      	bx	lr
	...

100011a8 <initI2C>:
100011a8:	b530      	push	{r4, r5, lr}
100011aa:	b085      	sub	sp, #20
100011ac:	4c4f      	ldr	r4, [pc, #316]	; (100012ec <initI2C+0x144>)
100011ae:	0021      	movs	r1, r4
100011b0:	484f      	ldr	r0, [pc, #316]	; (100012f0 <initI2C+0x148>)
100011b2:	f007 fd9d 	bl	10008cf0 <i2c_init>
100011b6:	0021      	movs	r1, r4
100011b8:	484e      	ldr	r0, [pc, #312]	; (100012f4 <initI2C+0x14c>)
100011ba:	f007 fd99 	bl	10008cf0 <i2c_init>
100011be:	2103      	movs	r1, #3
100011c0:	200c      	movs	r0, #12
100011c2:	f000 fad9 	bl	10001778 <gpio_set_function>
100011c6:	2103      	movs	r1, #3
100011c8:	200d      	movs	r0, #13
100011ca:	f000 fad5 	bl	10001778 <gpio_set_function>
100011ce:	2200      	movs	r2, #0
100011d0:	2101      	movs	r1, #1
100011d2:	200c      	movs	r0, #12
100011d4:	f000 fae8 	bl	100017a8 <gpio_set_pulls>
100011d8:	2200      	movs	r2, #0
100011da:	2101      	movs	r1, #1
100011dc:	200d      	movs	r0, #13
100011de:	f000 fae3 	bl	100017a8 <gpio_set_pulls>
100011e2:	2103      	movs	r1, #3
100011e4:	200e      	movs	r0, #14
100011e6:	f000 fac7 	bl	10001778 <gpio_set_function>
100011ea:	2103      	movs	r1, #3
100011ec:	200f      	movs	r0, #15
100011ee:	f000 fac3 	bl	10001778 <gpio_set_function>
100011f2:	2200      	movs	r2, #0
100011f4:	2101      	movs	r1, #1
100011f6:	200e      	movs	r0, #14
100011f8:	f000 fad6 	bl	100017a8 <gpio_set_pulls>
100011fc:	2200      	movs	r2, #0
100011fe:	2101      	movs	r1, #1
10001200:	200f      	movs	r0, #15
10001202:	f000 fad1 	bl	100017a8 <gpio_set_pulls>
10001206:	211f      	movs	r1, #31
10001208:	2014      	movs	r0, #20
1000120a:	f000 fab5 	bl	10001778 <gpio_set_function>
1000120e:	211f      	movs	r1, #31
10001210:	2015      	movs	r0, #21
10001212:	f000 fab1 	bl	10001778 <gpio_set_function>
10001216:	2200      	movs	r2, #0
10001218:	2101      	movs	r1, #1
1000121a:	2014      	movs	r0, #20
1000121c:	f000 fac4 	bl	100017a8 <gpio_set_pulls>
10001220:	2200      	movs	r2, #0
10001222:	2101      	movs	r1, #1
10001224:	2015      	movs	r0, #21
10001226:	f000 fabf 	bl	100017a8 <gpio_set_pulls>
1000122a:	211f      	movs	r1, #31
1000122c:	2012      	movs	r0, #18
1000122e:	f000 faa3 	bl	10001778 <gpio_set_function>
10001232:	211f      	movs	r1, #31
10001234:	2013      	movs	r0, #19
10001236:	f000 fa9f 	bl	10001778 <gpio_set_function>
1000123a:	2200      	movs	r2, #0
1000123c:	2101      	movs	r1, #1
1000123e:	2012      	movs	r0, #18
10001240:	f000 fab2 	bl	100017a8 <gpio_set_pulls>
10001244:	2200      	movs	r2, #0
10001246:	2101      	movs	r1, #1
10001248:	2013      	movs	r0, #19
1000124a:	f000 faad 	bl	100017a8 <gpio_set_pulls>
1000124e:	211f      	movs	r1, #31
10001250:	201a      	movs	r0, #26
10001252:	f000 fa91 	bl	10001778 <gpio_set_function>
10001256:	211f      	movs	r1, #31
10001258:	201b      	movs	r0, #27
1000125a:	f000 fa8d 	bl	10001778 <gpio_set_function>
1000125e:	2200      	movs	r2, #0
10001260:	2101      	movs	r1, #1
10001262:	201a      	movs	r0, #26
10001264:	f000 faa0 	bl	100017a8 <gpio_set_pulls>
10001268:	2200      	movs	r2, #0
1000126a:	2101      	movs	r1, #1
1000126c:	201b      	movs	r0, #27
1000126e:	f000 fa9b 	bl	100017a8 <gpio_set_pulls>
10001272:	4821      	ldr	r0, [pc, #132]	; (100012f8 <initI2C+0x150>)
10001274:	f004 fed8 	bl	10006028 <__wrap_puts>
10001278:	4820      	ldr	r0, [pc, #128]	; (100012fc <initI2C+0x154>)
1000127a:	f004 fed5 	bl	10006028 <__wrap_puts>
1000127e:	2400      	movs	r4, #0
10001280:	e017      	b.n	100012b2 <initI2C+0x10a>
10001282:	0021      	movs	r1, r4
10001284:	481e      	ldr	r0, [pc, #120]	; (10001300 <initI2C+0x158>)
10001286:	f004 feff 	bl	10006088 <__wrap_printf>
1000128a:	e016      	b.n	100012ba <initI2C+0x112>
1000128c:	2300      	movs	r3, #0
1000128e:	9300      	str	r3, [sp, #0]
10001290:	3301      	adds	r3, #1
10001292:	220f      	movs	r2, #15
10001294:	446a      	add	r2, sp
10001296:	0029      	movs	r1, r5
10001298:	4815      	ldr	r0, [pc, #84]	; (100012f0 <initI2C+0x148>)
1000129a:	f007 fd61 	bl	10008d60 <i2c_read_blocking>
1000129e:	2800      	cmp	r0, #0
100012a0:	db01      	blt.n	100012a6 <initI2C+0xfe>
100012a2:	4818      	ldr	r0, [pc, #96]	; (10001304 <initI2C+0x15c>)
100012a4:	e010      	b.n	100012c8 <initI2C+0x120>
100012a6:	4818      	ldr	r0, [pc, #96]	; (10001308 <initI2C+0x160>)
100012a8:	e00e      	b.n	100012c8 <initI2C+0x120>
100012aa:	4818      	ldr	r0, [pc, #96]	; (1000130c <initI2C+0x164>)
100012ac:	f004 feec 	bl	10006088 <__wrap_printf>
100012b0:	3401      	adds	r4, #1
100012b2:	2c7f      	cmp	r4, #127	; 0x7f
100012b4:	dc14      	bgt.n	100012e0 <initI2C+0x138>
100012b6:	0723      	lsls	r3, r4, #28
100012b8:	d0e3      	beq.n	10001282 <initI2C+0xda>
100012ba:	b2e5      	uxtb	r5, r4
100012bc:	0028      	movs	r0, r5
100012be:	f7ff ff65 	bl	1000118c <reserved_addr>
100012c2:	2800      	cmp	r0, #0
100012c4:	d0e2      	beq.n	1000128c <initI2C+0xe4>
100012c6:	4810      	ldr	r0, [pc, #64]	; (10001308 <initI2C+0x160>)
100012c8:	f004 fede 	bl	10006088 <__wrap_printf>
100012cc:	17e2      	asrs	r2, r4, #31
100012ce:	0f12      	lsrs	r2, r2, #28
100012d0:	18a1      	adds	r1, r4, r2
100012d2:	230f      	movs	r3, #15
100012d4:	400b      	ands	r3, r1
100012d6:	1a9b      	subs	r3, r3, r2
100012d8:	2b0f      	cmp	r3, #15
100012da:	d0e6      	beq.n	100012aa <initI2C+0x102>
100012dc:	480c      	ldr	r0, [pc, #48]	; (10001310 <initI2C+0x168>)
100012de:	e7e5      	b.n	100012ac <initI2C+0x104>
100012e0:	480c      	ldr	r0, [pc, #48]	; (10001314 <initI2C+0x16c>)
100012e2:	f004 fea1 	bl	10006028 <__wrap_puts>
100012e6:	b005      	add	sp, #20
100012e8:	bd30      	pop	{r4, r5, pc}
100012ea:	46c0      	nop			; (mov r8, r8)
100012ec:	000f4240 	.word	0x000f4240
100012f0:	20000de8 	.word	0x20000de8
100012f4:	20000df0 	.word	0x20000df0
100012f8:	10009804 	.word	0x10009804
100012fc:	10009814 	.word	0x10009814
10001300:	10009848 	.word	0x10009848
10001304:	100097fc 	.word	0x100097fc
10001308:	10009854 	.word	0x10009854
1000130c:	10009874 	.word	0x10009874
10001310:	10009800 	.word	0x10009800
10001314:	10009850 	.word	0x10009850

10001318 <obtainAngle>:
10001318:	b5f0      	push	{r4, r5, r6, r7, lr}
1000131a:	46c6      	mov	lr, r8
1000131c:	b500      	push	{lr}
1000131e:	b084      	sub	sp, #16
10001320:	0004      	movs	r4, r0
10001322:	0016      	movs	r6, r2
10001324:	001f      	movs	r7, r3
10001326:	2301      	movs	r3, #1
10001328:	4698      	mov	r8, r3
1000132a:	9300      	str	r3, [sp, #0]
1000132c:	4a39      	ldr	r2, [pc, #228]	; (10001414 <obtainAngle+0xfc>)
1000132e:	2136      	movs	r1, #54	; 0x36
10001330:	f007 fd0a 	bl	10008d48 <i2c_write_blocking>
10001334:	2500      	movs	r5, #0
10001336:	9500      	str	r5, [sp, #0]
10001338:	2301      	movs	r3, #1
1000133a:	220d      	movs	r2, #13
1000133c:	446a      	add	r2, sp
1000133e:	2136      	movs	r1, #54	; 0x36
10001340:	0020      	movs	r0, r4
10001342:	f007 fd0d 	bl	10008d60 <i2c_read_blocking>
10001346:	4643      	mov	r3, r8
10001348:	9300      	str	r3, [sp, #0]
1000134a:	4a33      	ldr	r2, [pc, #204]	; (10001418 <obtainAngle+0x100>)
1000134c:	2136      	movs	r1, #54	; 0x36
1000134e:	0020      	movs	r0, r4
10001350:	f007 fcfa 	bl	10008d48 <i2c_write_blocking>
10001354:	9500      	str	r5, [sp, #0]
10001356:	2301      	movs	r3, #1
10001358:	aa03      	add	r2, sp, #12
1000135a:	2136      	movs	r1, #54	; 0x36
1000135c:	0020      	movs	r0, r4
1000135e:	f007 fcff 	bl	10008d60 <i2c_read_blocking>
10001362:	466b      	mov	r3, sp
10001364:	7b1b      	ldrb	r3, [r3, #12]
10001366:	021b      	lsls	r3, r3, #8
10001368:	466a      	mov	r2, sp
1000136a:	7b50      	ldrb	r0, [r2, #13]
1000136c:	4318      	orrs	r0, r3
1000136e:	f003 ff43 	bl	100051f8 <__wrap___aeabi_ui2d>
10001372:	2200      	movs	r2, #0
10001374:	4b29      	ldr	r3, [pc, #164]	; (1000141c <obtainAngle+0x104>)
10001376:	f003 fed2 	bl	1000511e <__wrap___aeabi_dmul>
1000137a:	4b29      	ldr	r3, [pc, #164]	; (10001420 <obtainAngle+0x108>)
1000137c:	4698      	mov	r8, r3
1000137e:	6018      	str	r0, [r3, #0]
10001380:	6059      	str	r1, [r3, #4]
10001382:	0032      	movs	r2, r6
10001384:	003b      	movs	r3, r7
10001386:	f003 fe9a 	bl	100050be <__wrap___aeabi_dsub>
1000138a:	0004      	movs	r4, r0
1000138c:	000d      	movs	r5, r1
1000138e:	4643      	mov	r3, r8
10001390:	601c      	str	r4, [r3, #0]
10001392:	605d      	str	r5, [r3, #4]
10001394:	2200      	movs	r2, #0
10001396:	2300      	movs	r3, #0
10001398:	f003 ff04 	bl	100051a4 <__wrap___aeabi_dcmplt>
1000139c:	2800      	cmp	r0, #0
1000139e:	d11c      	bne.n	100013da <obtainAngle+0xc2>
100013a0:	2200      	movs	r2, #0
100013a2:	4b20      	ldr	r3, [pc, #128]	; (10001424 <obtainAngle+0x10c>)
100013a4:	491e      	ldr	r1, [pc, #120]	; (10001420 <obtainAngle+0x108>)
100013a6:	6808      	ldr	r0, [r1, #0]
100013a8:	6849      	ldr	r1, [r1, #4]
100013aa:	f003 fe9a 	bl	100050e2 <__wrap___aeabi_ddiv>
100013ae:	f003 ff3f 	bl	10005230 <__wrap___aeabi_d2iz>
100013b2:	3001      	adds	r0, #1
100013b4:	b280      	uxth	r0, r0
100013b6:	1e83      	subs	r3, r0, #2
100013b8:	b29b      	uxth	r3, r3
100013ba:	2b01      	cmp	r3, #1
100013bc:	d917      	bls.n	100013ee <obtainAngle+0xd6>
100013be:	4b1a      	ldr	r3, [pc, #104]	; (10001428 <obtainAngle+0x110>)
100013c0:	781a      	ldrb	r2, [r3, #0]
100013c2:	4290      	cmp	r0, r2
100013c4:	d005      	beq.n	100013d2 <obtainAngle+0xba>
100013c6:	2801      	cmp	r0, #1
100013c8:	d016      	beq.n	100013f8 <obtainAngle+0xe0>
100013ca:	2804      	cmp	r0, #4
100013cc:	d01f      	beq.n	1000140e <obtainAngle+0xf6>
100013ce:	4b16      	ldr	r3, [pc, #88]	; (10001428 <obtainAngle+0x110>)
100013d0:	7018      	strb	r0, [r3, #0]
100013d2:	b004      	add	sp, #16
100013d4:	bc80      	pop	{r7}
100013d6:	46b8      	mov	r8, r7
100013d8:	bdf0      	pop	{r4, r5, r6, r7, pc}
100013da:	2200      	movs	r2, #0
100013dc:	4b13      	ldr	r3, [pc, #76]	; (1000142c <obtainAngle+0x114>)
100013de:	0020      	movs	r0, r4
100013e0:	0029      	movs	r1, r5
100013e2:	f003 fe75 	bl	100050d0 <__wrap___aeabi_dadd>
100013e6:	4643      	mov	r3, r8
100013e8:	6018      	str	r0, [r3, #0]
100013ea:	6059      	str	r1, [r3, #4]
100013ec:	e7d8      	b.n	100013a0 <obtainAngle+0x88>
100013ee:	4a10      	ldr	r2, [pc, #64]	; (10001430 <obtainAngle+0x118>)
100013f0:	6813      	ldr	r3, [r2, #0]
100013f2:	3301      	adds	r3, #1
100013f4:	6013      	str	r3, [r2, #0]
100013f6:	e7e2      	b.n	100013be <obtainAngle+0xa6>
100013f8:	2a04      	cmp	r2, #4
100013fa:	d1e6      	bne.n	100013ca <obtainAngle+0xb2>
100013fc:	4b0c      	ldr	r3, [pc, #48]	; (10001430 <obtainAngle+0x118>)
100013fe:	681b      	ldr	r3, [r3, #0]
10001400:	2b00      	cmp	r3, #0
10001402:	d0e4      	beq.n	100013ce <obtainAngle+0xb6>
10001404:	4a0b      	ldr	r2, [pc, #44]	; (10001434 <obtainAngle+0x11c>)
10001406:	6813      	ldr	r3, [r2, #0]
10001408:	3301      	adds	r3, #1
1000140a:	6013      	str	r3, [r2, #0]
1000140c:	e7df      	b.n	100013ce <obtainAngle+0xb6>
1000140e:	2a01      	cmp	r2, #1
10001410:	d1dd      	bne.n	100013ce <obtainAngle+0xb6>
10001412:	e7f3      	b.n	100013fc <obtainAngle+0xe4>
10001414:	10009896 	.word	0x10009896
10001418:	10009895 	.word	0x10009895
1000141c:	3fb68000 	.word	0x3fb68000
10001420:	20001660 	.word	0x20001660
10001424:	40568000 	.word	0x40568000
10001428:	20002592 	.word	0x20002592
1000142c:	40768000 	.word	0x40768000
10001430:	20001f0c 	.word	0x20001f0c
10001434:	2000231c 	.word	0x2000231c

10001438 <switchI2c>:
10001438:	b570      	push	{r4, r5, r6, lr}
1000143a:	000e      	movs	r6, r1
1000143c:	0015      	movs	r5, r2
1000143e:	001c      	movs	r4, r3
10001440:	2103      	movs	r1, #3
10001442:	f000 f999 	bl	10001778 <gpio_set_function>
10001446:	2103      	movs	r1, #3
10001448:	0030      	movs	r0, r6
1000144a:	f000 f995 	bl	10001778 <gpio_set_function>
1000144e:	211f      	movs	r1, #31
10001450:	0028      	movs	r0, r5
10001452:	f000 f991 	bl	10001778 <gpio_set_function>
10001456:	211f      	movs	r1, #31
10001458:	0020      	movs	r0, r4
1000145a:	f000 f98d 	bl	10001778 <gpio_set_function>
1000145e:	bd70      	pop	{r4, r5, r6, pc}

10001460 <checkMagnetPresent>:
10001460:	b530      	push	{r4, r5, lr}
10001462:	b085      	sub	sp, #20
10001464:	230f      	movs	r3, #15
10001466:	446b      	add	r3, sp
10001468:	2200      	movs	r2, #0
1000146a:	701a      	strb	r2, [r3, #0]
1000146c:	2400      	movs	r4, #0
1000146e:	e042      	b.n	100014f6 <checkMagnetPresent+0x96>
10001470:	230d      	movs	r3, #13
10001472:	220c      	movs	r2, #12
10001474:	2115      	movs	r1, #21
10001476:	2014      	movs	r0, #20
10001478:	f7ff ffde 	bl	10001438 <switchI2c>
1000147c:	e01a      	b.n	100014b4 <checkMagnetPresent+0x54>
1000147e:	4d2d      	ldr	r5, [pc, #180]	; (10001534 <checkMagnetPresent+0xd4>)
10001480:	2301      	movs	r3, #1
10001482:	9300      	str	r3, [sp, #0]
10001484:	4a2c      	ldr	r2, [pc, #176]	; (10001538 <checkMagnetPresent+0xd8>)
10001486:	2136      	movs	r1, #54	; 0x36
10001488:	0028      	movs	r0, r5
1000148a:	f007 fc5d 	bl	10008d48 <i2c_write_blocking>
1000148e:	2300      	movs	r3, #0
10001490:	9300      	str	r3, [sp, #0]
10001492:	3301      	adds	r3, #1
10001494:	220f      	movs	r2, #15
10001496:	446a      	add	r2, sp
10001498:	2136      	movs	r1, #54	; 0x36
1000149a:	0028      	movs	r0, r5
1000149c:	f007 fc60 	bl	10008d60 <i2c_read_blocking>
100014a0:	230f      	movs	r3, #15
100014a2:	446b      	add	r3, sp
100014a4:	781a      	ldrb	r2, [r3, #0]
100014a6:	1c61      	adds	r1, r4, #1
100014a8:	4824      	ldr	r0, [pc, #144]	; (1000153c <checkMagnetPresent+0xdc>)
100014aa:	f004 fded 	bl	10006088 <__wrap_printf>
100014ae:	200a      	movs	r0, #10
100014b0:	f001 fb10 	bl	10002ad4 <sleep_ms>
100014b4:	230f      	movs	r3, #15
100014b6:	446b      	add	r3, sp
100014b8:	781b      	ldrb	r3, [r3, #0]
100014ba:	069b      	lsls	r3, r3, #26
100014bc:	d413      	bmi.n	100014e6 <checkMagnetPresent+0x86>
100014be:	2c01      	cmp	r4, #1
100014c0:	d8dd      	bhi.n	1000147e <checkMagnetPresent+0x1e>
100014c2:	4d1f      	ldr	r5, [pc, #124]	; (10001540 <checkMagnetPresent+0xe0>)
100014c4:	2301      	movs	r3, #1
100014c6:	9300      	str	r3, [sp, #0]
100014c8:	4a1b      	ldr	r2, [pc, #108]	; (10001538 <checkMagnetPresent+0xd8>)
100014ca:	2136      	movs	r1, #54	; 0x36
100014cc:	0028      	movs	r0, r5
100014ce:	f007 fc3b 	bl	10008d48 <i2c_write_blocking>
100014d2:	2300      	movs	r3, #0
100014d4:	9300      	str	r3, [sp, #0]
100014d6:	3301      	adds	r3, #1
100014d8:	220f      	movs	r2, #15
100014da:	446a      	add	r2, sp
100014dc:	2136      	movs	r1, #54	; 0x36
100014de:	0028      	movs	r0, r5
100014e0:	f007 fc3e 	bl	10008d60 <i2c_read_blocking>
100014e4:	e7dc      	b.n	100014a0 <checkMagnetPresent+0x40>
100014e6:	3401      	adds	r4, #1
100014e8:	0021      	movs	r1, r4
100014ea:	4816      	ldr	r0, [pc, #88]	; (10001544 <checkMagnetPresent+0xe4>)
100014ec:	f004 fdcc 	bl	10006088 <__wrap_printf>
100014f0:	201e      	movs	r0, #30
100014f2:	f001 faef 	bl	10002ad4 <sleep_ms>
100014f6:	2c03      	cmp	r4, #3
100014f8:	dc0e      	bgt.n	10001518 <checkMagnetPresent+0xb8>
100014fa:	230f      	movs	r3, #15
100014fc:	446b      	add	r3, sp
100014fe:	2200      	movs	r2, #0
10001500:	701a      	strb	r2, [r3, #0]
10001502:	2c01      	cmp	r4, #1
10001504:	d0b4      	beq.n	10001470 <checkMagnetPresent+0x10>
10001506:	2c02      	cmp	r4, #2
10001508:	d1d4      	bne.n	100014b4 <checkMagnetPresent+0x54>
1000150a:	230f      	movs	r3, #15
1000150c:	220e      	movs	r2, #14
1000150e:	2113      	movs	r1, #19
10001510:	2012      	movs	r0, #18
10001512:	f7ff ff91 	bl	10001438 <switchI2c>
10001516:	e7cd      	b.n	100014b4 <checkMagnetPresent+0x54>
10001518:	2315      	movs	r3, #21
1000151a:	2214      	movs	r2, #20
1000151c:	210d      	movs	r1, #13
1000151e:	200c      	movs	r0, #12
10001520:	f7ff ff8a 	bl	10001438 <switchI2c>
10001524:	2313      	movs	r3, #19
10001526:	2212      	movs	r2, #18
10001528:	210f      	movs	r1, #15
1000152a:	200e      	movs	r0, #14
1000152c:	f7ff ff84 	bl	10001438 <switchI2c>
10001530:	b005      	add	sp, #20
10001532:	bd30      	pop	{r4, r5, pc}
10001534:	20000df0 	.word	0x20000df0
10001538:	10009897 	.word	0x10009897
1000153c:	10009858 	.word	0x10009858
10001540:	20000de8 	.word	0x20000de8
10001544:	10009878 	.word	0x10009878

10001548 <calcularControlPID>:
10001548:	b5f0      	push	{r4, r5, r6, r7, lr}
1000154a:	46d6      	mov	lr, sl
1000154c:	464f      	mov	r7, r9
1000154e:	4646      	mov	r6, r8
10001550:	b5c0      	push	{r6, r7, lr}
10001552:	b082      	sub	sp, #8
10001554:	2300      	movs	r3, #0
10001556:	4699      	mov	r9, r3
10001558:	e01e      	b.n	10001598 <calcularControlPID+0x50>
1000155a:	2200      	movs	r2, #0
1000155c:	4b49      	ldr	r3, [pc, #292]	; (10001684 <calcularControlPID+0x13c>)
1000155e:	0020      	movs	r0, r4
10001560:	0029      	movs	r1, r5
10001562:	f003 fe1f 	bl	100051a4 <__wrap___aeabi_dcmplt>
10001566:	2800      	cmp	r0, #0
10001568:	d007      	beq.n	1000157a <calcularControlPID+0x32>
1000156a:	464b      	mov	r3, r9
1000156c:	00da      	lsls	r2, r3, #3
1000156e:	4b46      	ldr	r3, [pc, #280]	; (10001688 <calcularControlPID+0x140>)
10001570:	189b      	adds	r3, r3, r2
10001572:	2000      	movs	r0, #0
10001574:	4943      	ldr	r1, [pc, #268]	; (10001684 <calcularControlPID+0x13c>)
10001576:	6018      	str	r0, [r3, #0]
10001578:	6059      	str	r1, [r3, #4]
1000157a:	464b      	mov	r3, r9
1000157c:	00db      	lsls	r3, r3, #3
1000157e:	4c42      	ldr	r4, [pc, #264]	; (10001688 <calcularControlPID+0x140>)
10001580:	18e4      	adds	r4, r4, r3
10001582:	2200      	movs	r2, #0
10001584:	4b41      	ldr	r3, [pc, #260]	; (1000168c <calcularControlPID+0x144>)
10001586:	6820      	ldr	r0, [r4, #0]
10001588:	6861      	ldr	r1, [r4, #4]
1000158a:	f003 fdc8 	bl	1000511e <__wrap___aeabi_dmul>
1000158e:	6020      	str	r0, [r4, #0]
10001590:	6061      	str	r1, [r4, #4]
10001592:	2301      	movs	r3, #1
10001594:	469c      	mov	ip, r3
10001596:	44e1      	add	r9, ip
10001598:	464b      	mov	r3, r9
1000159a:	2b03      	cmp	r3, #3
1000159c:	dc6b      	bgt.n	10001676 <calcularControlPID+0x12e>
1000159e:	464b      	mov	r3, r9
100015a0:	00da      	lsls	r2, r3, #3
100015a2:	4b3b      	ldr	r3, [pc, #236]	; (10001690 <calcularControlPID+0x148>)
100015a4:	4690      	mov	r8, r2
100015a6:	4443      	add	r3, r8
100015a8:	6818      	ldr	r0, [r3, #0]
100015aa:	6859      	ldr	r1, [r3, #4]
100015ac:	4b39      	ldr	r3, [pc, #228]	; (10001694 <calcularControlPID+0x14c>)
100015ae:	4443      	add	r3, r8
100015b0:	681a      	ldr	r2, [r3, #0]
100015b2:	685b      	ldr	r3, [r3, #4]
100015b4:	f003 fd83 	bl	100050be <__wrap___aeabi_dsub>
100015b8:	0006      	movs	r6, r0
100015ba:	000f      	movs	r7, r1
100015bc:	4b36      	ldr	r3, [pc, #216]	; (10001698 <calcularControlPID+0x150>)
100015be:	4443      	add	r3, r8
100015c0:	469a      	mov	sl, r3
100015c2:	681c      	ldr	r4, [r3, #0]
100015c4:	685d      	ldr	r5, [r3, #4]
100015c6:	4b35      	ldr	r3, [pc, #212]	; (1000169c <calcularControlPID+0x154>)
100015c8:	4443      	add	r3, r8
100015ca:	6818      	ldr	r0, [r3, #0]
100015cc:	6859      	ldr	r1, [r3, #4]
100015ce:	0032      	movs	r2, r6
100015d0:	003b      	movs	r3, r7
100015d2:	f003 fda4 	bl	1000511e <__wrap___aeabi_dmul>
100015d6:	0002      	movs	r2, r0
100015d8:	000b      	movs	r3, r1
100015da:	0020      	movs	r0, r4
100015dc:	0029      	movs	r1, r5
100015de:	f003 fd77 	bl	100050d0 <__wrap___aeabi_dadd>
100015e2:	0004      	movs	r4, r0
100015e4:	000d      	movs	r5, r1
100015e6:	4653      	mov	r3, sl
100015e8:	601c      	str	r4, [r3, #0]
100015ea:	605d      	str	r5, [r3, #4]
100015ec:	4b2c      	ldr	r3, [pc, #176]	; (100016a0 <calcularControlPID+0x158>)
100015ee:	4443      	add	r3, r8
100015f0:	6818      	ldr	r0, [r3, #0]
100015f2:	6859      	ldr	r1, [r3, #4]
100015f4:	0032      	movs	r2, r6
100015f6:	003b      	movs	r3, r7
100015f8:	f003 fd91 	bl	1000511e <__wrap___aeabi_dmul>
100015fc:	0002      	movs	r2, r0
100015fe:	000b      	movs	r3, r1
10001600:	0020      	movs	r0, r4
10001602:	0029      	movs	r1, r5
10001604:	f003 fd64 	bl	100050d0 <__wrap___aeabi_dadd>
10001608:	9000      	str	r0, [sp, #0]
1000160a:	9101      	str	r1, [sp, #4]
1000160c:	4b25      	ldr	r3, [pc, #148]	; (100016a4 <calcularControlPID+0x15c>)
1000160e:	4443      	add	r3, r8
10001610:	681c      	ldr	r4, [r3, #0]
10001612:	685d      	ldr	r5, [r3, #4]
10001614:	4b24      	ldr	r3, [pc, #144]	; (100016a8 <calcularControlPID+0x160>)
10001616:	4443      	add	r3, r8
10001618:	469a      	mov	sl, r3
1000161a:	681a      	ldr	r2, [r3, #0]
1000161c:	685b      	ldr	r3, [r3, #4]
1000161e:	0030      	movs	r0, r6
10001620:	0039      	movs	r1, r7
10001622:	f003 fd4c 	bl	100050be <__wrap___aeabi_dsub>
10001626:	2200      	movs	r2, #0
10001628:	4b20      	ldr	r3, [pc, #128]	; (100016ac <calcularControlPID+0x164>)
1000162a:	f003 fd78 	bl	1000511e <__wrap___aeabi_dmul>
1000162e:	0002      	movs	r2, r0
10001630:	000b      	movs	r3, r1
10001632:	0020      	movs	r0, r4
10001634:	0029      	movs	r1, r5
10001636:	f003 fd72 	bl	1000511e <__wrap___aeabi_dmul>
1000163a:	0002      	movs	r2, r0
1000163c:	000b      	movs	r3, r1
1000163e:	9800      	ldr	r0, [sp, #0]
10001640:	9901      	ldr	r1, [sp, #4]
10001642:	f003 fd45 	bl	100050d0 <__wrap___aeabi_dadd>
10001646:	0004      	movs	r4, r0
10001648:	000d      	movs	r5, r1
1000164a:	4b0f      	ldr	r3, [pc, #60]	; (10001688 <calcularControlPID+0x140>)
1000164c:	4443      	add	r3, r8
1000164e:	601c      	str	r4, [r3, #0]
10001650:	605d      	str	r5, [r3, #4]
10001652:	4653      	mov	r3, sl
10001654:	601e      	str	r6, [r3, #0]
10001656:	605f      	str	r7, [r3, #4]
10001658:	2200      	movs	r2, #0
1000165a:	4b15      	ldr	r3, [pc, #84]	; (100016b0 <calcularControlPID+0x168>)
1000165c:	f003 fdb8 	bl	100051d0 <__wrap___aeabi_dcmpgt>
10001660:	2800      	cmp	r0, #0
10001662:	d100      	bne.n	10001666 <calcularControlPID+0x11e>
10001664:	e779      	b.n	1000155a <calcularControlPID+0x12>
10001666:	4642      	mov	r2, r8
10001668:	4b07      	ldr	r3, [pc, #28]	; (10001688 <calcularControlPID+0x140>)
1000166a:	189b      	adds	r3, r3, r2
1000166c:	2000      	movs	r0, #0
1000166e:	4910      	ldr	r1, [pc, #64]	; (100016b0 <calcularControlPID+0x168>)
10001670:	6018      	str	r0, [r3, #0]
10001672:	6059      	str	r1, [r3, #4]
10001674:	e781      	b.n	1000157a <calcularControlPID+0x32>
10001676:	b002      	add	sp, #8
10001678:	bce0      	pop	{r5, r6, r7}
1000167a:	46ba      	mov	sl, r7
1000167c:	46b1      	mov	r9, r6
1000167e:	46a8      	mov	r8, r5
10001680:	bdf0      	pop	{r4, r5, r6, r7, pc}
10001682:	46c0      	nop			; (mov r8, r8)
10001684:	c0790000 	.word	0xc0790000
10001688:	20001790 	.word	0x20001790
1000168c:	3fd00000 	.word	0x3fd00000
10001690:	200017f0 	.word	0x200017f0
10001694:	20001768 	.word	0x20001768
10001698:	200017b0 	.word	0x200017b0
1000169c:	20000cb0 	.word	0x20000cb0
100016a0:	20000cd0 	.word	0x20000cd0
100016a4:	20000c90 	.word	0x20000c90
100016a8:	200017d0 	.word	0x200017d0
100016ac:	40240000 	.word	0x40240000
100016b0:	40790000 	.word	0x40790000

100016b4 <setOffset>:
100016b4:	b500      	push	{lr}
100016b6:	b085      	sub	sp, #20
100016b8:	aa03      	add	r2, sp, #12
100016ba:	7011      	strb	r1, [r2, #0]
100016bc:	1203      	asrs	r3, r0, #8
100016be:	7053      	strb	r3, [r2, #1]
100016c0:	7090      	strb	r0, [r2, #2]
100016c2:	2300      	movs	r3, #0
100016c4:	9300      	str	r3, [sp, #0]
100016c6:	3303      	adds	r3, #3
100016c8:	2168      	movs	r1, #104	; 0x68
100016ca:	4802      	ldr	r0, [pc, #8]	; (100016d4 <setOffset+0x20>)
100016cc:	f007 fb3c 	bl	10008d48 <i2c_write_blocking>
100016d0:	b005      	add	sp, #20
100016d2:	bd00      	pop	{pc}
100016d4:	20000df0 	.word	0x20000df0

100016d8 <mpu6050_reset>:
100016d8:	b500      	push	{lr}
100016da:	b085      	sub	sp, #20
100016dc:	aa03      	add	r2, sp, #12
100016de:	236b      	movs	r3, #107	; 0x6b
100016e0:	8013      	strh	r3, [r2, #0]
100016e2:	2300      	movs	r3, #0
100016e4:	9300      	str	r3, [sp, #0]
100016e6:	3302      	adds	r3, #2
100016e8:	2168      	movs	r1, #104	; 0x68
100016ea:	480f      	ldr	r0, [pc, #60]	; (10001728 <mpu6050_reset+0x50>)
100016ec:	f007 fb2c 	bl	10008d48 <i2c_write_blocking>
100016f0:	2106      	movs	r1, #6
100016f2:	480e      	ldr	r0, [pc, #56]	; (1000172c <mpu6050_reset+0x54>)
100016f4:	f7ff ffde 	bl	100016b4 <setOffset>
100016f8:	2108      	movs	r1, #8
100016fa:	480d      	ldr	r0, [pc, #52]	; (10001730 <mpu6050_reset+0x58>)
100016fc:	f7ff ffda 	bl	100016b4 <setOffset>
10001700:	210a      	movs	r1, #10
10001702:	480c      	ldr	r0, [pc, #48]	; (10001734 <mpu6050_reset+0x5c>)
10001704:	f7ff ffd6 	bl	100016b4 <setOffset>
10001708:	2113      	movs	r1, #19
1000170a:	2013      	movs	r0, #19
1000170c:	f7ff ffd2 	bl	100016b4 <setOffset>
10001710:	202f      	movs	r0, #47	; 0x2f
10001712:	2115      	movs	r1, #21
10001714:	4240      	negs	r0, r0
10001716:	f7ff ffcd 	bl	100016b4 <setOffset>
1000171a:	2117      	movs	r1, #23
1000171c:	2005      	movs	r0, #5
1000171e:	f7ff ffc9 	bl	100016b4 <setOffset>
10001722:	b005      	add	sp, #20
10001724:	bd00      	pop	{pc}
10001726:	46c0      	nop			; (mov r8, r8)
10001728:	20000df0 	.word	0x20000df0
1000172c:	fffffb65 	.word	0xfffffb65
10001730:	fffffe28 	.word	0xfffffe28
10001734:	0000070d 	.word	0x0000070d

10001738 <mpu6050_read_raw>:
10001738:	b530      	push	{r4, r5, lr}
1000173a:	b087      	sub	sp, #28
1000173c:	0004      	movs	r4, r0
1000173e:	220f      	movs	r2, #15
10001740:	446a      	add	r2, sp
10001742:	2347      	movs	r3, #71	; 0x47
10001744:	7013      	strb	r3, [r2, #0]
10001746:	4d0b      	ldr	r5, [pc, #44]	; (10001774 <mpu6050_read_raw+0x3c>)
10001748:	3b46      	subs	r3, #70	; 0x46
1000174a:	9300      	str	r3, [sp, #0]
1000174c:	2168      	movs	r1, #104	; 0x68
1000174e:	0028      	movs	r0, r5
10001750:	f007 fafa 	bl	10008d48 <i2c_write_blocking>
10001754:	2300      	movs	r3, #0
10001756:	9300      	str	r3, [sp, #0]
10001758:	3302      	adds	r3, #2
1000175a:	aa04      	add	r2, sp, #16
1000175c:	2168      	movs	r1, #104	; 0x68
1000175e:	0028      	movs	r0, r5
10001760:	f007 fafe 	bl	10008d60 <i2c_read_blocking>
10001764:	466b      	mov	r3, sp
10001766:	7c1a      	ldrb	r2, [r3, #16]
10001768:	0212      	lsls	r2, r2, #8
1000176a:	7c5b      	ldrb	r3, [r3, #17]
1000176c:	4313      	orrs	r3, r2
1000176e:	8023      	strh	r3, [r4, #0]
10001770:	b007      	add	sp, #28
10001772:	bd30      	pop	{r4, r5, pc}
10001774:	20000df0 	.word	0x20000df0

10001778 <gpio_set_function>:
10001778:	b510      	push	{r4, lr}
1000177a:	0083      	lsls	r3, r0, #2
1000177c:	4a08      	ldr	r2, [pc, #32]	; (100017a0 <gpio_set_function+0x28>)
1000177e:	4694      	mov	ip, r2
10001780:	4463      	add	r3, ip
10001782:	681c      	ldr	r4, [r3, #0]
10001784:	2240      	movs	r2, #64	; 0x40
10001786:	4062      	eors	r2, r4
10001788:	24c0      	movs	r4, #192	; 0xc0
1000178a:	4014      	ands	r4, r2
1000178c:	2280      	movs	r2, #128	; 0x80
1000178e:	0152      	lsls	r2, r2, #5
10001790:	4313      	orrs	r3, r2
10001792:	601c      	str	r4, [r3, #0]
10001794:	00c0      	lsls	r0, r0, #3
10001796:	4b03      	ldr	r3, [pc, #12]	; (100017a4 <gpio_set_function+0x2c>)
10001798:	469c      	mov	ip, r3
1000179a:	4460      	add	r0, ip
1000179c:	6041      	str	r1, [r0, #4]
1000179e:	bd10      	pop	{r4, pc}
100017a0:	4001c004 	.word	0x4001c004
100017a4:	40014000 	.word	0x40014000

100017a8 <gpio_set_pulls>:
100017a8:	0080      	lsls	r0, r0, #2
100017aa:	4b0b      	ldr	r3, [pc, #44]	; (100017d8 <gpio_set_pulls+0x30>)
100017ac:	469c      	mov	ip, r3
100017ae:	4460      	add	r0, ip
100017b0:	2900      	cmp	r1, #0
100017b2:	d00d      	beq.n	100017d0 <gpio_set_pulls+0x28>
100017b4:	2308      	movs	r3, #8
100017b6:	2a00      	cmp	r2, #0
100017b8:	d00c      	beq.n	100017d4 <gpio_set_pulls+0x2c>
100017ba:	2204      	movs	r2, #4
100017bc:	4313      	orrs	r3, r2
100017be:	6802      	ldr	r2, [r0, #0]
100017c0:	4053      	eors	r3, r2
100017c2:	220c      	movs	r2, #12
100017c4:	4013      	ands	r3, r2
100017c6:	2280      	movs	r2, #128	; 0x80
100017c8:	0152      	lsls	r2, r2, #5
100017ca:	4310      	orrs	r0, r2
100017cc:	6003      	str	r3, [r0, #0]
100017ce:	4770      	bx	lr
100017d0:	2300      	movs	r3, #0
100017d2:	e7f0      	b.n	100017b6 <gpio_set_pulls+0xe>
100017d4:	2200      	movs	r2, #0
100017d6:	e7f1      	b.n	100017bc <gpio_set_pulls+0x14>
100017d8:	4001c004 	.word	0x4001c004

100017dc <running_on_fpga>:
100017dc:	4b03      	ldr	r3, [pc, #12]	; (100017ec <running_on_fpga+0x10>)
100017de:	681b      	ldr	r3, [r3, #0]
100017e0:	2002      	movs	r0, #2
100017e2:	4018      	ands	r0, r3
100017e4:	1e43      	subs	r3, r0, #1
100017e6:	4198      	sbcs	r0, r3
100017e8:	b2c0      	uxtb	r0, r0
100017ea:	4770      	bx	lr
100017ec:	4006c000 	.word	0x4006c000

100017f0 <hw_claim_lock>:
100017f0:	f3ef 8010 	mrs	r0, PRIMASK
100017f4:	b672      	cpsid	i
100017f6:	4b03      	ldr	r3, [pc, #12]	; (10001804 <hw_claim_lock+0x14>)
100017f8:	681b      	ldr	r3, [r3, #0]
100017fa:	2b00      	cmp	r3, #0
100017fc:	d0fb      	beq.n	100017f6 <hw_claim_lock+0x6>
100017fe:	f3bf 8f5f 	dmb	sy
10001802:	4770      	bx	lr
10001804:	d000012c 	.word	0xd000012c

10001808 <hw_claim_unlock>:
10001808:	f3bf 8f5f 	dmb	sy
1000180c:	4b02      	ldr	r3, [pc, #8]	; (10001818 <hw_claim_unlock+0x10>)
1000180e:	2200      	movs	r2, #0
10001810:	601a      	str	r2, [r3, #0]
10001812:	f380 8810 	msr	PRIMASK, r0
10001816:	4770      	bx	lr
10001818:	d000012c 	.word	0xd000012c

1000181c <hw_claim_or_assert>:
1000181c:	b5f8      	push	{r3, r4, r5, r6, r7, lr}
1000181e:	0006      	movs	r6, r0
10001820:	000c      	movs	r4, r1
10001822:	0015      	movs	r5, r2
10001824:	f7ff ffe4 	bl	100017f0 <hw_claim_lock>
10001828:	08e3      	lsrs	r3, r4, #3
1000182a:	18f7      	adds	r7, r6, r3
1000182c:	5cf1      	ldrb	r1, [r6, r3]
1000182e:	2207      	movs	r2, #7
10001830:	4022      	ands	r2, r4
10001832:	2301      	movs	r3, #1
10001834:	4093      	lsls	r3, r2
10001836:	420b      	tst	r3, r1
10001838:	d105      	bne.n	10001846 <hw_claim_or_assert+0x2a>
1000183a:	b2db      	uxtb	r3, r3
1000183c:	430b      	orrs	r3, r1
1000183e:	703b      	strb	r3, [r7, #0]
10001840:	f7ff ffe2 	bl	10001808 <hw_claim_unlock>
10001844:	bdf8      	pop	{r3, r4, r5, r6, r7, pc}
10001846:	0021      	movs	r1, r4
10001848:	0028      	movs	r0, r5
1000184a:	f002 f8e9 	bl	10003a20 <panic>

1000184e <hw_claim_unused_from_range>:
1000184e:	b5f0      	push	{r4, r5, r6, r7, lr}
10001850:	b083      	sub	sp, #12
10001852:	0006      	movs	r6, r0
10001854:	9101      	str	r1, [sp, #4]
10001856:	0014      	movs	r4, r2
10001858:	001f      	movs	r7, r3
1000185a:	f7ff ffc9 	bl	100017f0 <hw_claim_lock>
1000185e:	e000      	b.n	10001862 <hw_claim_unused_from_range+0x14>
10001860:	3401      	adds	r4, #1
10001862:	42bc      	cmp	r4, r7
10001864:	d80c      	bhi.n	10001880 <hw_claim_unused_from_range+0x32>
10001866:	08e3      	lsrs	r3, r4, #3
10001868:	18f5      	adds	r5, r6, r3
1000186a:	5cf3      	ldrb	r3, [r6, r3]
1000186c:	2107      	movs	r1, #7
1000186e:	4021      	ands	r1, r4
10001870:	2201      	movs	r2, #1
10001872:	408a      	lsls	r2, r1
10001874:	421a      	tst	r2, r3
10001876:	d1f3      	bne.n	10001860 <hw_claim_unused_from_range+0x12>
10001878:	b2d2      	uxtb	r2, r2
1000187a:	431a      	orrs	r2, r3
1000187c:	702a      	strb	r2, [r5, #0]
1000187e:	e001      	b.n	10001884 <hw_claim_unused_from_range+0x36>
10001880:	2401      	movs	r4, #1
10001882:	4264      	negs	r4, r4
10001884:	f7ff ffc0 	bl	10001808 <hw_claim_unlock>
10001888:	2c00      	cmp	r4, #0
1000188a:	db02      	blt.n	10001892 <hw_claim_unused_from_range+0x44>
1000188c:	0020      	movs	r0, r4
1000188e:	b003      	add	sp, #12
10001890:	bdf0      	pop	{r4, r5, r6, r7, pc}
10001892:	9b01      	ldr	r3, [sp, #4]
10001894:	2b00      	cmp	r3, #0
10001896:	d0f9      	beq.n	1000188c <hw_claim_unused_from_range+0x3e>
10001898:	9808      	ldr	r0, [sp, #32]
1000189a:	f002 f8c1 	bl	10003a20 <panic>
	...

100018a0 <spin_locks_reset>:
100018a0:	2300      	movs	r3, #0
100018a2:	e007      	b.n	100018b4 <spin_locks_reset+0x14>
100018a4:	4a05      	ldr	r2, [pc, #20]	; (100018bc <spin_locks_reset+0x1c>)
100018a6:	189a      	adds	r2, r3, r2
100018a8:	0092      	lsls	r2, r2, #2
100018aa:	f3bf 8f5f 	dmb	sy
100018ae:	2100      	movs	r1, #0
100018b0:	6011      	str	r1, [r2, #0]
100018b2:	3301      	adds	r3, #1
100018b4:	2b1f      	cmp	r3, #31
100018b6:	d9f5      	bls.n	100018a4 <spin_locks_reset+0x4>
100018b8:	4770      	bx	lr
100018ba:	46c0      	nop			; (mov r8, r8)
100018bc:	34000040 	.word	0x34000040

100018c0 <next_striped_spin_lock_num>:
100018c0:	4a05      	ldr	r2, [pc, #20]	; (100018d8 <next_striped_spin_lock_num+0x18>)
100018c2:	7810      	ldrb	r0, [r2, #0]
100018c4:	1c43      	adds	r3, r0, #1
100018c6:	b2db      	uxtb	r3, r3
100018c8:	7013      	strb	r3, [r2, #0]
100018ca:	2b17      	cmp	r3, #23
100018cc:	d902      	bls.n	100018d4 <next_striped_spin_lock_num+0x14>
100018ce:	0013      	movs	r3, r2
100018d0:	2210      	movs	r2, #16
100018d2:	701a      	strb	r2, [r3, #0]
100018d4:	4770      	bx	lr
100018d6:	46c0      	nop			; (mov r8, r8)
100018d8:	20000cf0 	.word	0x20000cf0

100018dc <spin_lock_claim_unused>:
100018dc:	b500      	push	{lr}
100018de:	b083      	sub	sp, #12
100018e0:	0001      	movs	r1, r0
100018e2:	4b04      	ldr	r3, [pc, #16]	; (100018f4 <spin_lock_claim_unused+0x18>)
100018e4:	9300      	str	r3, [sp, #0]
100018e6:	231f      	movs	r3, #31
100018e8:	2218      	movs	r2, #24
100018ea:	4803      	ldr	r0, [pc, #12]	; (100018f8 <spin_lock_claim_unused+0x1c>)
100018ec:	f7ff ffaf 	bl	1000184e <hw_claim_unused_from_range>
100018f0:	b003      	add	sp, #12
100018f2:	bd00      	pop	{pc}
100018f4:	100098c8 	.word	0x100098c8
100018f8:	20001e68 	.word	0x20001e68

100018fc <set_raw_irq_handler_and_unlock>:
100018fc:	4b07      	ldr	r3, [pc, #28]	; (1000191c <set_raw_irq_handler_and_unlock+0x20>)
100018fe:	689b      	ldr	r3, [r3, #8]
10001900:	3010      	adds	r0, #16
10001902:	0080      	lsls	r0, r0, #2
10001904:	5019      	str	r1, [r3, r0]
10001906:	f3bf 8f5f 	dmb	sy
1000190a:	f3bf 8f5f 	dmb	sy
1000190e:	4b04      	ldr	r3, [pc, #16]	; (10001920 <set_raw_irq_handler_and_unlock+0x24>)
10001910:	2100      	movs	r1, #0
10001912:	6019      	str	r1, [r3, #0]
10001914:	f382 8810 	msr	PRIMASK, r2
10001918:	4770      	bx	lr
1000191a:	46c0      	nop			; (mov r8, r8)
1000191c:	e000ed00 	.word	0xe000ed00
10001920:	d0000124 	.word	0xd0000124

10001924 <make_branch>:
10001924:	b510      	push	{r4, lr}
10001926:	1a09      	subs	r1, r1, r0
10001928:	1f08      	subs	r0, r1, #4
1000192a:	4b0a      	ldr	r3, [pc, #40]	; (10001954 <make_branch+0x30>)
1000192c:	469c      	mov	ip, r3
1000192e:	4461      	add	r1, ip
10001930:	4a09      	ldr	r2, [pc, #36]	; (10001958 <make_branch+0x34>)
10001932:	4291      	cmp	r1, r2
10001934:	d808      	bhi.n	10001948 <make_branch+0x24>
10001936:	07c3      	lsls	r3, r0, #31
10001938:	d406      	bmi.n	10001948 <make_branch+0x24>
1000193a:	1040      	asrs	r0, r0, #1
1000193c:	0540      	lsls	r0, r0, #21
1000193e:	0d40      	lsrs	r0, r0, #21
10001940:	4b06      	ldr	r3, [pc, #24]	; (1000195c <make_branch+0x38>)
10001942:	4318      	orrs	r0, r3
10001944:	b280      	uxth	r0, r0
10001946:	bd10      	pop	{r4, pc}
10001948:	4b05      	ldr	r3, [pc, #20]	; (10001960 <make_branch+0x3c>)
1000194a:	4a06      	ldr	r2, [pc, #24]	; (10001964 <make_branch+0x40>)
1000194c:	21a3      	movs	r1, #163	; 0xa3
1000194e:	4806      	ldr	r0, [pc, #24]	; (10001968 <make_branch+0x44>)
10001950:	f001 ffcc 	bl	100038ec <__assert_func>
10001954:	000007fc 	.word	0x000007fc
10001958:	00000ffe 	.word	0x00000ffe
1000195c:	ffffe000 	.word	0xffffe000
10001960:	100098e4 	.word	0x100098e4
10001964:	10009b70 	.word	0x10009b70
10001968:	10009914 	.word	0x10009914

1000196c <insert_branch_and_link>:
1000196c:	b510      	push	{r4, lr}
1000196e:	1a09      	subs	r1, r1, r0
10001970:	3904      	subs	r1, #4
10001972:	084c      	lsrs	r4, r1, #1
10001974:	0b09      	lsrs	r1, r1, #12
10001976:	d108      	bne.n	1000198a <insert_branch_and_link+0x1e>
10001978:	0549      	lsls	r1, r1, #21
1000197a:	0d49      	lsrs	r1, r1, #21
1000197c:	4a06      	ldr	r2, [pc, #24]	; (10001998 <insert_branch_and_link+0x2c>)
1000197e:	4311      	orrs	r1, r2
10001980:	8001      	strh	r1, [r0, #0]
10001982:	4b06      	ldr	r3, [pc, #24]	; (1000199c <insert_branch_and_link+0x30>)
10001984:	4323      	orrs	r3, r4
10001986:	8043      	strh	r3, [r0, #2]
10001988:	bd10      	pop	{r4, pc}
1000198a:	4b05      	ldr	r3, [pc, #20]	; (100019a0 <insert_branch_and_link+0x34>)
1000198c:	4a05      	ldr	r2, [pc, #20]	; (100019a4 <insert_branch_and_link+0x38>)
1000198e:	21ab      	movs	r1, #171	; 0xab
10001990:	4805      	ldr	r0, [pc, #20]	; (100019a8 <insert_branch_and_link+0x3c>)
10001992:	f001 ffab 	bl	100038ec <__assert_func>
10001996:	46c0      	nop			; (mov r8, r8)
10001998:	fffff000 	.word	0xfffff000
1000199c:	fffff800 	.word	0xfffff800
100019a0:	10009970 	.word	0x10009970
100019a4:	10009b44 	.word	0x10009b44
100019a8:	10009914 	.word	0x10009914

100019ac <irq_is_enabled>:
100019ac:	2301      	movs	r3, #1
100019ae:	4083      	lsls	r3, r0
100019b0:	4a03      	ldr	r2, [pc, #12]	; (100019c0 <irq_is_enabled+0x14>)
100019b2:	6810      	ldr	r0, [r2, #0]
100019b4:	4018      	ands	r0, r3
100019b6:	1e43      	subs	r3, r0, #1
100019b8:	4198      	sbcs	r0, r3
100019ba:	b2c0      	uxtb	r0, r0
100019bc:	4770      	bx	lr
100019be:	46c0      	nop			; (mov r8, r8)
100019c0:	e000e100 	.word	0xe000e100

100019c4 <irq_set_mask_enabled>:
100019c4:	2900      	cmp	r1, #0
100019c6:	d004      	beq.n	100019d2 <irq_set_mask_enabled+0xe>
100019c8:	4b03      	ldr	r3, [pc, #12]	; (100019d8 <irq_set_mask_enabled+0x14>)
100019ca:	6018      	str	r0, [r3, #0]
100019cc:	4b03      	ldr	r3, [pc, #12]	; (100019dc <irq_set_mask_enabled+0x18>)
100019ce:	6018      	str	r0, [r3, #0]
100019d0:	4770      	bx	lr
100019d2:	4b03      	ldr	r3, [pc, #12]	; (100019e0 <irq_set_mask_enabled+0x1c>)
100019d4:	6018      	str	r0, [r3, #0]
100019d6:	e7fb      	b.n	100019d0 <irq_set_mask_enabled+0xc>
100019d8:	e000e280 	.word	0xe000e280
100019dc:	e000e100 	.word	0xe000e100
100019e0:	e000e180 	.word	0xe000e180

100019e4 <irq_set_enabled>:
100019e4:	b510      	push	{r4, lr}
100019e6:	2301      	movs	r3, #1
100019e8:	4083      	lsls	r3, r0
100019ea:	0018      	movs	r0, r3
100019ec:	f7ff ffea 	bl	100019c4 <irq_set_mask_enabled>
100019f0:	bd10      	pop	{r4, pc}
	...

100019f4 <irq_set_pending>:
100019f4:	2301      	movs	r3, #1
100019f6:	4083      	lsls	r3, r0
100019f8:	4a01      	ldr	r2, [pc, #4]	; (10001a00 <irq_set_pending+0xc>)
100019fa:	6013      	str	r3, [r2, #0]
100019fc:	4770      	bx	lr
100019fe:	46c0      	nop			; (mov r8, r8)
10001a00:	e000e200 	.word	0xe000e200

10001a04 <irq_get_vtable_handler>:
10001a04:	4b02      	ldr	r3, [pc, #8]	; (10001a10 <irq_get_vtable_handler+0xc>)
10001a06:	689b      	ldr	r3, [r3, #8]
10001a08:	3010      	adds	r0, #16
10001a0a:	0080      	lsls	r0, r0, #2
10001a0c:	58c0      	ldr	r0, [r0, r3]
10001a0e:	4770      	bx	lr
10001a10:	e000ed00 	.word	0xe000ed00

10001a14 <irq_has_shared_handler>:
10001a14:	b510      	push	{r4, lr}
10001a16:	f7ff fff5 	bl	10001a04 <irq_get_vtable_handler>
10001a1a:	2800      	cmp	r0, #0
10001a1c:	d005      	beq.n	10001a2a <irq_has_shared_handler+0x16>
10001a1e:	4b05      	ldr	r3, [pc, #20]	; (10001a34 <irq_has_shared_handler+0x20>)
10001a20:	1ac0      	subs	r0, r0, r3
10001a22:	282f      	cmp	r0, #47	; 0x2f
10001a24:	d803      	bhi.n	10001a2e <irq_has_shared_handler+0x1a>
10001a26:	2001      	movs	r0, #1
10001a28:	bd10      	pop	{r4, pc}
10001a2a:	2000      	movs	r0, #0
10001a2c:	e7fc      	b.n	10001a28 <irq_has_shared_handler+0x14>
10001a2e:	2000      	movs	r0, #0
10001a30:	e7fa      	b.n	10001a28 <irq_has_shared_handler+0x14>
10001a32:	46c0      	nop			; (mov r8, r8)
10001a34:	20000cf4 	.word	0x20000cf4

10001a38 <irq_set_exclusive_handler>:
10001a38:	b570      	push	{r4, r5, r6, lr}
10001a3a:	0004      	movs	r4, r0
10001a3c:	000d      	movs	r5, r1
10001a3e:	f3ef 8610 	mrs	r6, PRIMASK
10001a42:	b672      	cpsid	i
10001a44:	4b0c      	ldr	r3, [pc, #48]	; (10001a78 <irq_set_exclusive_handler+0x40>)
10001a46:	681b      	ldr	r3, [r3, #0]
10001a48:	2b00      	cmp	r3, #0
10001a4a:	d0fb      	beq.n	10001a44 <irq_set_exclusive_handler+0xc>
10001a4c:	f3bf 8f5f 	dmb	sy
10001a50:	0020      	movs	r0, r4
10001a52:	f7ff ffd7 	bl	10001a04 <irq_get_vtable_handler>
10001a56:	4b09      	ldr	r3, [pc, #36]	; (10001a7c <irq_set_exclusive_handler+0x44>)
10001a58:	4298      	cmp	r0, r3
10001a5a:	d001      	beq.n	10001a60 <irq_set_exclusive_handler+0x28>
10001a5c:	42a8      	cmp	r0, r5
10001a5e:	d105      	bne.n	10001a6c <irq_set_exclusive_handler+0x34>
10001a60:	0032      	movs	r2, r6
10001a62:	0029      	movs	r1, r5
10001a64:	0020      	movs	r0, r4
10001a66:	f7ff ff49 	bl	100018fc <set_raw_irq_handler_and_unlock>
10001a6a:	bd70      	pop	{r4, r5, r6, pc}
10001a6c:	4b04      	ldr	r3, [pc, #16]	; (10001a80 <irq_set_exclusive_handler+0x48>)
10001a6e:	4a05      	ldr	r2, [pc, #20]	; (10001a84 <irq_set_exclusive_handler+0x4c>)
10001a70:	2186      	movs	r1, #134	; 0x86
10001a72:	4805      	ldr	r0, [pc, #20]	; (10001a88 <irq_set_exclusive_handler+0x50>)
10001a74:	f001 ff3a 	bl	100038ec <__assert_func>
10001a78:	d0000124 	.word	0xd0000124
10001a7c:	100001cd 	.word	0x100001cd
10001a80:	10009980 	.word	0x10009980
10001a84:	10009ba4 	.word	0x10009ba4
10001a88:	10009914 	.word	0x10009914

10001a8c <irq_add_shared_handler>:
10001a8c:	b5f0      	push	{r4, r5, r6, r7, lr}
10001a8e:	46de      	mov	lr, fp
10001a90:	4657      	mov	r7, sl
10001a92:	464e      	mov	r6, r9
10001a94:	4645      	mov	r5, r8
10001a96:	b5e0      	push	{r5, r6, r7, lr}
10001a98:	b089      	sub	sp, #36	; 0x24
10001a9a:	4681      	mov	r9, r0
10001a9c:	9101      	str	r1, [sp, #4]
10001a9e:	0015      	movs	r5, r2
10001aa0:	f3ef 8a10 	mrs	sl, PRIMASK
10001aa4:	b672      	cpsid	i
10001aa6:	4b74      	ldr	r3, [pc, #464]	; (10001c78 <irq_add_shared_handler+0x1ec>)
10001aa8:	681b      	ldr	r3, [r3, #0]
10001aaa:	2b00      	cmp	r3, #0
10001aac:	d0fb      	beq.n	10001aa6 <irq_add_shared_handler+0x1a>
10001aae:	f3bf 8f5f 	dmb	sy
10001ab2:	4b72      	ldr	r3, [pc, #456]	; (10001c7c <irq_add_shared_handler+0x1f0>)
10001ab4:	2700      	movs	r7, #0
10001ab6:	57df      	ldrsb	r7, [r3, r7]
10001ab8:	2f00      	cmp	r7, #0
10001aba:	db40      	blt.n	10001b3e <irq_add_shared_handler+0xb2>
10001abc:	007c      	lsls	r4, r7, #1
10001abe:	19e4      	adds	r4, r4, r7
10001ac0:	00a4      	lsls	r4, r4, #2
10001ac2:	486f      	ldr	r0, [pc, #444]	; (10001c80 <irq_add_shared_handler+0x1f4>)
10001ac4:	1824      	adds	r4, r4, r0
10001ac6:	2206      	movs	r2, #6
10001ac8:	56a2      	ldrsb	r2, [r4, r2]
10001aca:	4b6c      	ldr	r3, [pc, #432]	; (10001c7c <irq_add_shared_handler+0x1f0>)
10001acc:	701a      	strb	r2, [r3, #0]
10001ace:	4b6d      	ldr	r3, [pc, #436]	; (10001c84 <irq_add_shared_handler+0x1f8>)
10001ad0:	689a      	ldr	r2, [r3, #8]
10001ad2:	464b      	mov	r3, r9
10001ad4:	3310      	adds	r3, #16
10001ad6:	009b      	lsls	r3, r3, #2
10001ad8:	58d3      	ldr	r3, [r2, r3]
10001ada:	4698      	mov	r8, r3
10001adc:	001e      	movs	r6, r3
10001ade:	1a1b      	subs	r3, r3, r0
10001ae0:	2b2f      	cmp	r3, #47	; 0x2f
10001ae2:	d938      	bls.n	10001b56 <irq_add_shared_handler+0xca>
10001ae4:	4b68      	ldr	r3, [pc, #416]	; (10001c88 <irq_add_shared_handler+0x1fc>)
10001ae6:	4598      	cmp	r8, r3
10001ae8:	d12f      	bne.n	10001b4a <irq_add_shared_handler+0xbe>
10001aea:	ae05      	add	r6, sp, #20
10001aec:	4b67      	ldr	r3, [pc, #412]	; (10001c8c <irq_add_shared_handler+0x200>)
10001aee:	8033      	strh	r3, [r6, #0]
10001af0:	007b      	lsls	r3, r7, #1
10001af2:	469b      	mov	fp, r3
10001af4:	19d8      	adds	r0, r3, r7
10001af6:	0080      	lsls	r0, r0, #2
10001af8:	4b61      	ldr	r3, [pc, #388]	; (10001c80 <irq_add_shared_handler+0x1f4>)
10001afa:	4698      	mov	r8, r3
10001afc:	4440      	add	r0, r8
10001afe:	3002      	adds	r0, #2
10001b00:	4963      	ldr	r1, [pc, #396]	; (10001c90 <irq_add_shared_handler+0x204>)
10001b02:	f7ff ff0f 	bl	10001924 <make_branch>
10001b06:	8070      	strh	r0, [r6, #2]
10001b08:	4b62      	ldr	r3, [pc, #392]	; (10001c94 <irq_add_shared_handler+0x208>)
10001b0a:	80b3      	strh	r3, [r6, #4]
10001b0c:	23ff      	movs	r3, #255	; 0xff
10001b0e:	71b3      	strb	r3, [r6, #6]
10001b10:	71f5      	strb	r5, [r6, #7]
10001b12:	9b01      	ldr	r3, [sp, #4]
10001b14:	9307      	str	r3, [sp, #28]
10001b16:	445f      	add	r7, fp
10001b18:	00bf      	lsls	r7, r7, #2
10001b1a:	4447      	add	r7, r8
10001b1c:	ce0e      	ldmia	r6!, {r1, r2, r3}
10001b1e:	c70e      	stmia	r7!, {r1, r2, r3}
10001b20:	2301      	movs	r3, #1
10001b22:	431c      	orrs	r4, r3
10001b24:	46a0      	mov	r8, r4
10001b26:	4652      	mov	r2, sl
10001b28:	4641      	mov	r1, r8
10001b2a:	4648      	mov	r0, r9
10001b2c:	f7ff fee6 	bl	100018fc <set_raw_irq_handler_and_unlock>
10001b30:	b009      	add	sp, #36	; 0x24
10001b32:	bcf0      	pop	{r4, r5, r6, r7}
10001b34:	46bb      	mov	fp, r7
10001b36:	46b2      	mov	sl, r6
10001b38:	46a9      	mov	r9, r5
10001b3a:	46a0      	mov	r8, r4
10001b3c:	bdf0      	pop	{r4, r5, r6, r7, pc}
10001b3e:	4b56      	ldr	r3, [pc, #344]	; (10001c98 <irq_add_shared_handler+0x20c>)
10001b40:	4a56      	ldr	r2, [pc, #344]	; (10001c9c <irq_add_shared_handler+0x210>)
10001b42:	21d7      	movs	r1, #215	; 0xd7
10001b44:	4856      	ldr	r0, [pc, #344]	; (10001ca0 <irq_add_shared_handler+0x214>)
10001b46:	f001 fed1 	bl	100038ec <__assert_func>
10001b4a:	4b56      	ldr	r3, [pc, #344]	; (10001ca4 <irq_add_shared_handler+0x218>)
10001b4c:	4a53      	ldr	r2, [pc, #332]	; (10001c9c <irq_add_shared_handler+0x210>)
10001b4e:	21de      	movs	r1, #222	; 0xde
10001b50:	4853      	ldr	r0, [pc, #332]	; (10001ca0 <irq_add_shared_handler+0x214>)
10001b52:	f001 fecb 	bl	100038ec <__assert_func>
10001b56:	43c0      	mvns	r0, r0
10001b58:	4440      	add	r0, r8
10001b5a:	210c      	movs	r1, #12
10001b5c:	f003 f874 	bl	10004c48 <__wrap___aeabi_uidiv>
10001b60:	2900      	cmp	r1, #0
10001b62:	d112      	bne.n	10001b8a <irq_add_shared_handler+0xfe>
10001b64:	2301      	movs	r3, #1
10001b66:	439e      	bics	r6, r3
10001b68:	46b3      	mov	fp, r6
10001b6a:	0033      	movs	r3, r6
10001b6c:	2600      	movs	r6, #0
10001b6e:	79da      	ldrb	r2, [r3, #7]
10001b70:	42aa      	cmp	r2, r5
10001b72:	d911      	bls.n	10001b98 <irq_add_shared_handler+0x10c>
10001b74:	2106      	movs	r1, #6
10001b76:	5659      	ldrsb	r1, [r3, r1]
10001b78:	2900      	cmp	r1, #0
10001b7a:	db0c      	blt.n	10001b96 <irq_add_shared_handler+0x10a>
10001b7c:	004a      	lsls	r2, r1, #1
10001b7e:	1852      	adds	r2, r2, r1
10001b80:	0092      	lsls	r2, r2, #2
10001b82:	001e      	movs	r6, r3
10001b84:	4b3e      	ldr	r3, [pc, #248]	; (10001c80 <irq_add_shared_handler+0x1f4>)
10001b86:	189b      	adds	r3, r3, r2
10001b88:	e7f1      	b.n	10001b6e <irq_add_shared_handler+0xe2>
10001b8a:	4b47      	ldr	r3, [pc, #284]	; (10001ca8 <irq_add_shared_handler+0x21c>)
10001b8c:	4a43      	ldr	r2, [pc, #268]	; (10001c9c <irq_add_shared_handler+0x210>)
10001b8e:	21ea      	movs	r1, #234	; 0xea
10001b90:	4843      	ldr	r0, [pc, #268]	; (10001ca0 <irq_add_shared_handler+0x214>)
10001b92:	f001 feab 	bl	100038ec <__assert_func>
10001b96:	001e      	movs	r6, r3
10001b98:	2e00      	cmp	r6, #0
10001b9a:	d03a      	beq.n	10001c12 <irq_add_shared_handler+0x186>
10001b9c:	ab05      	add	r3, sp, #20
10001b9e:	4a43      	ldr	r2, [pc, #268]	; (10001cac <irq_add_shared_handler+0x220>)
10001ba0:	801a      	strh	r2, [r3, #0]
10001ba2:	3a81      	subs	r2, #129	; 0x81
10001ba4:	805a      	strh	r2, [r3, #2]
10001ba6:	2306      	movs	r3, #6
10001ba8:	56f3      	ldrsb	r3, [r6, r3]
10001baa:	9302      	str	r3, [sp, #8]
10001bac:	2b00      	cmp	r3, #0
10001bae:	da17      	bge.n	10001be0 <irq_add_shared_handler+0x154>
10001bb0:	483f      	ldr	r0, [pc, #252]	; (10001cb0 <irq_add_shared_handler+0x224>)
10001bb2:	ab05      	add	r3, sp, #20
10001bb4:	469b      	mov	fp, r3
10001bb6:	8098      	strh	r0, [r3, #4]
10001bb8:	9a02      	ldr	r2, [sp, #8]
10001bba:	719a      	strb	r2, [r3, #6]
10001bbc:	71dd      	strb	r5, [r3, #7]
10001bbe:	9a01      	ldr	r2, [sp, #4]
10001bc0:	9207      	str	r2, [sp, #28]
10001bc2:	1d30      	adds	r0, r6, #4
10001bc4:	0021      	movs	r1, r4
10001bc6:	f7ff fead 	bl	10001924 <make_branch>
10001bca:	80b0      	strh	r0, [r6, #4]
10001bcc:	71b7      	strb	r7, [r6, #6]
10001bce:	007b      	lsls	r3, r7, #1
10001bd0:	19db      	adds	r3, r3, r7
10001bd2:	009b      	lsls	r3, r3, #2
10001bd4:	4f2a      	ldr	r7, [pc, #168]	; (10001c80 <irq_add_shared_handler+0x1f4>)
10001bd6:	18ff      	adds	r7, r7, r3
10001bd8:	465b      	mov	r3, fp
10001bda:	cb07      	ldmia	r3!, {r0, r1, r2}
10001bdc:	c707      	stmia	r7!, {r0, r1, r2}
10001bde:	e7a2      	b.n	10001b26 <irq_add_shared_handler+0x9a>
10001be0:	0078      	lsls	r0, r7, #1
10001be2:	19c0      	adds	r0, r0, r7
10001be4:	0080      	lsls	r0, r0, #2
10001be6:	4b26      	ldr	r3, [pc, #152]	; (10001c80 <irq_add_shared_handler+0x1f4>)
10001be8:	18c0      	adds	r0, r0, r3
10001bea:	3004      	adds	r0, #4
10001bec:	1d32      	adds	r2, r6, #4
10001bee:	88b3      	ldrh	r3, [r6, #4]
10001bf0:	0ad9      	lsrs	r1, r3, #11
10001bf2:	291c      	cmp	r1, #28
10001bf4:	d107      	bne.n	10001c06 <irq_add_shared_handler+0x17a>
10001bf6:	055b      	lsls	r3, r3, #21
10001bf8:	1559      	asrs	r1, r3, #21
10001bfa:	3102      	adds	r1, #2
10001bfc:	0049      	lsls	r1, r1, #1
10001bfe:	1851      	adds	r1, r2, r1
10001c00:	f7ff fe90 	bl	10001924 <make_branch>
10001c04:	e7d5      	b.n	10001bb2 <irq_add_shared_handler+0x126>
10001c06:	4b2b      	ldr	r3, [pc, #172]	; (10001cb4 <irq_add_shared_handler+0x228>)
10001c08:	4a2b      	ldr	r2, [pc, #172]	; (10001cb8 <irq_add_shared_handler+0x22c>)
10001c0a:	21b1      	movs	r1, #177	; 0xb1
10001c0c:	4824      	ldr	r0, [pc, #144]	; (10001ca0 <irq_add_shared_handler+0x214>)
10001c0e:	f001 fe6d 	bl	100038ec <__assert_func>
10001c12:	ae05      	add	r6, sp, #20
10001c14:	4b1d      	ldr	r3, [pc, #116]	; (10001c8c <irq_add_shared_handler+0x200>)
10001c16:	8033      	strh	r3, [r6, #0]
10001c18:	007b      	lsls	r3, r7, #1
10001c1a:	9302      	str	r3, [sp, #8]
10001c1c:	19d8      	adds	r0, r3, r7
10001c1e:	0080      	lsls	r0, r0, #2
10001c20:	4a17      	ldr	r2, [pc, #92]	; (10001c80 <irq_add_shared_handler+0x1f4>)
10001c22:	4690      	mov	r8, r2
10001c24:	0002      	movs	r2, r0
10001c26:	4442      	add	r2, r8
10001c28:	9203      	str	r2, [sp, #12]
10001c2a:	1c90      	adds	r0, r2, #2
10001c2c:	4918      	ldr	r1, [pc, #96]	; (10001c90 <irq_add_shared_handler+0x204>)
10001c2e:	f7ff fe79 	bl	10001924 <make_branch>
10001c32:	8070      	strh	r0, [r6, #2]
10001c34:	9a03      	ldr	r2, [sp, #12]
10001c36:	1d10      	adds	r0, r2, #4
10001c38:	4659      	mov	r1, fp
10001c3a:	f7ff fe73 	bl	10001924 <make_branch>
10001c3e:	80b0      	strh	r0, [r6, #4]
10001c40:	4b1e      	ldr	r3, [pc, #120]	; (10001cbc <irq_add_shared_handler+0x230>)
10001c42:	465a      	mov	r2, fp
10001c44:	4641      	mov	r1, r8
10001c46:	1a52      	subs	r2, r2, r1
10001c48:	4152      	adcs	r2, r2
10001c4a:	4353      	muls	r3, r2
10001c4c:	0d1b      	lsrs	r3, r3, #20
10001c4e:	71b3      	strb	r3, [r6, #6]
10001c50:	71f5      	strb	r5, [r6, #7]
10001c52:	9a01      	ldr	r2, [sp, #4]
10001c54:	9207      	str	r2, [sp, #28]
10001c56:	9b02      	ldr	r3, [sp, #8]
10001c58:	469c      	mov	ip, r3
10001c5a:	4467      	add	r7, ip
10001c5c:	00bf      	lsls	r7, r7, #2
10001c5e:	4447      	add	r7, r8
10001c60:	ce0e      	ldmia	r6!, {r1, r2, r3}
10001c62:	c70e      	stmia	r7!, {r1, r2, r3}
10001c64:	4b11      	ldr	r3, [pc, #68]	; (10001cac <irq_add_shared_handler+0x220>)
10001c66:	465a      	mov	r2, fp
10001c68:	8013      	strh	r3, [r2, #0]
10001c6a:	3b81      	subs	r3, #129	; 0x81
10001c6c:	8053      	strh	r3, [r2, #2]
10001c6e:	2301      	movs	r3, #1
10001c70:	431c      	orrs	r4, r3
10001c72:	46a0      	mov	r8, r4
10001c74:	e757      	b.n	10001b26 <irq_add_shared_handler+0x9a>
10001c76:	46c0      	nop			; (mov r8, r8)
10001c78:	d0000124 	.word	0xd0000124
10001c7c:	2000258e 	.word	0x2000258e
10001c80:	20000cf4 	.word	0x20000cf4
10001c84:	e000ed00 	.word	0xe000ed00
10001c88:	100001cd 	.word	0x100001cd
10001c8c:	ffffa100 	.word	0xffffa100
10001c90:	20000d24 	.word	0x20000d24
10001c94:	ffffbd01 	.word	0xffffbd01
10001c98:	100099b8 	.word	0x100099b8
10001c9c:	10009b8c 	.word	0x10009b8c
10001ca0:	10009914 	.word	0x10009914
10001ca4:	100099e0 	.word	0x100099e0
10001ca8:	10009a08 	.word	0x10009a08
10001cac:	00004801 	.word	0x00004801
10001cb0:	0000bd01 	.word	0x0000bd01
10001cb4:	10009a7c 	.word	0x10009a7c
10001cb8:	10009b7c 	.word	0x10009b7c
10001cbc:	0000aaaa 	.word	0x0000aaaa

10001cc0 <irq_remove_handler>:
10001cc0:	b5f0      	push	{r4, r5, r6, r7, lr}
10001cc2:	46ce      	mov	lr, r9
10001cc4:	4647      	mov	r7, r8
10001cc6:	b580      	push	{r7, lr}
10001cc8:	b083      	sub	sp, #12
10001cca:	0006      	movs	r6, r0
10001ccc:	000d      	movs	r5, r1
10001cce:	f3ef 8810 	mrs	r8, PRIMASK
10001cd2:	b672      	cpsid	i
10001cd4:	4b56      	ldr	r3, [pc, #344]	; (10001e30 <irq_remove_handler+0x170>)
10001cd6:	681b      	ldr	r3, [r3, #0]
10001cd8:	2b00      	cmp	r3, #0
10001cda:	d0fb      	beq.n	10001cd4 <irq_remove_handler+0x14>
10001cdc:	f3bf 8f5f 	dmb	sy
10001ce0:	4b54      	ldr	r3, [pc, #336]	; (10001e34 <irq_remove_handler+0x174>)
10001ce2:	689a      	ldr	r2, [r3, #8]
10001ce4:	0034      	movs	r4, r6
10001ce6:	3410      	adds	r4, #16
10001ce8:	00a3      	lsls	r3, r4, #2
10001cea:	58d7      	ldr	r7, [r2, r3]
10001cec:	4b52      	ldr	r3, [pc, #328]	; (10001e38 <irq_remove_handler+0x178>)
10001cee:	429f      	cmp	r7, r3
10001cf0:	d007      	beq.n	10001d02 <irq_remove_handler+0x42>
10001cf2:	42af      	cmp	r7, r5
10001cf4:	d100      	bne.n	10001cf8 <irq_remove_handler+0x38>
10001cf6:	e098      	b.n	10001e2a <irq_remove_handler+0x16a>
10001cf8:	9701      	str	r7, [sp, #4]
10001cfa:	4b50      	ldr	r3, [pc, #320]	; (10001e3c <irq_remove_handler+0x17c>)
10001cfc:	1afb      	subs	r3, r7, r3
10001cfe:	2b2f      	cmp	r3, #47	; 0x2f
10001d00:	d909      	bls.n	10001d16 <irq_remove_handler+0x56>
10001d02:	4642      	mov	r2, r8
10001d04:	0039      	movs	r1, r7
10001d06:	0030      	movs	r0, r6
10001d08:	f7ff fdf8 	bl	100018fc <set_raw_irq_handler_and_unlock>
10001d0c:	b003      	add	sp, #12
10001d0e:	bcc0      	pop	{r6, r7}
10001d10:	46b9      	mov	r9, r7
10001d12:	46b0      	mov	r8, r6
10001d14:	bdf0      	pop	{r4, r5, r6, r7, pc}
10001d16:	0030      	movs	r0, r6
10001d18:	f7ff fe48 	bl	100019ac <irq_is_enabled>
10001d1c:	4681      	mov	r9, r0
10001d1e:	2100      	movs	r1, #0
10001d20:	0030      	movs	r0, r6
10001d22:	f7ff fe5f 	bl	100019e4 <irq_set_enabled>
10001d26:	f3bf 8f5f 	dmb	sy
10001d2a:	f3ef 8105 	mrs	r1, IPSR
10001d2e:	2900      	cmp	r1, #0
10001d30:	d001      	beq.n	10001d36 <irq_remove_handler+0x76>
10001d32:	428c      	cmp	r4, r1
10001d34:	d111      	bne.n	10001d5a <irq_remove_handler+0x9a>
10001d36:	2301      	movs	r3, #1
10001d38:	9c01      	ldr	r4, [sp, #4]
10001d3a:	439c      	bics	r4, r3
10001d3c:	2200      	movs	r2, #0
10001d3e:	68a3      	ldr	r3, [r4, #8]
10001d40:	42ab      	cmp	r3, r5
10001d42:	d012      	beq.n	10001d6a <irq_remove_handler+0xaa>
10001d44:	2206      	movs	r2, #6
10001d46:	56a2      	ldrsb	r2, [r4, r2]
10001d48:	2a00      	cmp	r2, #0
10001d4a:	db0d      	blt.n	10001d68 <irq_remove_handler+0xa8>
10001d4c:	0053      	lsls	r3, r2, #1
10001d4e:	189b      	adds	r3, r3, r2
10001d50:	009b      	lsls	r3, r3, #2
10001d52:	0022      	movs	r2, r4
10001d54:	4c39      	ldr	r4, [pc, #228]	; (10001e3c <irq_remove_handler+0x17c>)
10001d56:	18e4      	adds	r4, r4, r3
10001d58:	e7f1      	b.n	10001d3e <irq_remove_handler+0x7e>
10001d5a:	2136      	movs	r1, #54	; 0x36
10001d5c:	4b38      	ldr	r3, [pc, #224]	; (10001e40 <irq_remove_handler+0x180>)
10001d5e:	4a39      	ldr	r2, [pc, #228]	; (10001e44 <irq_remove_handler+0x184>)
10001d60:	31ff      	adds	r1, #255	; 0xff
10001d62:	4839      	ldr	r0, [pc, #228]	; (10001e48 <irq_remove_handler+0x188>)
10001d64:	f001 fdc2 	bl	100038ec <__assert_func>
10001d68:	0022      	movs	r2, r4
10001d6a:	42ab      	cmp	r3, r5
10001d6c:	d156      	bne.n	10001e1c <irq_remove_handler+0x15c>
10001d6e:	2506      	movs	r5, #6
10001d70:	5765      	ldrsb	r5, [r4, r5]
10001d72:	2d00      	cmp	r5, #0
10001d74:	db38      	blt.n	10001de8 <irq_remove_handler+0x128>
10001d76:	006b      	lsls	r3, r5, #1
10001d78:	195b      	adds	r3, r3, r5
10001d7a:	009a      	lsls	r2, r3, #2
10001d7c:	4b2f      	ldr	r3, [pc, #188]	; (10001e3c <irq_remove_handler+0x17c>)
10001d7e:	189b      	adds	r3, r3, r2
10001d80:	689a      	ldr	r2, [r3, #8]
10001d82:	60a2      	str	r2, [r4, #8]
10001d84:	79da      	ldrb	r2, [r3, #7]
10001d86:	71e2      	strb	r2, [r4, #7]
10001d88:	2206      	movs	r2, #6
10001d8a:	569a      	ldrsb	r2, [r3, r2]
10001d8c:	71a2      	strb	r2, [r4, #6]
10001d8e:	799b      	ldrb	r3, [r3, #6]
10001d90:	b25b      	sxtb	r3, r3
10001d92:	2b00      	cmp	r3, #0
10001d94:	da0f      	bge.n	10001db6 <irq_remove_handler+0xf6>
10001d96:	482d      	ldr	r0, [pc, #180]	; (10001e4c <irq_remove_handler+0x18c>)
10001d98:	80a0      	strh	r0, [r4, #4]
10001d9a:	006b      	lsls	r3, r5, #1
10001d9c:	195b      	adds	r3, r3, r5
10001d9e:	009b      	lsls	r3, r3, #2
10001da0:	4a26      	ldr	r2, [pc, #152]	; (10001e3c <irq_remove_handler+0x17c>)
10001da2:	18d3      	adds	r3, r2, r3
10001da4:	4a2a      	ldr	r2, [pc, #168]	; (10001e50 <irq_remove_handler+0x190>)
10001da6:	7811      	ldrb	r1, [r2, #0]
10001da8:	7199      	strb	r1, [r3, #6]
10001daa:	7015      	strb	r5, [r2, #0]
10001dac:	4649      	mov	r1, r9
10001dae:	0030      	movs	r0, r6
10001db0:	f7ff fe18 	bl	100019e4 <irq_set_enabled>
10001db4:	e7a5      	b.n	10001d02 <irq_remove_handler+0x42>
10001db6:	1d20      	adds	r0, r4, #4
10001db8:	006b      	lsls	r3, r5, #1
10001dba:	195b      	adds	r3, r3, r5
10001dbc:	009b      	lsls	r3, r3, #2
10001dbe:	4a1f      	ldr	r2, [pc, #124]	; (10001e3c <irq_remove_handler+0x17c>)
10001dc0:	189b      	adds	r3, r3, r2
10001dc2:	1d1a      	adds	r2, r3, #4
10001dc4:	889b      	ldrh	r3, [r3, #4]
10001dc6:	0ad9      	lsrs	r1, r3, #11
10001dc8:	291c      	cmp	r1, #28
10001dca:	d107      	bne.n	10001ddc <irq_remove_handler+0x11c>
10001dcc:	055b      	lsls	r3, r3, #21
10001dce:	155b      	asrs	r3, r3, #21
10001dd0:	3302      	adds	r3, #2
10001dd2:	0059      	lsls	r1, r3, #1
10001dd4:	1851      	adds	r1, r2, r1
10001dd6:	f7ff fda5 	bl	10001924 <make_branch>
10001dda:	e7dd      	b.n	10001d98 <irq_remove_handler+0xd8>
10001ddc:	4b1d      	ldr	r3, [pc, #116]	; (10001e54 <irq_remove_handler+0x194>)
10001dde:	4a1e      	ldr	r2, [pc, #120]	; (10001e58 <irq_remove_handler+0x198>)
10001de0:	21b1      	movs	r1, #177	; 0xb1
10001de2:	4819      	ldr	r0, [pc, #100]	; (10001e48 <irq_remove_handler+0x188>)
10001de4:	f001 fd82 	bl	100038ec <__assert_func>
10001de8:	2900      	cmp	r1, #0
10001dea:	d112      	bne.n	10001e12 <irq_remove_handler+0x152>
10001dec:	2a00      	cmp	r2, #0
10001dee:	d00e      	beq.n	10001e0e <irq_remove_handler+0x14e>
10001df0:	23ff      	movs	r3, #255	; 0xff
10001df2:	7193      	strb	r3, [r2, #6]
10001df4:	4b19      	ldr	r3, [pc, #100]	; (10001e5c <irq_remove_handler+0x19c>)
10001df6:	8093      	strh	r3, [r2, #4]
10001df8:	4a15      	ldr	r2, [pc, #84]	; (10001e50 <irq_remove_handler+0x190>)
10001dfa:	7813      	ldrb	r3, [r2, #0]
10001dfc:	71a3      	strb	r3, [r4, #6]
10001dfe:	4b18      	ldr	r3, [pc, #96]	; (10001e60 <irq_remove_handler+0x1a0>)
10001e00:	490e      	ldr	r1, [pc, #56]	; (10001e3c <irq_remove_handler+0x17c>)
10001e02:	1a64      	subs	r4, r4, r1
10001e04:	4164      	adcs	r4, r4
10001e06:	4363      	muls	r3, r4
10001e08:	0d1b      	lsrs	r3, r3, #20
10001e0a:	7013      	strb	r3, [r2, #0]
10001e0c:	e7ce      	b.n	10001dac <irq_remove_handler+0xec>
10001e0e:	4f0a      	ldr	r7, [pc, #40]	; (10001e38 <irq_remove_handler+0x178>)
10001e10:	e7f2      	b.n	10001df8 <irq_remove_handler+0x138>
10001e12:	1d20      	adds	r0, r4, #4
10001e14:	4913      	ldr	r1, [pc, #76]	; (10001e64 <irq_remove_handler+0x1a4>)
10001e16:	f7ff fda9 	bl	1000196c <insert_branch_and_link>
10001e1a:	e7c7      	b.n	10001dac <irq_remove_handler+0xec>
10001e1c:	216a      	movs	r1, #106	; 0x6a
10001e1e:	4b12      	ldr	r3, [pc, #72]	; (10001e68 <irq_remove_handler+0x1a8>)
10001e20:	4a08      	ldr	r2, [pc, #32]	; (10001e44 <irq_remove_handler+0x184>)
10001e22:	31ff      	adds	r1, #255	; 0xff
10001e24:	4808      	ldr	r0, [pc, #32]	; (10001e48 <irq_remove_handler+0x188>)
10001e26:	f001 fd61 	bl	100038ec <__assert_func>
10001e2a:	4f03      	ldr	r7, [pc, #12]	; (10001e38 <irq_remove_handler+0x178>)
10001e2c:	e769      	b.n	10001d02 <irq_remove_handler+0x42>
10001e2e:	46c0      	nop			; (mov r8, r8)
10001e30:	d0000124 	.word	0xd0000124
10001e34:	e000ed00 	.word	0xe000ed00
10001e38:	100001cd 	.word	0x100001cd
10001e3c:	20000cf4 	.word	0x20000cf4
10001e40:	10009a94 	.word	0x10009a94
10001e44:	10009b5c 	.word	0x10009b5c
10001e48:	10009914 	.word	0x10009914
10001e4c:	0000bd01 	.word	0x0000bd01
10001e50:	2000258e 	.word	0x2000258e
10001e54:	10009a7c 	.word	0x10009a7c
10001e58:	10009b7c 	.word	0x10009b7c
10001e5c:	ffffbd01 	.word	0xffffbd01
10001e60:	0000aaaa 	.word	0x0000aaaa
10001e64:	20000d2e 	.word	0x20000d2e
10001e68:	10009ac8 	.word	0x10009ac8

10001e6c <irq_add_tail_to_free_list>:
10001e6c:	b570      	push	{r4, r5, r6, lr}
10001e6e:	2101      	movs	r1, #1
10001e70:	4301      	orrs	r1, r0
10001e72:	4b2e      	ldr	r3, [pc, #184]	; (10001f2c <irq_add_tail_to_free_list+0xc0>)
10001e74:	1acb      	subs	r3, r1, r3
10001e76:	2b2f      	cmp	r3, #47	; 0x2f
10001e78:	d828      	bhi.n	10001ecc <irq_add_tail_to_free_list+0x60>
10001e7a:	f3ef 8305 	mrs	r3, IPSR
10001e7e:	2b00      	cmp	r3, #0
10001e80:	d02b      	beq.n	10001eda <irq_add_tail_to_free_list+0x6e>
10001e82:	f3ef 8c10 	mrs	ip, PRIMASK
10001e86:	b672      	cpsid	i
10001e88:	4a29      	ldr	r2, [pc, #164]	; (10001f30 <irq_add_tail_to_free_list+0xc4>)
10001e8a:	6812      	ldr	r2, [r2, #0]
10001e8c:	2a00      	cmp	r2, #0
10001e8e:	d0fb      	beq.n	10001e88 <irq_add_tail_to_free_list+0x1c>
10001e90:	f3bf 8f5f 	dmb	sy
10001e94:	4a27      	ldr	r2, [pc, #156]	; (10001f34 <irq_add_tail_to_free_list+0xc8>)
10001e96:	0004      	movs	r4, r0
10001e98:	4d24      	ldr	r5, [pc, #144]	; (10001f2c <irq_add_tail_to_free_list+0xc0>)
10001e9a:	1b64      	subs	r4, r4, r5
10001e9c:	4164      	adcs	r4, r4
10001e9e:	4362      	muls	r2, r4
10001ea0:	0d12      	lsrs	r2, r2, #20
10001ea2:	b254      	sxtb	r4, r2
10001ea4:	4a24      	ldr	r2, [pc, #144]	; (10001f38 <irq_add_tail_to_free_list+0xcc>)
10001ea6:	6892      	ldr	r2, [r2, #8]
10001ea8:	009b      	lsls	r3, r3, #2
10001eaa:	58d2      	ldr	r2, [r2, r3]
10001eac:	428a      	cmp	r2, r1
10001eae:	d01b      	beq.n	10001ee8 <irq_add_tail_to_free_list+0x7c>
10001eb0:	2200      	movs	r2, #0
10001eb2:	2a03      	cmp	r2, #3
10001eb4:	d832      	bhi.n	10001f1c <irq_add_tail_to_free_list+0xb0>
10001eb6:	0053      	lsls	r3, r2, #1
10001eb8:	189b      	adds	r3, r3, r2
10001eba:	009b      	lsls	r3, r3, #2
10001ebc:	491b      	ldr	r1, [pc, #108]	; (10001f2c <irq_add_tail_to_free_list+0xc0>)
10001ebe:	18cb      	adds	r3, r1, r3
10001ec0:	799b      	ldrb	r3, [r3, #6]
10001ec2:	b25b      	sxtb	r3, r3
10001ec4:	42a3      	cmp	r3, r4
10001ec6:	d01f      	beq.n	10001f08 <irq_add_tail_to_free_list+0x9c>
10001ec8:	3201      	adds	r2, #1
10001eca:	e7f2      	b.n	10001eb2 <irq_add_tail_to_free_list+0x46>
10001ecc:	21c7      	movs	r1, #199	; 0xc7
10001ece:	4b1b      	ldr	r3, [pc, #108]	; (10001f3c <irq_add_tail_to_free_list+0xd0>)
10001ed0:	4a1b      	ldr	r2, [pc, #108]	; (10001f40 <irq_add_tail_to_free_list+0xd4>)
10001ed2:	0049      	lsls	r1, r1, #1
10001ed4:	481b      	ldr	r0, [pc, #108]	; (10001f44 <irq_add_tail_to_free_list+0xd8>)
10001ed6:	f001 fd09 	bl	100038ec <__assert_func>
10001eda:	2192      	movs	r1, #146	; 0x92
10001edc:	4b1a      	ldr	r3, [pc, #104]	; (10001f48 <irq_add_tail_to_free_list+0xdc>)
10001ede:	4a18      	ldr	r2, [pc, #96]	; (10001f40 <irq_add_tail_to_free_list+0xd4>)
10001ee0:	31ff      	adds	r1, #255	; 0xff
10001ee2:	4818      	ldr	r0, [pc, #96]	; (10001f44 <irq_add_tail_to_free_list+0xd8>)
10001ee4:	f001 fd02 	bl	100038ec <__assert_func>
10001ee8:	4a13      	ldr	r2, [pc, #76]	; (10001f38 <irq_add_tail_to_free_list+0xcc>)
10001eea:	6892      	ldr	r2, [r2, #8]
10001eec:	4917      	ldr	r1, [pc, #92]	; (10001f4c <irq_add_tail_to_free_list+0xe0>)
10001eee:	50d1      	str	r1, [r2, r3]
10001ef0:	4b17      	ldr	r3, [pc, #92]	; (10001f50 <irq_add_tail_to_free_list+0xe4>)
10001ef2:	781a      	ldrb	r2, [r3, #0]
10001ef4:	7182      	strb	r2, [r0, #6]
10001ef6:	701c      	strb	r4, [r3, #0]
10001ef8:	f3bf 8f5f 	dmb	sy
10001efc:	4b0c      	ldr	r3, [pc, #48]	; (10001f30 <irq_add_tail_to_free_list+0xc4>)
10001efe:	2200      	movs	r2, #0
10001f00:	601a      	str	r2, [r3, #0]
10001f02:	f38c 8810 	msr	PRIMASK, ip
10001f06:	bd70      	pop	{r4, r5, r6, pc}
10001f08:	000d      	movs	r5, r1
10001f0a:	0053      	lsls	r3, r2, #1
10001f0c:	1899      	adds	r1, r3, r2
10001f0e:	0089      	lsls	r1, r1, #2
10001f10:	1869      	adds	r1, r5, r1
10001f12:	26ff      	movs	r6, #255	; 0xff
10001f14:	718e      	strb	r6, [r1, #6]
10001f16:	4a0f      	ldr	r2, [pc, #60]	; (10001f54 <irq_add_tail_to_free_list+0xe8>)
10001f18:	808a      	strh	r2, [r1, #4]
10001f1a:	e7e9      	b.n	10001ef0 <irq_add_tail_to_free_list+0x84>
10001f1c:	21d1      	movs	r1, #209	; 0xd1
10001f1e:	4b0e      	ldr	r3, [pc, #56]	; (10001f58 <irq_add_tail_to_free_list+0xec>)
10001f20:	4a07      	ldr	r2, [pc, #28]	; (10001f40 <irq_add_tail_to_free_list+0xd4>)
10001f22:	0049      	lsls	r1, r1, #1
10001f24:	4807      	ldr	r0, [pc, #28]	; (10001f44 <irq_add_tail_to_free_list+0xd8>)
10001f26:	f001 fce1 	bl	100038ec <__assert_func>
10001f2a:	46c0      	nop			; (mov r8, r8)
10001f2c:	20000cf4 	.word	0x20000cf4
10001f30:	d0000124 	.word	0xd0000124
10001f34:	0000aaaa 	.word	0x0000aaaa
10001f38:	e000ed00 	.word	0xe000ed00
10001f3c:	10009ad0 	.word	0x10009ad0
10001f40:	10009b28 	.word	0x10009b28
10001f44:	10009914 	.word	0x10009914
10001f48:	10009af8 	.word	0x10009af8
10001f4c:	100001cd 	.word	0x100001cd
10001f50:	2000258e 	.word	0x2000258e
10001f54:	ffffbd01 	.word	0xffffbd01
10001f58:	10009b04 	.word	0x10009b04

10001f5c <irq_init_priorities>:
10001f5c:	2200      	movs	r2, #0
10001f5e:	4b04      	ldr	r3, [pc, #16]	; (10001f70 <irq_init_priorities+0x14>)
10001f60:	e002      	b.n	10001f68 <irq_init_priorities+0xc>
10001f62:	4904      	ldr	r1, [pc, #16]	; (10001f74 <irq_init_priorities+0x18>)
10001f64:	c302      	stmia	r3!, {r1}
10001f66:	3201      	adds	r2, #1
10001f68:	2a07      	cmp	r2, #7
10001f6a:	d9fa      	bls.n	10001f62 <irq_init_priorities+0x6>
10001f6c:	4770      	bx	lr
10001f6e:	46c0      	nop			; (mov r8, r8)
10001f70:	e000e400 	.word	0xe000e400
10001f74:	80808080 	.word	0x80808080

10001f78 <user_irq_claim_unused>:
10001f78:	b500      	push	{lr}
10001f7a:	b083      	sub	sp, #12
10001f7c:	0001      	movs	r1, r0
10001f7e:	4b06      	ldr	r3, [pc, #24]	; (10001f98 <user_irq_claim_unused+0x20>)
10001f80:	9300      	str	r3, [sp, #0]
10001f82:	2305      	movs	r3, #5
10001f84:	2200      	movs	r2, #0
10001f86:	4805      	ldr	r0, [pc, #20]	; (10001f9c <user_irq_claim_unused+0x24>)
10001f88:	f7ff fc61 	bl	1000184e <hw_claim_unused_from_range>
10001f8c:	2800      	cmp	r0, #0
10001f8e:	db01      	blt.n	10001f94 <user_irq_claim_unused+0x1c>
10001f90:	231f      	movs	r3, #31
10001f92:	1a18      	subs	r0, r3, r0
10001f94:	b003      	add	sp, #12
10001f96:	bd00      	pop	{pc}
10001f98:	10009b0c 	.word	0x10009b0c
10001f9c:	20002594 	.word	0x20002594

10001fa0 <sem_init>:
10001fa0:	b570      	push	{r4, r5, r6, lr}
10001fa2:	0004      	movs	r4, r0
10001fa4:	000e      	movs	r6, r1
10001fa6:	0015      	movs	r5, r2
10001fa8:	f7ff fc8a 	bl	100018c0 <next_striped_spin_lock_num>
10001fac:	0001      	movs	r1, r0
10001fae:	0020      	movs	r0, r4
10001fb0:	f000 f806 	bl	10001fc0 <lock_init>
10001fb4:	80a6      	strh	r6, [r4, #4]
10001fb6:	80e5      	strh	r5, [r4, #6]
10001fb8:	f3bf 8f5f 	dmb	sy
10001fbc:	bd70      	pop	{r4, r5, r6, pc}
	...

10001fc0 <lock_init>:
10001fc0:	4b02      	ldr	r3, [pc, #8]	; (10001fcc <lock_init+0xc>)
10001fc2:	469c      	mov	ip, r3
10001fc4:	4461      	add	r1, ip
10001fc6:	0089      	lsls	r1, r1, #2
10001fc8:	6001      	str	r1, [r0, #0]
10001fca:	4770      	bx	lr
10001fcc:	34000040 	.word	0x34000040

10001fd0 <mutex_init>:
10001fd0:	b510      	push	{r4, lr}
10001fd2:	0004      	movs	r4, r0
10001fd4:	f7ff fc74 	bl	100018c0 <next_striped_spin_lock_num>
10001fd8:	0001      	movs	r1, r0
10001fda:	0020      	movs	r0, r4
10001fdc:	f7ff fff0 	bl	10001fc0 <lock_init>
10001fe0:	23ff      	movs	r3, #255	; 0xff
10001fe2:	7123      	strb	r3, [r4, #4]
10001fe4:	f3bf 8f5f 	dmb	sy
10001fe8:	bd10      	pop	{r4, pc}

10001fea <recursive_mutex_init>:
10001fea:	b510      	push	{r4, lr}
10001fec:	0004      	movs	r4, r0
10001fee:	f7ff fc67 	bl	100018c0 <next_striped_spin_lock_num>
10001ff2:	0001      	movs	r1, r0
10001ff4:	0020      	movs	r0, r4
10001ff6:	f7ff ffe3 	bl	10001fc0 <lock_init>
10001ffa:	23ff      	movs	r3, #255	; 0xff
10001ffc:	7123      	strb	r3, [r4, #4]
10001ffe:	2300      	movs	r3, #0
10002000:	7163      	strb	r3, [r4, #5]
10002002:	f3bf 8f5f 	dmb	sy
10002006:	bd10      	pop	{r4, pc}

10002008 <critical_section_init_with_lock_num>:
10002008:	4b03      	ldr	r3, [pc, #12]	; (10002018 <critical_section_init_with_lock_num+0x10>)
1000200a:	469c      	mov	ip, r3
1000200c:	4461      	add	r1, ip
1000200e:	0089      	lsls	r1, r1, #2
10002010:	6001      	str	r1, [r0, #0]
10002012:	f3bf 8f5f 	dmb	sy
10002016:	4770      	bx	lr
10002018:	34000040 	.word	0x34000040

1000201c <critical_section_init>:
1000201c:	b510      	push	{r4, lr}
1000201e:	0004      	movs	r4, r0
10002020:	2001      	movs	r0, #1
10002022:	f7ff fc5b 	bl	100018dc <spin_lock_claim_unused>
10002026:	0001      	movs	r1, r0
10002028:	0020      	movs	r0, r4
1000202a:	f7ff ffed 	bl	10002008 <critical_section_init_with_lock_num>
1000202e:	bd10      	pop	{r4, pc}

10002030 <alarm_pool_post_alloc_init>:
10002030:	b570      	push	{r4, r5, r6, lr}
10002032:	0005      	movs	r5, r0
10002034:	000c      	movs	r4, r1
10002036:	0008      	movs	r0, r1
10002038:	f000 ff00 	bl	10002e3c <hardware_alarm_cancel>
1000203c:	4909      	ldr	r1, [pc, #36]	; (10002064 <alarm_pool_post_alloc_init+0x34>)
1000203e:	0020      	movs	r0, r4
10002040:	f000 fe40 	bl	10002cc4 <hardware_alarm_set_callback>
10002044:	f7ff fc3c 	bl	100018c0 <next_striped_spin_lock_num>
10002048:	4b07      	ldr	r3, [pc, #28]	; (10002068 <alarm_pool_post_alloc_init+0x38>)
1000204a:	469c      	mov	ip, r3
1000204c:	4460      	add	r0, ip
1000204e:	0080      	lsls	r0, r0, #2
10002050:	6068      	str	r0, [r5, #4]
10002052:	752c      	strb	r4, [r5, #20]
10002054:	23d0      	movs	r3, #208	; 0xd0
10002056:	061b      	lsls	r3, r3, #24
10002058:	781b      	ldrb	r3, [r3, #0]
1000205a:	756b      	strb	r3, [r5, #21]
1000205c:	00a4      	lsls	r4, r4, #2
1000205e:	4b03      	ldr	r3, [pc, #12]	; (1000206c <alarm_pool_post_alloc_init+0x3c>)
10002060:	50e5      	str	r5, [r4, r3]
10002062:	bd70      	pop	{r4, r5, r6, pc}
10002064:	10002375 	.word	0x10002375
10002068:	34000040 	.word	0x34000040
1000206c:	20002328 	.word	0x20002328

10002070 <sleep_until_callback>:
10002070:	4b0a      	ldr	r3, [pc, #40]	; (1000209c <sleep_until_callback+0x2c>)
10002072:	681a      	ldr	r2, [r3, #0]
10002074:	f3ef 8110 	mrs	r1, PRIMASK
10002078:	b672      	cpsid	i
1000207a:	6813      	ldr	r3, [r2, #0]
1000207c:	2b00      	cmp	r3, #0
1000207e:	d0fc      	beq.n	1000207a <sleep_until_callback+0xa>
10002080:	f3bf 8f5f 	dmb	sy
10002084:	4b05      	ldr	r3, [pc, #20]	; (1000209c <sleep_until_callback+0x2c>)
10002086:	681b      	ldr	r3, [r3, #0]
10002088:	f3bf 8f5f 	dmb	sy
1000208c:	2200      	movs	r2, #0
1000208e:	601a      	str	r2, [r3, #0]
10002090:	f381 8810 	msr	PRIMASK, r1
10002094:	bf40      	sev
10002096:	2000      	movs	r0, #0
10002098:	2100      	movs	r1, #0
1000209a:	4770      	bx	lr
1000209c:	20002554 	.word	0x20002554

100020a0 <timer_pool_entry_comparator>:
100020a0:	b510      	push	{r4, lr}
100020a2:	2900      	cmp	r1, #0
100020a4:	d022      	beq.n	100020ec <timer_pool_entry_comparator+0x4c>
100020a6:	6803      	ldr	r3, [r0, #0]
100020a8:	7b1b      	ldrb	r3, [r3, #12]
100020aa:	4299      	cmp	r1, r3
100020ac:	d81e      	bhi.n	100020ec <timer_pool_entry_comparator+0x4c>
100020ae:	4b17      	ldr	r3, [pc, #92]	; (1000210c <timer_pool_entry_comparator+0x6c>)
100020b0:	469c      	mov	ip, r3
100020b2:	4461      	add	r1, ip
100020b4:	0109      	lsls	r1, r1, #4
100020b6:	6883      	ldr	r3, [r0, #8]
100020b8:	469c      	mov	ip, r3
100020ba:	4461      	add	r1, ip
100020bc:	680c      	ldr	r4, [r1, #0]
100020be:	6849      	ldr	r1, [r1, #4]
100020c0:	2a00      	cmp	r2, #0
100020c2:	d019      	beq.n	100020f8 <timer_pool_entry_comparator+0x58>
100020c4:	6803      	ldr	r3, [r0, #0]
100020c6:	7b1b      	ldrb	r3, [r3, #12]
100020c8:	429a      	cmp	r2, r3
100020ca:	d815      	bhi.n	100020f8 <timer_pool_entry_comparator+0x58>
100020cc:	6883      	ldr	r3, [r0, #8]
100020ce:	480f      	ldr	r0, [pc, #60]	; (1000210c <timer_pool_entry_comparator+0x6c>)
100020d0:	4684      	mov	ip, r0
100020d2:	4462      	add	r2, ip
100020d4:	0112      	lsls	r2, r2, #4
100020d6:	189a      	adds	r2, r3, r2
100020d8:	6810      	ldr	r0, [r2, #0]
100020da:	6853      	ldr	r3, [r2, #4]
100020dc:	0002      	movs	r2, r0
100020de:	2001      	movs	r0, #1
100020e0:	428b      	cmp	r3, r1
100020e2:	d801      	bhi.n	100020e8 <timer_pool_entry_comparator+0x48>
100020e4:	d00e      	beq.n	10002104 <timer_pool_entry_comparator+0x64>
100020e6:	2000      	movs	r0, #0
100020e8:	b2c0      	uxtb	r0, r0
100020ea:	bd10      	pop	{r4, pc}
100020ec:	4b08      	ldr	r3, [pc, #32]	; (10002110 <timer_pool_entry_comparator+0x70>)
100020ee:	4a09      	ldr	r2, [pc, #36]	; (10002114 <timer_pool_entry_comparator+0x74>)
100020f0:	213c      	movs	r1, #60	; 0x3c
100020f2:	4809      	ldr	r0, [pc, #36]	; (10002118 <timer_pool_entry_comparator+0x78>)
100020f4:	f001 fbfa 	bl	100038ec <__assert_func>
100020f8:	4b05      	ldr	r3, [pc, #20]	; (10002110 <timer_pool_entry_comparator+0x70>)
100020fa:	4a06      	ldr	r2, [pc, #24]	; (10002114 <timer_pool_entry_comparator+0x74>)
100020fc:	213c      	movs	r1, #60	; 0x3c
100020fe:	4806      	ldr	r0, [pc, #24]	; (10002118 <timer_pool_entry_comparator+0x78>)
10002100:	f001 fbf4 	bl	100038ec <__assert_func>
10002104:	42a2      	cmp	r2, r4
10002106:	d8ef      	bhi.n	100020e8 <timer_pool_entry_comparator+0x48>
10002108:	e7ed      	b.n	100020e6 <timer_pool_entry_comparator+0x46>
1000210a:	46c0      	nop			; (mov r8, r8)
1000210c:	0fffffff 	.word	0x0fffffff
10002110:	10009d8c 	.word	0x10009d8c
10002114:	1000a00c 	.word	0x1000a00c
10002118:	10009d38 	.word	0x10009d38

1000211c <ph_add_child_node>:
1000211c:	b510      	push	{r4, lr}
1000211e:	2900      	cmp	r1, #0
10002120:	d01e      	beq.n	10002160 <ph_add_child_node+0x44>
10002122:	7b03      	ldrb	r3, [r0, #12]
10002124:	4299      	cmp	r1, r3
10002126:	d81b      	bhi.n	10002160 <ph_add_child_node+0x44>
10002128:	004b      	lsls	r3, r1, #1
1000212a:	185b      	adds	r3, r3, r1
1000212c:	3b03      	subs	r3, #3
1000212e:	6804      	ldr	r4, [r0, #0]
10002130:	46a4      	mov	ip, r4
10002132:	4463      	add	r3, ip
10002134:	2900      	cmp	r1, #0
10002136:	d019      	beq.n	1000216c <ph_add_child_node+0x50>
10002138:	2a00      	cmp	r2, #0
1000213a:	d01d      	beq.n	10002178 <ph_add_child_node+0x5c>
1000213c:	4291      	cmp	r1, r2
1000213e:	d021      	beq.n	10002184 <ph_add_child_node+0x68>
10002140:	2a00      	cmp	r2, #0
10002142:	d025      	beq.n	10002190 <ph_add_child_node+0x74>
10002144:	7b04      	ldrb	r4, [r0, #12]
10002146:	42a2      	cmp	r2, r4
10002148:	d822      	bhi.n	10002190 <ph_add_child_node+0x74>
1000214a:	6804      	ldr	r4, [r0, #0]
1000214c:	0050      	lsls	r0, r2, #1
1000214e:	1880      	adds	r0, r0, r2
10002150:	3803      	subs	r0, #3
10002152:	1820      	adds	r0, r4, r0
10002154:	7081      	strb	r1, [r0, #2]
10002156:	7819      	ldrb	r1, [r3, #0]
10002158:	2900      	cmp	r1, #0
1000215a:	d11f      	bne.n	1000219c <ph_add_child_node+0x80>
1000215c:	701a      	strb	r2, [r3, #0]
1000215e:	bd10      	pop	{r4, pc}
10002160:	4b10      	ldr	r3, [pc, #64]	; (100021a4 <ph_add_child_node+0x88>)
10002162:	4a11      	ldr	r2, [pc, #68]	; (100021a8 <ph_add_child_node+0x8c>)
10002164:	2168      	movs	r1, #104	; 0x68
10002166:	4811      	ldr	r0, [pc, #68]	; (100021ac <ph_add_child_node+0x90>)
10002168:	f001 fbc0 	bl	100038ec <__assert_func>
1000216c:	4b10      	ldr	r3, [pc, #64]	; (100021b0 <ph_add_child_node+0x94>)
1000216e:	4a11      	ldr	r2, [pc, #68]	; (100021b4 <ph_add_child_node+0x98>)
10002170:	316f      	adds	r1, #111	; 0x6f
10002172:	480e      	ldr	r0, [pc, #56]	; (100021ac <ph_add_child_node+0x90>)
10002174:	f001 fbba 	bl	100038ec <__assert_func>
10002178:	4b0f      	ldr	r3, [pc, #60]	; (100021b8 <ph_add_child_node+0x9c>)
1000217a:	4a0e      	ldr	r2, [pc, #56]	; (100021b4 <ph_add_child_node+0x98>)
1000217c:	2170      	movs	r1, #112	; 0x70
1000217e:	480b      	ldr	r0, [pc, #44]	; (100021ac <ph_add_child_node+0x90>)
10002180:	f001 fbb4 	bl	100038ec <__assert_func>
10002184:	4b0d      	ldr	r3, [pc, #52]	; (100021bc <ph_add_child_node+0xa0>)
10002186:	4a0b      	ldr	r2, [pc, #44]	; (100021b4 <ph_add_child_node+0x98>)
10002188:	2171      	movs	r1, #113	; 0x71
1000218a:	4808      	ldr	r0, [pc, #32]	; (100021ac <ph_add_child_node+0x90>)
1000218c:	f001 fbae 	bl	100038ec <__assert_func>
10002190:	4b04      	ldr	r3, [pc, #16]	; (100021a4 <ph_add_child_node+0x88>)
10002192:	4a05      	ldr	r2, [pc, #20]	; (100021a8 <ph_add_child_node+0x8c>)
10002194:	2168      	movs	r1, #104	; 0x68
10002196:	4805      	ldr	r0, [pc, #20]	; (100021ac <ph_add_child_node+0x90>)
10002198:	f001 fba8 	bl	100038ec <__assert_func>
1000219c:	7041      	strb	r1, [r0, #1]
1000219e:	701a      	strb	r2, [r3, #0]
100021a0:	e7dd      	b.n	1000215e <ph_add_child_node+0x42>
100021a2:	46c0      	nop			; (mov r8, r8)
100021a4:	10009db0 	.word	0x10009db0
100021a8:	1000a078 	.word	0x1000a078
100021ac:	10009dcc 	.word	0x10009dcc
100021b0:	10009e34 	.word	0x10009e34
100021b4:	1000a054 	.word	0x1000a054
100021b8:	10009e40 	.word	0x10009e40
100021bc:	10009e4c 	.word	0x10009e4c

100021c0 <ph_merge_nodes>:
100021c0:	b570      	push	{r4, r5, r6, lr}
100021c2:	0006      	movs	r6, r0
100021c4:	000d      	movs	r5, r1
100021c6:	0014      	movs	r4, r2
100021c8:	2900      	cmp	r1, #0
100021ca:	d014      	beq.n	100021f6 <ph_merge_nodes+0x36>
100021cc:	2a00      	cmp	r2, #0
100021ce:	d014      	beq.n	100021fa <ph_merge_nodes+0x3a>
100021d0:	6880      	ldr	r0, [r0, #8]
100021d2:	6873      	ldr	r3, [r6, #4]
100021d4:	4798      	blx	r3
100021d6:	2800      	cmp	r0, #0
100021d8:	d006      	beq.n	100021e8 <ph_merge_nodes+0x28>
100021da:	0022      	movs	r2, r4
100021dc:	0029      	movs	r1, r5
100021de:	0030      	movs	r0, r6
100021e0:	f7ff ff9c 	bl	1000211c <ph_add_child_node>
100021e4:	0028      	movs	r0, r5
100021e6:	e007      	b.n	100021f8 <ph_merge_nodes+0x38>
100021e8:	002a      	movs	r2, r5
100021ea:	0021      	movs	r1, r4
100021ec:	0030      	movs	r0, r6
100021ee:	f7ff ff95 	bl	1000211c <ph_add_child_node>
100021f2:	0020      	movs	r0, r4
100021f4:	e000      	b.n	100021f8 <ph_merge_nodes+0x38>
100021f6:	0010      	movs	r0, r2
100021f8:	bd70      	pop	{r4, r5, r6, pc}
100021fa:	0008      	movs	r0, r1
100021fc:	e7fc      	b.n	100021f8 <ph_merge_nodes+0x38>
	...

10002200 <add_alarm_under_lock>:
10002200:	b5f0      	push	{r4, r5, r6, r7, lr}
10002202:	b083      	sub	sp, #12
10002204:	0005      	movs	r5, r0
10002206:	9200      	str	r2, [sp, #0]
10002208:	9301      	str	r3, [sp, #4]
1000220a:	ab0a      	add	r3, sp, #40	; 0x28
1000220c:	781c      	ldrb	r4, [r3, #0]
1000220e:	ab0b      	add	r3, sp, #44	; 0x2c
10002210:	781f      	ldrb	r7, [r3, #0]
10002212:	2c00      	cmp	r4, #0
10002214:	d026      	beq.n	10002264 <add_alarm_under_lock+0x64>
10002216:	6803      	ldr	r3, [r0, #0]
10002218:	7b5a      	ldrb	r2, [r3, #13]
1000221a:	4294      	cmp	r4, r2
1000221c:	d107      	bne.n	1000222e <add_alarm_under_lock+0x2e>
1000221e:	2301      	movs	r3, #1
10002220:	2b00      	cmp	r3, #0
10002222:	d119      	bne.n	10002258 <add_alarm_under_lock+0x58>
10002224:	2c00      	cmp	r4, #0
10002226:	d13b      	bne.n	100022a0 <add_alarm_under_lock+0xa0>
10002228:	0020      	movs	r0, r4
1000222a:	b003      	add	sp, #12
1000222c:	bdf0      	pop	{r4, r5, r6, r7, pc}
1000222e:	2c00      	cmp	r4, #0
10002230:	d00c      	beq.n	1000224c <add_alarm_under_lock+0x4c>
10002232:	7b1a      	ldrb	r2, [r3, #12]
10002234:	4294      	cmp	r4, r2
10002236:	d809      	bhi.n	1000224c <add_alarm_under_lock+0x4c>
10002238:	681a      	ldr	r2, [r3, #0]
1000223a:	0063      	lsls	r3, r4, #1
1000223c:	191b      	adds	r3, r3, r4
1000223e:	3b03      	subs	r3, #3
10002240:	18d3      	adds	r3, r2, r3
10002242:	789b      	ldrb	r3, [r3, #2]
10002244:	2b00      	cmp	r3, #0
10002246:	d0eb      	beq.n	10002220 <add_alarm_under_lock+0x20>
10002248:	2301      	movs	r3, #1
1000224a:	e7e9      	b.n	10002220 <add_alarm_under_lock+0x20>
1000224c:	4b3e      	ldr	r3, [pc, #248]	; (10002348 <add_alarm_under_lock+0x148>)
1000224e:	4a3f      	ldr	r2, [pc, #252]	; (1000234c <add_alarm_under_lock+0x14c>)
10002250:	2168      	movs	r1, #104	; 0x68
10002252:	483f      	ldr	r0, [pc, #252]	; (10002350 <add_alarm_under_lock+0x150>)
10002254:	f001 fb4a 	bl	100038ec <__assert_func>
10002258:	4b3e      	ldr	r3, [pc, #248]	; (10002354 <add_alarm_under_lock+0x154>)
1000225a:	4a3f      	ldr	r2, [pc, #252]	; (10002358 <add_alarm_under_lock+0x158>)
1000225c:	2167      	movs	r1, #103	; 0x67
1000225e:	483f      	ldr	r0, [pc, #252]	; (1000235c <add_alarm_under_lock+0x15c>)
10002260:	f001 fb44 	bl	100038ec <__assert_func>
10002264:	6803      	ldr	r3, [r0, #0]
10002266:	7b9c      	ldrb	r4, [r3, #14]
10002268:	2c00      	cmp	r4, #0
1000226a:	d0db      	beq.n	10002224 <add_alarm_under_lock+0x24>
1000226c:	d012      	beq.n	10002294 <add_alarm_under_lock+0x94>
1000226e:	7b1a      	ldrb	r2, [r3, #12]
10002270:	4294      	cmp	r4, r2
10002272:	d80f      	bhi.n	10002294 <add_alarm_under_lock+0x94>
10002274:	0062      	lsls	r2, r4, #1
10002276:	1912      	adds	r2, r2, r4
10002278:	3a03      	subs	r2, #3
1000227a:	6819      	ldr	r1, [r3, #0]
1000227c:	468c      	mov	ip, r1
1000227e:	4462      	add	r2, ip
10002280:	7851      	ldrb	r1, [r2, #1]
10002282:	7399      	strb	r1, [r3, #14]
10002284:	2900      	cmp	r1, #0
10002286:	d100      	bne.n	1000228a <add_alarm_under_lock+0x8a>
10002288:	73d9      	strb	r1, [r3, #15]
1000228a:	2300      	movs	r3, #0
1000228c:	7093      	strb	r3, [r2, #2]
1000228e:	7053      	strb	r3, [r2, #1]
10002290:	7013      	strb	r3, [r2, #0]
10002292:	e7c7      	b.n	10002224 <add_alarm_under_lock+0x24>
10002294:	4b2c      	ldr	r3, [pc, #176]	; (10002348 <add_alarm_under_lock+0x148>)
10002296:	4a2d      	ldr	r2, [pc, #180]	; (1000234c <add_alarm_under_lock+0x14c>)
10002298:	2168      	movs	r1, #104	; 0x68
1000229a:	482d      	ldr	r0, [pc, #180]	; (10002350 <add_alarm_under_lock+0x150>)
1000229c:	f001 fb26 	bl	100038ec <__assert_func>
100022a0:	2c00      	cmp	r4, #0
100022a2:	d03a      	beq.n	1000231a <add_alarm_under_lock+0x11a>
100022a4:	682b      	ldr	r3, [r5, #0]
100022a6:	7b1b      	ldrb	r3, [r3, #12]
100022a8:	429c      	cmp	r4, r3
100022aa:	d836      	bhi.n	1000231a <add_alarm_under_lock+0x11a>
100022ac:	4b2c      	ldr	r3, [pc, #176]	; (10002360 <add_alarm_under_lock+0x160>)
100022ae:	18e3      	adds	r3, r4, r3
100022b0:	011b      	lsls	r3, r3, #4
100022b2:	68aa      	ldr	r2, [r5, #8]
100022b4:	4694      	mov	ip, r2
100022b6:	4463      	add	r3, ip
100022b8:	9a00      	ldr	r2, [sp, #0]
100022ba:	601a      	str	r2, [r3, #0]
100022bc:	9a01      	ldr	r2, [sp, #4]
100022be:	605a      	str	r2, [r3, #4]
100022c0:	9a08      	ldr	r2, [sp, #32]
100022c2:	609a      	str	r2, [r3, #8]
100022c4:	9a09      	ldr	r2, [sp, #36]	; 0x24
100022c6:	60da      	str	r2, [r3, #12]
100022c8:	682e      	ldr	r6, [r5, #0]
100022ca:	2c00      	cmp	r4, #0
100022cc:	d02b      	beq.n	10002326 <add_alarm_under_lock+0x126>
100022ce:	d030      	beq.n	10002332 <add_alarm_under_lock+0x132>
100022d0:	7b33      	ldrb	r3, [r6, #12]
100022d2:	429c      	cmp	r4, r3
100022d4:	d82d      	bhi.n	10002332 <add_alarm_under_lock+0x132>
100022d6:	0063      	lsls	r3, r4, #1
100022d8:	191b      	adds	r3, r3, r4
100022da:	3b03      	subs	r3, #3
100022dc:	6832      	ldr	r2, [r6, #0]
100022de:	4694      	mov	ip, r2
100022e0:	4463      	add	r3, ip
100022e2:	2200      	movs	r2, #0
100022e4:	709a      	strb	r2, [r3, #2]
100022e6:	705a      	strb	r2, [r3, #1]
100022e8:	701a      	strb	r2, [r3, #0]
100022ea:	7b71      	ldrb	r1, [r6, #13]
100022ec:	0022      	movs	r2, r4
100022ee:	0030      	movs	r0, r6
100022f0:	f7ff ff66 	bl	100021c0 <ph_merge_nodes>
100022f4:	7370      	strb	r0, [r6, #13]
100022f6:	4284      	cmp	r4, r0
100022f8:	d000      	beq.n	100022fc <add_alarm_under_lock+0xfc>
100022fa:	e795      	b.n	10002228 <add_alarm_under_lock+0x28>
100022fc:	7d28      	ldrb	r0, [r5, #20]
100022fe:	9a00      	ldr	r2, [sp, #0]
10002300:	9b01      	ldr	r3, [sp, #4]
10002302:	f000 fd27 	bl	10002d54 <hardware_alarm_set_target>
10002306:	1e06      	subs	r6, r0, #0
10002308:	d001      	beq.n	1000230e <add_alarm_under_lock+0x10e>
1000230a:	2f00      	cmp	r7, #0
1000230c:	d017      	beq.n	1000233e <add_alarm_under_lock+0x13e>
1000230e:	9b0c      	ldr	r3, [sp, #48]	; 0x30
10002310:	2b00      	cmp	r3, #0
10002312:	d100      	bne.n	10002316 <add_alarm_under_lock+0x116>
10002314:	e788      	b.n	10002228 <add_alarm_under_lock+0x28>
10002316:	701e      	strb	r6, [r3, #0]
10002318:	e786      	b.n	10002228 <add_alarm_under_lock+0x28>
1000231a:	4b12      	ldr	r3, [pc, #72]	; (10002364 <add_alarm_under_lock+0x164>)
1000231c:	4a12      	ldr	r2, [pc, #72]	; (10002368 <add_alarm_under_lock+0x168>)
1000231e:	213c      	movs	r1, #60	; 0x3c
10002320:	480e      	ldr	r0, [pc, #56]	; (1000235c <add_alarm_under_lock+0x15c>)
10002322:	f001 fae3 	bl	100038ec <__assert_func>
10002326:	4b11      	ldr	r3, [pc, #68]	; (1000236c <add_alarm_under_lock+0x16c>)
10002328:	4a11      	ldr	r2, [pc, #68]	; (10002370 <add_alarm_under_lock+0x170>)
1000232a:	21a5      	movs	r1, #165	; 0xa5
1000232c:	4808      	ldr	r0, [pc, #32]	; (10002350 <add_alarm_under_lock+0x150>)
1000232e:	f001 fadd 	bl	100038ec <__assert_func>
10002332:	4b05      	ldr	r3, [pc, #20]	; (10002348 <add_alarm_under_lock+0x148>)
10002334:	4a05      	ldr	r2, [pc, #20]	; (1000234c <add_alarm_under_lock+0x14c>)
10002336:	2168      	movs	r1, #104	; 0x68
10002338:	4805      	ldr	r0, [pc, #20]	; (10002350 <add_alarm_under_lock+0x150>)
1000233a:	f001 fad7 	bl	100038ec <__assert_func>
1000233e:	6828      	ldr	r0, [r5, #0]
10002340:	0021      	movs	r1, r4
10002342:	f000 ff3f 	bl	100031c4 <ph_remove_and_free_node>
10002346:	e7e2      	b.n	1000230e <add_alarm_under_lock+0x10e>
10002348:	10009db0 	.word	0x10009db0
1000234c:	1000a078 	.word	0x1000a078
10002350:	10009dcc 	.word	0x10009dcc
10002354:	10009e64 	.word	0x10009e64
10002358:	1000a084 	.word	0x1000a084
1000235c:	10009d38 	.word	0x10009d38
10002360:	0fffffff 	.word	0x0fffffff
10002364:	10009d8c 	.word	0x10009d8c
10002368:	1000a00c 	.word	0x1000a00c
1000236c:	10009d34 	.word	0x10009d34
10002370:	1000a068 	.word	0x1000a068

10002374 <alarm_pool_alarm_callback>:
10002374:	b5f0      	push	{r4, r5, r6, r7, lr}
10002376:	46de      	mov	lr, fp
10002378:	4657      	mov	r7, sl
1000237a:	464e      	mov	r6, r9
1000237c:	4645      	mov	r5, r8
1000237e:	b5e0      	push	{r5, r6, r7, lr}
10002380:	b08b      	sub	sp, #44	; 0x2c
10002382:	9009      	str	r0, [sp, #36]	; 0x24
10002384:	2300      	movs	r3, #0
10002386:	9308      	str	r3, [sp, #32]
10002388:	0082      	lsls	r2, r0, #2
1000238a:	4bb5      	ldr	r3, [pc, #724]	; (10002660 <alarm_pool_alarm_callback+0x2ec>)
1000238c:	58d6      	ldr	r6, [r2, r3]
1000238e:	0037      	movs	r7, r6
10002390:	e052      	b.n	10002438 <alarm_pool_alarm_callback+0xc4>
10002392:	4bb4      	ldr	r3, [pc, #720]	; (10002664 <alarm_pool_alarm_callback+0x2f0>)
10002394:	4ab4      	ldr	r2, [pc, #720]	; (10002668 <alarm_pool_alarm_callback+0x2f4>)
10002396:	213f      	movs	r1, #63	; 0x3f
10002398:	48b4      	ldr	r0, [pc, #720]	; (1000266c <alarm_pool_alarm_callback+0x2f8>)
1000239a:	f001 faa7 	bl	100038ec <__assert_func>
1000239e:	4bb4      	ldr	r3, [pc, #720]	; (10002670 <alarm_pool_alarm_callback+0x2fc>)
100023a0:	4ab4      	ldr	r2, [pc, #720]	; (10002674 <alarm_pool_alarm_callback+0x300>)
100023a2:	213c      	movs	r1, #60	; 0x3c
100023a4:	48b4      	ldr	r0, [pc, #720]	; (10002678 <alarm_pool_alarm_callback+0x304>)
100023a6:	f001 faa1 	bl	100038ec <__assert_func>
100023aa:	2900      	cmp	r1, #0
100023ac:	d101      	bne.n	100023b2 <alarm_pool_alarm_callback+0x3e>
100023ae:	2800      	cmp	r0, #0
100023b0:	d169      	bne.n	10002486 <alarm_pool_alarm_callback+0x112>
100023b2:	2100      	movs	r1, #0
100023b4:	4640      	mov	r0, r8
100023b6:	f000 fefb 	bl	100031b0 <ph_remove_head>
100023ba:	42a0      	cmp	r0, r4
100023bc:	d119      	bne.n	100023f2 <alarm_pool_alarm_callback+0x7e>
100023be:	682a      	ldr	r2, [r5, #0]
100023c0:	686b      	ldr	r3, [r5, #4]
100023c2:	9206      	str	r2, [sp, #24]
100023c4:	9307      	str	r3, [sp, #28]
100023c6:	68ab      	ldr	r3, [r5, #8]
100023c8:	4698      	mov	r8, r3
100023ca:	68eb      	ldr	r3, [r5, #12]
100023cc:	469a      	mov	sl, r3
100023ce:	4643      	mov	r3, r8
100023d0:	2b00      	cmp	r3, #0
100023d2:	d014      	beq.n	100023fe <alarm_pool_alarm_callback+0x8a>
100023d4:	2c00      	cmp	r4, #0
100023d6:	d018      	beq.n	1000240a <alarm_pool_alarm_callback+0x96>
100023d8:	683b      	ldr	r3, [r7, #0]
100023da:	7b1b      	ldrb	r3, [r3, #12]
100023dc:	429c      	cmp	r4, r3
100023de:	d814      	bhi.n	1000240a <alarm_pool_alarm_callback+0x96>
100023e0:	1e63      	subs	r3, r4, #1
100023e2:	68fa      	ldr	r2, [r7, #12]
100023e4:	5cd3      	ldrb	r3, [r2, r3]
100023e6:	9308      	str	r3, [sp, #32]
100023e8:	021b      	lsls	r3, r3, #8
100023ea:	4318      	orrs	r0, r3
100023ec:	6138      	str	r0, [r7, #16]
100023ee:	2000      	movs	r0, #0
100023f0:	e015      	b.n	1000241e <alarm_pool_alarm_callback+0xaa>
100023f2:	4ba2      	ldr	r3, [pc, #648]	; (1000267c <alarm_pool_alarm_callback+0x308>)
100023f4:	4aa2      	ldr	r2, [pc, #648]	; (10002680 <alarm_pool_alarm_callback+0x30c>)
100023f6:	218e      	movs	r1, #142	; 0x8e
100023f8:	489f      	ldr	r0, [pc, #636]	; (10002678 <alarm_pool_alarm_callback+0x304>)
100023fa:	f001 fa77 	bl	100038ec <__assert_func>
100023fe:	4ba1      	ldr	r3, [pc, #644]	; (10002684 <alarm_pool_alarm_callback+0x310>)
10002400:	4a9f      	ldr	r2, [pc, #636]	; (10002680 <alarm_pool_alarm_callback+0x30c>)
10002402:	2192      	movs	r1, #146	; 0x92
10002404:	489c      	ldr	r0, [pc, #624]	; (10002678 <alarm_pool_alarm_callback+0x304>)
10002406:	f001 fa71 	bl	100038ec <__assert_func>
1000240a:	4b99      	ldr	r3, [pc, #612]	; (10002670 <alarm_pool_alarm_callback+0x2fc>)
1000240c:	4a9e      	ldr	r2, [pc, #632]	; (10002688 <alarm_pool_alarm_callback+0x314>)
1000240e:	2141      	movs	r1, #65	; 0x41
10002410:	4899      	ldr	r0, [pc, #612]	; (10002678 <alarm_pool_alarm_callback+0x304>)
10002412:	f001 fa6b 	bl	100038ec <__assert_func>
10002416:	2300      	movs	r3, #0
10002418:	469a      	mov	sl, r3
1000241a:	4698      	mov	r8, r3
1000241c:	2000      	movs	r0, #0
1000241e:	687b      	ldr	r3, [r7, #4]
10002420:	f3bf 8f5f 	dmb	sy
10002424:	2200      	movs	r2, #0
10002426:	601a      	str	r2, [r3, #0]
10002428:	f386 8810 	msr	PRIMASK, r6
1000242c:	4643      	mov	r3, r8
1000242e:	2b00      	cmp	r3, #0
10002430:	d132      	bne.n	10002498 <alarm_pool_alarm_callback+0x124>
10002432:	2800      	cmp	r0, #0
10002434:	d100      	bne.n	10002438 <alarm_pool_alarm_callback+0xc4>
10002436:	e10c      	b.n	10002652 <alarm_pool_alarm_callback+0x2de>
10002438:	f000 fc00 	bl	10002c3c <time_us_64>
1000243c:	0002      	movs	r2, r0
1000243e:	1e0b      	subs	r3, r1, #0
10002440:	dba7      	blt.n	10002392 <alarm_pool_alarm_callback+0x1e>
10002442:	2000      	movs	r0, #0
10002444:	2100      	movs	r1, #0
10002446:	9006      	str	r0, [sp, #24]
10002448:	9107      	str	r1, [sp, #28]
1000244a:	6878      	ldr	r0, [r7, #4]
1000244c:	f3ef 8610 	mrs	r6, PRIMASK
10002450:	b672      	cpsid	i
10002452:	6801      	ldr	r1, [r0, #0]
10002454:	2900      	cmp	r1, #0
10002456:	d0fc      	beq.n	10002452 <alarm_pool_alarm_callback+0xde>
10002458:	f3bf 8f5f 	dmb	sy
1000245c:	6839      	ldr	r1, [r7, #0]
1000245e:	4688      	mov	r8, r1
10002460:	7b4c      	ldrb	r4, [r1, #13]
10002462:	2c00      	cmp	r4, #0
10002464:	d0d7      	beq.n	10002416 <alarm_pool_alarm_callback+0xa2>
10002466:	d09a      	beq.n	1000239e <alarm_pool_alarm_callback+0x2a>
10002468:	7b09      	ldrb	r1, [r1, #12]
1000246a:	428c      	cmp	r4, r1
1000246c:	d897      	bhi.n	1000239e <alarm_pool_alarm_callback+0x2a>
1000246e:	4987      	ldr	r1, [pc, #540]	; (1000268c <alarm_pool_alarm_callback+0x318>)
10002470:	1865      	adds	r5, r4, r1
10002472:	012d      	lsls	r5, r5, #4
10002474:	68b9      	ldr	r1, [r7, #8]
10002476:	468c      	mov	ip, r1
10002478:	4465      	add	r5, ip
1000247a:	6828      	ldr	r0, [r5, #0]
1000247c:	6869      	ldr	r1, [r5, #4]
1000247e:	1a80      	subs	r0, r0, r2
10002480:	4199      	sbcs	r1, r3
10002482:	2900      	cmp	r1, #0
10002484:	dd91      	ble.n	100023aa <alarm_pool_alarm_callback+0x36>
10002486:	682a      	ldr	r2, [r5, #0]
10002488:	686b      	ldr	r3, [r5, #4]
1000248a:	9809      	ldr	r0, [sp, #36]	; 0x24
1000248c:	f000 fc62 	bl	10002d54 <hardware_alarm_set_target>
10002490:	2300      	movs	r3, #0
10002492:	469a      	mov	sl, r3
10002494:	4698      	mov	r8, r3
10002496:	e7c2      	b.n	1000241e <alarm_pool_alarm_callback+0xaa>
10002498:	9b08      	ldr	r3, [sp, #32]
1000249a:	021b      	lsls	r3, r3, #8
1000249c:	4323      	orrs	r3, r4
1000249e:	4699      	mov	r9, r3
100024a0:	4651      	mov	r1, sl
100024a2:	0018      	movs	r0, r3
100024a4:	47c0      	blx	r8
100024a6:	0005      	movs	r5, r0
100024a8:	000e      	movs	r6, r1
100024aa:	687a      	ldr	r2, [r7, #4]
100024ac:	f3ef 8b10 	mrs	fp, PRIMASK
100024b0:	b672      	cpsid	i
100024b2:	6813      	ldr	r3, [r2, #0]
100024b4:	4259      	negs	r1, r3
100024b6:	414b      	adcs	r3, r1
100024b8:	b2d9      	uxtb	r1, r3
100024ba:	2b00      	cmp	r3, #0
100024bc:	d1f9      	bne.n	100024b2 <alarm_pool_alarm_callback+0x13e>
100024be:	f3bf 8f5f 	dmb	sy
100024c2:	2e00      	cmp	r6, #0
100024c4:	db1e      	blt.n	10002504 <alarm_pool_alarm_callback+0x190>
100024c6:	2e00      	cmp	r6, #0
100024c8:	dd46      	ble.n	10002558 <alarm_pool_alarm_callback+0x1e4>
100024ca:	693b      	ldr	r3, [r7, #16]
100024cc:	2b00      	cmp	r3, #0
100024ce:	d047      	beq.n	10002560 <alarm_pool_alarm_callback+0x1ec>
100024d0:	454b      	cmp	r3, r9
100024d2:	d16d      	bne.n	100025b0 <alarm_pool_alarm_callback+0x23c>
100024d4:	f000 fbb2 	bl	10002c3c <time_us_64>
100024d8:	0002      	movs	r2, r0
100024da:	1e0b      	subs	r3, r1, #0
100024dc:	db6e      	blt.n	100025bc <alarm_pool_alarm_callback+0x248>
100024de:	1952      	adds	r2, r2, r5
100024e0:	4173      	adcs	r3, r6
100024e2:	2b00      	cmp	r3, #0
100024e4:	db70      	blt.n	100025c8 <alarm_pool_alarm_callback+0x254>
100024e6:	2b00      	cmp	r3, #0
100024e8:	db72      	blt.n	100025d0 <alarm_pool_alarm_callback+0x25c>
100024ea:	2100      	movs	r1, #0
100024ec:	9104      	str	r1, [sp, #16]
100024ee:	3101      	adds	r1, #1
100024f0:	9103      	str	r1, [sp, #12]
100024f2:	9402      	str	r4, [sp, #8]
100024f4:	4651      	mov	r1, sl
100024f6:	9101      	str	r1, [sp, #4]
100024f8:	4641      	mov	r1, r8
100024fa:	9100      	str	r1, [sp, #0]
100024fc:	0038      	movs	r0, r7
100024fe:	f7ff fe7f 	bl	10002200 <add_alarm_under_lock>
10002502:	e04c      	b.n	1000259e <alarm_pool_alarm_callback+0x22a>
10002504:	693b      	ldr	r3, [r7, #16]
10002506:	2b00      	cmp	r3, #0
10002508:	d0dd      	beq.n	100024c6 <alarm_pool_alarm_callback+0x152>
1000250a:	454b      	cmp	r3, r9
1000250c:	d114      	bne.n	10002538 <alarm_pool_alarm_callback+0x1c4>
1000250e:	9a06      	ldr	r2, [sp, #24]
10002510:	9b07      	ldr	r3, [sp, #28]
10002512:	1b52      	subs	r2, r2, r5
10002514:	41b3      	sbcs	r3, r6
10002516:	2b00      	cmp	r3, #0
10002518:	db14      	blt.n	10002544 <alarm_pool_alarm_callback+0x1d0>
1000251a:	2b00      	cmp	r3, #0
1000251c:	db16      	blt.n	1000254c <alarm_pool_alarm_callback+0x1d8>
1000251e:	2100      	movs	r1, #0
10002520:	9104      	str	r1, [sp, #16]
10002522:	3101      	adds	r1, #1
10002524:	9103      	str	r1, [sp, #12]
10002526:	9402      	str	r4, [sp, #8]
10002528:	4651      	mov	r1, sl
1000252a:	9101      	str	r1, [sp, #4]
1000252c:	4641      	mov	r1, r8
1000252e:	9100      	str	r1, [sp, #0]
10002530:	0038      	movs	r0, r7
10002532:	f7ff fe65 	bl	10002200 <add_alarm_under_lock>
10002536:	e032      	b.n	1000259e <alarm_pool_alarm_callback+0x22a>
10002538:	4b55      	ldr	r3, [pc, #340]	; (10002690 <alarm_pool_alarm_callback+0x31c>)
1000253a:	4a51      	ldr	r2, [pc, #324]	; (10002680 <alarm_pool_alarm_callback+0x30c>)
1000253c:	21a1      	movs	r1, #161	; 0xa1
1000253e:	484e      	ldr	r0, [pc, #312]	; (10002678 <alarm_pool_alarm_callback+0x304>)
10002540:	f001 f9d4 	bl	100038ec <__assert_func>
10002544:	2201      	movs	r2, #1
10002546:	4252      	negs	r2, r2
10002548:	4b52      	ldr	r3, [pc, #328]	; (10002694 <alarm_pool_alarm_callback+0x320>)
1000254a:	e7e6      	b.n	1000251a <alarm_pool_alarm_callback+0x1a6>
1000254c:	4b45      	ldr	r3, [pc, #276]	; (10002664 <alarm_pool_alarm_callback+0x2f0>)
1000254e:	4a46      	ldr	r2, [pc, #280]	; (10002668 <alarm_pool_alarm_callback+0x2f4>)
10002550:	213f      	movs	r1, #63	; 0x3f
10002552:	4846      	ldr	r0, [pc, #280]	; (1000266c <alarm_pool_alarm_callback+0x2f8>)
10002554:	f001 f9ca 	bl	100038ec <__assert_func>
10002558:	2e00      	cmp	r6, #0
1000255a:	d101      	bne.n	10002560 <alarm_pool_alarm_callback+0x1ec>
1000255c:	2d00      	cmp	r5, #0
1000255e:	d1b4      	bne.n	100024ca <alarm_pool_alarm_callback+0x156>
10002560:	683b      	ldr	r3, [r7, #0]
10002562:	2c00      	cmp	r4, #0
10002564:	d050      	beq.n	10002608 <alarm_pool_alarm_callback+0x294>
10002566:	7b5a      	ldrb	r2, [r3, #13]
10002568:	4294      	cmp	r4, r2
1000256a:	d137      	bne.n	100025dc <alarm_pool_alarm_callback+0x268>
1000256c:	2101      	movs	r1, #1
1000256e:	2900      	cmp	r1, #0
10002570:	d14a      	bne.n	10002608 <alarm_pool_alarm_callback+0x294>
10002572:	7bda      	ldrb	r2, [r3, #15]
10002574:	2a00      	cmp	r2, #0
10002576:	d14d      	bne.n	10002614 <alarm_pool_alarm_callback+0x2a0>
10002578:	7b9a      	ldrb	r2, [r3, #14]
1000257a:	2a00      	cmp	r2, #0
1000257c:	d103      	bne.n	10002586 <alarm_pool_alarm_callback+0x212>
1000257e:	7bda      	ldrb	r2, [r3, #15]
10002580:	2a00      	cmp	r2, #0
10002582:	d15a      	bne.n	1000263a <alarm_pool_alarm_callback+0x2c6>
10002584:	739c      	strb	r4, [r3, #14]
10002586:	73dc      	strb	r4, [r3, #15]
10002588:	2c00      	cmp	r4, #0
1000258a:	d05c      	beq.n	10002646 <alarm_pool_alarm_callback+0x2d2>
1000258c:	683b      	ldr	r3, [r7, #0]
1000258e:	7b1b      	ldrb	r3, [r3, #12]
10002590:	429c      	cmp	r4, r3
10002592:	d858      	bhi.n	10002646 <alarm_pool_alarm_callback+0x2d2>
10002594:	68fa      	ldr	r2, [r7, #12]
10002596:	3c01      	subs	r4, #1
10002598:	5d13      	ldrb	r3, [r2, r4]
1000259a:	3301      	adds	r3, #1
1000259c:	5513      	strb	r3, [r2, r4]
1000259e:	2300      	movs	r3, #0
100025a0:	613b      	str	r3, [r7, #16]
100025a2:	687a      	ldr	r2, [r7, #4]
100025a4:	f3bf 8f5f 	dmb	sy
100025a8:	6013      	str	r3, [r2, #0]
100025aa:	f38b 8810 	msr	PRIMASK, fp
100025ae:	e743      	b.n	10002438 <alarm_pool_alarm_callback+0xc4>
100025b0:	4b37      	ldr	r3, [pc, #220]	; (10002690 <alarm_pool_alarm_callback+0x31c>)
100025b2:	4a33      	ldr	r2, [pc, #204]	; (10002680 <alarm_pool_alarm_callback+0x30c>)
100025b4:	21a4      	movs	r1, #164	; 0xa4
100025b6:	4830      	ldr	r0, [pc, #192]	; (10002678 <alarm_pool_alarm_callback+0x304>)
100025b8:	f001 f998 	bl	100038ec <__assert_func>
100025bc:	4b29      	ldr	r3, [pc, #164]	; (10002664 <alarm_pool_alarm_callback+0x2f0>)
100025be:	4a2a      	ldr	r2, [pc, #168]	; (10002668 <alarm_pool_alarm_callback+0x2f4>)
100025c0:	213f      	movs	r1, #63	; 0x3f
100025c2:	482a      	ldr	r0, [pc, #168]	; (1000266c <alarm_pool_alarm_callback+0x2f8>)
100025c4:	f001 f992 	bl	100038ec <__assert_func>
100025c8:	2201      	movs	r2, #1
100025ca:	4252      	negs	r2, r2
100025cc:	4b31      	ldr	r3, [pc, #196]	; (10002694 <alarm_pool_alarm_callback+0x320>)
100025ce:	e78a      	b.n	100024e6 <alarm_pool_alarm_callback+0x172>
100025d0:	4b24      	ldr	r3, [pc, #144]	; (10002664 <alarm_pool_alarm_callback+0x2f0>)
100025d2:	4a25      	ldr	r2, [pc, #148]	; (10002668 <alarm_pool_alarm_callback+0x2f4>)
100025d4:	213f      	movs	r1, #63	; 0x3f
100025d6:	4825      	ldr	r0, [pc, #148]	; (1000266c <alarm_pool_alarm_callback+0x2f8>)
100025d8:	f001 f988 	bl	100038ec <__assert_func>
100025dc:	2c00      	cmp	r4, #0
100025de:	d00d      	beq.n	100025fc <alarm_pool_alarm_callback+0x288>
100025e0:	7b1a      	ldrb	r2, [r3, #12]
100025e2:	4294      	cmp	r4, r2
100025e4:	d80a      	bhi.n	100025fc <alarm_pool_alarm_callback+0x288>
100025e6:	0062      	lsls	r2, r4, #1
100025e8:	1912      	adds	r2, r2, r4
100025ea:	3a03      	subs	r2, #3
100025ec:	6818      	ldr	r0, [r3, #0]
100025ee:	4684      	mov	ip, r0
100025f0:	4462      	add	r2, ip
100025f2:	7892      	ldrb	r2, [r2, #2]
100025f4:	2a00      	cmp	r2, #0
100025f6:	d0ba      	beq.n	1000256e <alarm_pool_alarm_callback+0x1fa>
100025f8:	2101      	movs	r1, #1
100025fa:	e7b8      	b.n	1000256e <alarm_pool_alarm_callback+0x1fa>
100025fc:	4b26      	ldr	r3, [pc, #152]	; (10002698 <alarm_pool_alarm_callback+0x324>)
100025fe:	4a27      	ldr	r2, [pc, #156]	; (1000269c <alarm_pool_alarm_callback+0x328>)
10002600:	2168      	movs	r1, #104	; 0x68
10002602:	4827      	ldr	r0, [pc, #156]	; (100026a0 <alarm_pool_alarm_callback+0x32c>)
10002604:	f001 f972 	bl	100038ec <__assert_func>
10002608:	4b26      	ldr	r3, [pc, #152]	; (100026a4 <alarm_pool_alarm_callback+0x330>)
1000260a:	4a27      	ldr	r2, [pc, #156]	; (100026a8 <alarm_pool_alarm_callback+0x334>)
1000260c:	21f6      	movs	r1, #246	; 0xf6
1000260e:	4824      	ldr	r0, [pc, #144]	; (100026a0 <alarm_pool_alarm_callback+0x32c>)
10002610:	f001 f96c 	bl	100038ec <__assert_func>
10002614:	2a00      	cmp	r2, #0
10002616:	d00a      	beq.n	1000262e <alarm_pool_alarm_callback+0x2ba>
10002618:	7b19      	ldrb	r1, [r3, #12]
1000261a:	428a      	cmp	r2, r1
1000261c:	d807      	bhi.n	1000262e <alarm_pool_alarm_callback+0x2ba>
1000261e:	0051      	lsls	r1, r2, #1
10002620:	188a      	adds	r2, r1, r2
10002622:	3a03      	subs	r2, #3
10002624:	6819      	ldr	r1, [r3, #0]
10002626:	468c      	mov	ip, r1
10002628:	4462      	add	r2, ip
1000262a:	7054      	strb	r4, [r2, #1]
1000262c:	e7a4      	b.n	10002578 <alarm_pool_alarm_callback+0x204>
1000262e:	4b1a      	ldr	r3, [pc, #104]	; (10002698 <alarm_pool_alarm_callback+0x324>)
10002630:	4a1a      	ldr	r2, [pc, #104]	; (1000269c <alarm_pool_alarm_callback+0x328>)
10002632:	2168      	movs	r1, #104	; 0x68
10002634:	481a      	ldr	r0, [pc, #104]	; (100026a0 <alarm_pool_alarm_callback+0x32c>)
10002636:	f001 f959 	bl	100038ec <__assert_func>
1000263a:	4b1c      	ldr	r3, [pc, #112]	; (100026ac <alarm_pool_alarm_callback+0x338>)
1000263c:	4a1a      	ldr	r2, [pc, #104]	; (100026a8 <alarm_pool_alarm_callback+0x334>)
1000263e:	21fb      	movs	r1, #251	; 0xfb
10002640:	4817      	ldr	r0, [pc, #92]	; (100026a0 <alarm_pool_alarm_callback+0x32c>)
10002642:	f001 f953 	bl	100038ec <__assert_func>
10002646:	4b0a      	ldr	r3, [pc, #40]	; (10002670 <alarm_pool_alarm_callback+0x2fc>)
10002648:	4a0f      	ldr	r2, [pc, #60]	; (10002688 <alarm_pool_alarm_callback+0x314>)
1000264a:	2141      	movs	r1, #65	; 0x41
1000264c:	480a      	ldr	r0, [pc, #40]	; (10002678 <alarm_pool_alarm_callback+0x304>)
1000264e:	f001 f94d 	bl	100038ec <__assert_func>
10002652:	b00b      	add	sp, #44	; 0x2c
10002654:	bcf0      	pop	{r4, r5, r6, r7}
10002656:	46bb      	mov	fp, r7
10002658:	46b2      	mov	sl, r6
1000265a:	46a9      	mov	r9, r5
1000265c:	46a0      	mov	r8, r4
1000265e:	bdf0      	pop	{r4, r5, r6, r7, pc}
10002660:	20002328 	.word	0x20002328
10002664:	10009c30 	.word	0x10009c30
10002668:	10009fd8 	.word	0x10009fd8
1000266c:	10009c4c 	.word	0x10009c4c
10002670:	10009d8c 	.word	0x10009d8c
10002674:	1000a00c 	.word	0x1000a00c
10002678:	10009d38 	.word	0x10009d38
1000267c:	10009e8c 	.word	0x10009e8c
10002680:	10009ff0 	.word	0x10009ff0
10002684:	10009ea4 	.word	0x10009ea4
10002688:	1000a030 	.word	0x1000a030
1000268c:	0fffffff 	.word	0x0fffffff
10002690:	10009eb0 	.word	0x10009eb0
10002694:	7fffffff 	.word	0x7fffffff
10002698:	10009db0 	.word	0x10009db0
1000269c:	1000a078 	.word	0x1000a078
100026a0:	10009dcc 	.word	0x10009dcc
100026a4:	10009eec 	.word	0x10009eec
100026a8:	1000a044 	.word	0x1000a044
100026ac:	10009f10 	.word	0x10009f10

100026b0 <alarm_pool_init_default>:
100026b0:	b510      	push	{r4, lr}
100026b2:	4b0c      	ldr	r3, [pc, #48]	; (100026e4 <alarm_pool_init_default+0x34>)
100026b4:	685b      	ldr	r3, [r3, #4]
100026b6:	2b00      	cmp	r3, #0
100026b8:	d004      	beq.n	100026c4 <alarm_pool_init_default+0x14>
100026ba:	210a      	movs	r1, #10
100026bc:	480a      	ldr	r0, [pc, #40]	; (100026e8 <alarm_pool_init_default+0x38>)
100026be:	f7ff fc7f 	bl	10001fc0 <lock_init>
100026c2:	bd10      	pop	{r4, pc}
100026c4:	4c07      	ldr	r4, [pc, #28]	; (100026e4 <alarm_pool_init_default+0x34>)
100026c6:	0023      	movs	r3, r4
100026c8:	4a08      	ldr	r2, [pc, #32]	; (100026ec <alarm_pool_init_default+0x3c>)
100026ca:	2110      	movs	r1, #16
100026cc:	6820      	ldr	r0, [r4, #0]
100026ce:	f000 fc7f 	bl	10002fd0 <ph_post_alloc_init>
100026d2:	2003      	movs	r0, #3
100026d4:	f000 faa6 	bl	10002c24 <hardware_alarm_claim>
100026d8:	2103      	movs	r1, #3
100026da:	0020      	movs	r0, r4
100026dc:	f7ff fca8 	bl	10002030 <alarm_pool_post_alloc_init>
100026e0:	e7eb      	b.n	100026ba <alarm_pool_init_default+0xa>
100026e2:	46c0      	nop			; (mov r8, r8)
100026e4:	20000d3c 	.word	0x20000d3c
100026e8:	20002554 	.word	0x20002554
100026ec:	100020a1 	.word	0x100020a1

100026f0 <alarm_pool_get_default>:
100026f0:	b510      	push	{r4, lr}
100026f2:	4b06      	ldr	r3, [pc, #24]	; (1000270c <alarm_pool_get_default+0x1c>)
100026f4:	685b      	ldr	r3, [r3, #4]
100026f6:	2b00      	cmp	r3, #0
100026f8:	d001      	beq.n	100026fe <alarm_pool_get_default+0xe>
100026fa:	4804      	ldr	r0, [pc, #16]	; (1000270c <alarm_pool_get_default+0x1c>)
100026fc:	bd10      	pop	{r4, pc}
100026fe:	4b04      	ldr	r3, [pc, #16]	; (10002710 <alarm_pool_get_default+0x20>)
10002700:	4a04      	ldr	r2, [pc, #16]	; (10002714 <alarm_pool_get_default+0x24>)
10002702:	215e      	movs	r1, #94	; 0x5e
10002704:	4804      	ldr	r0, [pc, #16]	; (10002718 <alarm_pool_get_default+0x28>)
10002706:	f001 f8f1 	bl	100038ec <__assert_func>
1000270a:	46c0      	nop			; (mov r8, r8)
1000270c:	20000d3c 	.word	0x20000d3c
10002710:	10009f24 	.word	0x10009f24
10002714:	1000a018 	.word	0x1000a018
10002718:	10009d38 	.word	0x10009d38

1000271c <alarm_pool_add_alarm_at>:
1000271c:	b5f0      	push	{r4, r5, r6, r7, lr}
1000271e:	46de      	mov	lr, fp
10002720:	4657      	mov	r7, sl
10002722:	464e      	mov	r6, r9
10002724:	4645      	mov	r5, r8
10002726:	b5e0      	push	{r5, r6, r7, lr}
10002728:	b08b      	sub	sp, #44	; 0x2c
1000272a:	4680      	mov	r8, r0
1000272c:	0016      	movs	r6, r2
1000272e:	001f      	movs	r7, r3
10002730:	9b14      	ldr	r3, [sp, #80]	; 0x50
10002732:	469a      	mov	sl, r3
10002734:	9b15      	ldr	r3, [sp, #84]	; 0x54
10002736:	4699      	mov	r9, r3
10002738:	ab16      	add	r3, sp, #88	; 0x58
1000273a:	781b      	ldrb	r3, [r3, #0]
1000273c:	469b      	mov	fp, r3
1000273e:	231f      	movs	r3, #31
10002740:	aa02      	add	r2, sp, #8
10002742:	4694      	mov	ip, r2
10002744:	4463      	add	r3, ip
10002746:	2200      	movs	r2, #0
10002748:	701a      	strb	r2, [r3, #0]
1000274a:	e02b      	b.n	100027a4 <alarm_pool_add_alarm_at+0x88>
1000274c:	2800      	cmp	r0, #0
1000274e:	d009      	beq.n	10002764 <alarm_pool_add_alarm_at+0x48>
10002750:	4642      	mov	r2, r8
10002752:	6812      	ldr	r2, [r2, #0]
10002754:	7b12      	ldrb	r2, [r2, #12]
10002756:	4290      	cmp	r0, r2
10002758:	d804      	bhi.n	10002764 <alarm_pool_add_alarm_at+0x48>
1000275a:	1e42      	subs	r2, r0, #1
1000275c:	4641      	mov	r1, r8
1000275e:	68c9      	ldr	r1, [r1, #12]
10002760:	5c8a      	ldrb	r2, [r1, r2]
10002762:	e041      	b.n	100027e8 <alarm_pool_add_alarm_at+0xcc>
10002764:	4b40      	ldr	r3, [pc, #256]	; (10002868 <alarm_pool_add_alarm_at+0x14c>)
10002766:	4a41      	ldr	r2, [pc, #260]	; (1000286c <alarm_pool_add_alarm_at+0x150>)
10002768:	2141      	movs	r1, #65	; 0x41
1000276a:	4841      	ldr	r0, [pc, #260]	; (10002870 <alarm_pool_add_alarm_at+0x154>)
1000276c:	f001 f8be 	bl	100038ec <__assert_func>
10002770:	9807      	ldr	r0, [sp, #28]
10002772:	e04c      	b.n	1000280e <alarm_pool_add_alarm_at+0xf2>
10002774:	1b36      	subs	r6, r6, r4
10002776:	41af      	sbcs	r7, r5
10002778:	2f00      	cmp	r7, #0
1000277a:	db07      	blt.n	1000278c <alarm_pool_add_alarm_at+0x70>
1000277c:	2f00      	cmp	r7, #0
1000277e:	da11      	bge.n	100027a4 <alarm_pool_add_alarm_at+0x88>
10002780:	4b3c      	ldr	r3, [pc, #240]	; (10002874 <alarm_pool_add_alarm_at+0x158>)
10002782:	4a3d      	ldr	r2, [pc, #244]	; (10002878 <alarm_pool_add_alarm_at+0x15c>)
10002784:	213f      	movs	r1, #63	; 0x3f
10002786:	483d      	ldr	r0, [pc, #244]	; (1000287c <alarm_pool_add_alarm_at+0x160>)
10002788:	f001 f8b0 	bl	100038ec <__assert_func>
1000278c:	2601      	movs	r6, #1
1000278e:	4276      	negs	r6, r6
10002790:	4f3b      	ldr	r7, [pc, #236]	; (10002880 <alarm_pool_add_alarm_at+0x164>)
10002792:	e7f3      	b.n	1000277c <alarm_pool_add_alarm_at+0x60>
10002794:	4b37      	ldr	r3, [pc, #220]	; (10002874 <alarm_pool_add_alarm_at+0x158>)
10002796:	4a38      	ldr	r2, [pc, #224]	; (10002878 <alarm_pool_add_alarm_at+0x15c>)
10002798:	213f      	movs	r1, #63	; 0x3f
1000279a:	4838      	ldr	r0, [pc, #224]	; (1000287c <alarm_pool_add_alarm_at+0x160>)
1000279c:	f001 f8a6 	bl	100038ec <__assert_func>
100027a0:	2f00      	cmp	r7, #0
100027a2:	db4f      	blt.n	10002844 <alarm_pool_add_alarm_at+0x128>
100027a4:	4643      	mov	r3, r8
100027a6:	685a      	ldr	r2, [r3, #4]
100027a8:	f3ef 8410 	mrs	r4, PRIMASK
100027ac:	b672      	cpsid	i
100027ae:	6813      	ldr	r3, [r2, #0]
100027b0:	4259      	negs	r1, r3
100027b2:	414b      	adcs	r3, r1
100027b4:	b2d9      	uxtb	r1, r3
100027b6:	9107      	str	r1, [sp, #28]
100027b8:	2b00      	cmp	r3, #0
100027ba:	d1f8      	bne.n	100027ae <alarm_pool_add_alarm_at+0x92>
100027bc:	f3bf 8f5f 	dmb	sy
100027c0:	331f      	adds	r3, #31
100027c2:	aa02      	add	r2, sp, #8
100027c4:	4694      	mov	ip, r2
100027c6:	4463      	add	r3, ip
100027c8:	9304      	str	r3, [sp, #16]
100027ca:	2300      	movs	r3, #0
100027cc:	9303      	str	r3, [sp, #12]
100027ce:	9302      	str	r3, [sp, #8]
100027d0:	464b      	mov	r3, r9
100027d2:	9301      	str	r3, [sp, #4]
100027d4:	4653      	mov	r3, sl
100027d6:	9300      	str	r3, [sp, #0]
100027d8:	0032      	movs	r2, r6
100027da:	003b      	movs	r3, r7
100027dc:	4640      	mov	r0, r8
100027de:	f7ff fd0f 	bl	10002200 <add_alarm_under_lock>
100027e2:	1e03      	subs	r3, r0, #0
100027e4:	d1b2      	bne.n	1000274c <alarm_pool_add_alarm_at+0x30>
100027e6:	0002      	movs	r2, r0
100027e8:	4641      	mov	r1, r8
100027ea:	6849      	ldr	r1, [r1, #4]
100027ec:	f3bf 8f5f 	dmb	sy
100027f0:	2500      	movs	r5, #0
100027f2:	600d      	str	r5, [r1, #0]
100027f4:	f384 8810 	msr	PRIMASK, r4
100027f8:	2b00      	cmp	r3, #0
100027fa:	d029      	beq.n	10002850 <alarm_pool_add_alarm_at+0x134>
100027fc:	231f      	movs	r3, #31
100027fe:	a902      	add	r1, sp, #8
10002800:	468c      	mov	ip, r1
10002802:	4463      	add	r3, ip
10002804:	781b      	ldrb	r3, [r3, #0]
10002806:	2b00      	cmp	r3, #0
10002808:	d1b2      	bne.n	10002770 <alarm_pool_add_alarm_at+0x54>
1000280a:	0212      	lsls	r2, r2, #8
1000280c:	4310      	orrs	r0, r2
1000280e:	2b00      	cmp	r3, #0
10002810:	d020      	beq.n	10002854 <alarm_pool_add_alarm_at+0x138>
10002812:	465b      	mov	r3, fp
10002814:	2b00      	cmp	r3, #0
10002816:	d01d      	beq.n	10002854 <alarm_pool_add_alarm_at+0x138>
10002818:	4649      	mov	r1, r9
1000281a:	47d0      	blx	sl
1000281c:	0004      	movs	r4, r0
1000281e:	000d      	movs	r5, r1
10002820:	0003      	movs	r3, r0
10002822:	430b      	orrs	r3, r1
10002824:	d01d      	beq.n	10002862 <alarm_pool_add_alarm_at+0x146>
10002826:	2900      	cmp	r1, #0
10002828:	dba4      	blt.n	10002774 <alarm_pool_add_alarm_at+0x58>
1000282a:	f000 fa07 	bl	10002c3c <time_us_64>
1000282e:	0006      	movs	r6, r0
10002830:	1e0f      	subs	r7, r1, #0
10002832:	dbaf      	blt.n	10002794 <alarm_pool_add_alarm_at+0x78>
10002834:	1936      	adds	r6, r6, r4
10002836:	416f      	adcs	r7, r5
10002838:	2f00      	cmp	r7, #0
1000283a:	dab1      	bge.n	100027a0 <alarm_pool_add_alarm_at+0x84>
1000283c:	2601      	movs	r6, #1
1000283e:	4276      	negs	r6, r6
10002840:	4f0f      	ldr	r7, [pc, #60]	; (10002880 <alarm_pool_add_alarm_at+0x164>)
10002842:	e7ad      	b.n	100027a0 <alarm_pool_add_alarm_at+0x84>
10002844:	4b0b      	ldr	r3, [pc, #44]	; (10002874 <alarm_pool_add_alarm_at+0x158>)
10002846:	4a0c      	ldr	r2, [pc, #48]	; (10002878 <alarm_pool_add_alarm_at+0x15c>)
10002848:	213f      	movs	r1, #63	; 0x3f
1000284a:	480c      	ldr	r0, [pc, #48]	; (1000287c <alarm_pool_add_alarm_at+0x160>)
1000284c:	f001 f84e 	bl	100038ec <__assert_func>
10002850:	2001      	movs	r0, #1
10002852:	4240      	negs	r0, r0
10002854:	b00b      	add	sp, #44	; 0x2c
10002856:	bcf0      	pop	{r4, r5, r6, r7}
10002858:	46bb      	mov	fp, r7
1000285a:	46b2      	mov	sl, r6
1000285c:	46a9      	mov	r9, r5
1000285e:	46a0      	mov	r8, r4
10002860:	bdf0      	pop	{r4, r5, r6, r7, pc}
10002862:	9807      	ldr	r0, [sp, #28]
10002864:	e7f6      	b.n	10002854 <alarm_pool_add_alarm_at+0x138>
10002866:	46c0      	nop			; (mov r8, r8)
10002868:	10009d8c 	.word	0x10009d8c
1000286c:	1000a030 	.word	0x1000a030
10002870:	10009d38 	.word	0x10009d38
10002874:	10009c30 	.word	0x10009c30
10002878:	10009fd8 	.word	0x10009fd8
1000287c:	10009c4c 	.word	0x10009c4c
10002880:	7fffffff 	.word	0x7fffffff

10002884 <alarm_pool_cancel_alarm>:
10002884:	b5f8      	push	{r3, r4, r5, r6, r7, lr}
10002886:	0004      	movs	r4, r0
10002888:	2900      	cmp	r1, #0
1000288a:	d100      	bne.n	1000288e <alarm_pool_cancel_alarm+0xa>
1000288c:	e062      	b.n	10002954 <alarm_pool_cancel_alarm+0xd0>
1000288e:	6842      	ldr	r2, [r0, #4]
10002890:	f3ef 8510 	mrs	r5, PRIMASK
10002894:	b672      	cpsid	i
10002896:	6813      	ldr	r3, [r2, #0]
10002898:	4258      	negs	r0, r3
1000289a:	4143      	adcs	r3, r0
1000289c:	b2d8      	uxtb	r0, r3
1000289e:	2b00      	cmp	r3, #0
100028a0:	d1f9      	bne.n	10002896 <alarm_pool_cancel_alarm+0x12>
100028a2:	f3bf 8f5f 	dmb	sy
100028a6:	b2cb      	uxtb	r3, r1
100028a8:	6822      	ldr	r2, [r4, #0]
100028aa:	7b56      	ldrb	r6, [r2, #13]
100028ac:	42b3      	cmp	r3, r6
100028ae:	d11b      	bne.n	100028e8 <alarm_pool_cancel_alarm+0x64>
100028b0:	2001      	movs	r0, #1
100028b2:	2800      	cmp	r0, #0
100028b4:	d048      	beq.n	10002948 <alarm_pool_cancel_alarm+0xc4>
100028b6:	6920      	ldr	r0, [r4, #16]
100028b8:	4288      	cmp	r0, r1
100028ba:	d02b      	beq.n	10002914 <alarm_pool_cancel_alarm+0x90>
100028bc:	0a09      	lsrs	r1, r1, #8
100028be:	b2c9      	uxtb	r1, r1
100028c0:	2b00      	cmp	r3, #0
100028c2:	d02e      	beq.n	10002922 <alarm_pool_cancel_alarm+0x9e>
100028c4:	6820      	ldr	r0, [r4, #0]
100028c6:	7b00      	ldrb	r0, [r0, #12]
100028c8:	4283      	cmp	r3, r0
100028ca:	d82a      	bhi.n	10002922 <alarm_pool_cancel_alarm+0x9e>
100028cc:	1e58      	subs	r0, r3, #1
100028ce:	68e6      	ldr	r6, [r4, #12]
100028d0:	5c30      	ldrb	r0, [r6, r0]
100028d2:	4288      	cmp	r0, r1
100028d4:	d02b      	beq.n	1000292e <alarm_pool_cancel_alarm+0xaa>
100028d6:	2000      	movs	r0, #0
100028d8:	6863      	ldr	r3, [r4, #4]
100028da:	f3bf 8f5f 	dmb	sy
100028de:	2200      	movs	r2, #0
100028e0:	601a      	str	r2, [r3, #0]
100028e2:	f385 8810 	msr	PRIMASK, r5
100028e6:	bdf8      	pop	{r3, r4, r5, r6, r7, pc}
100028e8:	2b00      	cmp	r3, #0
100028ea:	d00d      	beq.n	10002908 <alarm_pool_cancel_alarm+0x84>
100028ec:	7b16      	ldrb	r6, [r2, #12]
100028ee:	42b3      	cmp	r3, r6
100028f0:	d80a      	bhi.n	10002908 <alarm_pool_cancel_alarm+0x84>
100028f2:	005e      	lsls	r6, r3, #1
100028f4:	18f6      	adds	r6, r6, r3
100028f6:	3e03      	subs	r6, #3
100028f8:	6817      	ldr	r7, [r2, #0]
100028fa:	46bc      	mov	ip, r7
100028fc:	4466      	add	r6, ip
100028fe:	78b6      	ldrb	r6, [r6, #2]
10002900:	2e00      	cmp	r6, #0
10002902:	d0d6      	beq.n	100028b2 <alarm_pool_cancel_alarm+0x2e>
10002904:	2001      	movs	r0, #1
10002906:	e7d4      	b.n	100028b2 <alarm_pool_cancel_alarm+0x2e>
10002908:	4b13      	ldr	r3, [pc, #76]	; (10002958 <alarm_pool_cancel_alarm+0xd4>)
1000290a:	4a14      	ldr	r2, [pc, #80]	; (1000295c <alarm_pool_cancel_alarm+0xd8>)
1000290c:	2168      	movs	r1, #104	; 0x68
1000290e:	4814      	ldr	r0, [pc, #80]	; (10002960 <alarm_pool_cancel_alarm+0xdc>)
10002910:	f000 ffec 	bl	100038ec <__assert_func>
10002914:	212c      	movs	r1, #44	; 0x2c
10002916:	4b13      	ldr	r3, [pc, #76]	; (10002964 <alarm_pool_cancel_alarm+0xe0>)
10002918:	4a13      	ldr	r2, [pc, #76]	; (10002968 <alarm_pool_cancel_alarm+0xe4>)
1000291a:	31ff      	adds	r1, #255	; 0xff
1000291c:	4813      	ldr	r0, [pc, #76]	; (1000296c <alarm_pool_cancel_alarm+0xe8>)
1000291e:	f000 ffe5 	bl	100038ec <__assert_func>
10002922:	4b13      	ldr	r3, [pc, #76]	; (10002970 <alarm_pool_cancel_alarm+0xec>)
10002924:	4a13      	ldr	r2, [pc, #76]	; (10002974 <alarm_pool_cancel_alarm+0xf0>)
10002926:	2141      	movs	r1, #65	; 0x41
10002928:	4810      	ldr	r0, [pc, #64]	; (1000296c <alarm_pool_cancel_alarm+0xe8>)
1000292a:	f000 ffdf 	bl	100038ec <__assert_func>
1000292e:	0019      	movs	r1, r3
10002930:	0010      	movs	r0, r2
10002932:	f000 fc47 	bl	100031c4 <ph_remove_and_free_node>
10002936:	2800      	cmp	r0, #0
10002938:	d1ce      	bne.n	100028d8 <alarm_pool_cancel_alarm+0x54>
1000293a:	2199      	movs	r1, #153	; 0x99
1000293c:	4b0e      	ldr	r3, [pc, #56]	; (10002978 <alarm_pool_cancel_alarm+0xf4>)
1000293e:	4a0a      	ldr	r2, [pc, #40]	; (10002968 <alarm_pool_cancel_alarm+0xe4>)
10002940:	0049      	lsls	r1, r1, #1
10002942:	480a      	ldr	r0, [pc, #40]	; (1000296c <alarm_pool_cancel_alarm+0xe8>)
10002944:	f000 ffd2 	bl	100038ec <__assert_func>
10002948:	6923      	ldr	r3, [r4, #16]
1000294a:	428b      	cmp	r3, r1
1000294c:	d1c4      	bne.n	100028d8 <alarm_pool_cancel_alarm+0x54>
1000294e:	2300      	movs	r3, #0
10002950:	6123      	str	r3, [r4, #16]
10002952:	e7c1      	b.n	100028d8 <alarm_pool_cancel_alarm+0x54>
10002954:	2000      	movs	r0, #0
10002956:	e7c6      	b.n	100028e6 <alarm_pool_cancel_alarm+0x62>
10002958:	10009db0 	.word	0x10009db0
1000295c:	1000a078 	.word	0x1000a078
10002960:	10009dcc 	.word	0x10009dcc
10002964:	10009f48 	.word	0x10009f48
10002968:	10009fc0 	.word	0x10009fc0
1000296c:	10009d38 	.word	0x10009d38
10002970:	10009d8c 	.word	0x10009d8c
10002974:	1000a030 	.word	0x1000a030
10002978:	10009f6c 	.word	0x10009f6c

1000297c <alarm_pool_core_num>:
1000297c:	7d40      	ldrb	r0, [r0, #21]
1000297e:	4770      	bx	lr

10002980 <sleep_until>:
10002980:	b5f0      	push	{r4, r5, r6, r7, lr}
10002982:	b087      	sub	sp, #28
10002984:	0006      	movs	r6, r0
10002986:	000f      	movs	r7, r1
10002988:	f3ef 8305 	mrs	r3, IPSR
1000298c:	2b00      	cmp	r3, #0
1000298e:	d11f      	bne.n	100029d0 <sleep_until+0x50>
10002990:	2406      	movs	r4, #6
10002992:	4264      	negs	r4, r4
10002994:	17e5      	asrs	r5, r4, #31
10002996:	19a4      	adds	r4, r4, r6
10002998:	417d      	adcs	r5, r7
1000299a:	428d      	cmp	r5, r1
1000299c:	d802      	bhi.n	100029a4 <sleep_until+0x24>
1000299e:	d103      	bne.n	100029a8 <sleep_until+0x28>
100029a0:	4284      	cmp	r4, r0
100029a2:	d901      	bls.n	100029a8 <sleep_until+0x28>
100029a4:	2400      	movs	r4, #0
100029a6:	2500      	movs	r5, #0
100029a8:	2d00      	cmp	r5, #0
100029aa:	db14      	blt.n	100029d6 <sleep_until+0x56>
100029ac:	9404      	str	r4, [sp, #16]
100029ae:	9505      	str	r5, [sp, #20]
100029b0:	f000 f944 	bl	10002c3c <time_us_64>
100029b4:	0002      	movs	r2, r0
100029b6:	1e0b      	subs	r3, r1, #0
100029b8:	db13      	blt.n	100029e2 <sleep_until+0x62>
100029ba:	1aa4      	subs	r4, r4, r2
100029bc:	419d      	sbcs	r5, r3
100029be:	2d00      	cmp	r5, #0
100029c0:	dc17      	bgt.n	100029f2 <sleep_until+0x72>
100029c2:	d014      	beq.n	100029ee <sleep_until+0x6e>
100029c4:	0030      	movs	r0, r6
100029c6:	0039      	movs	r1, r7
100029c8:	f000 f944 	bl	10002c54 <busy_wait_until>
100029cc:	b007      	add	sp, #28
100029ce:	bdf0      	pop	{r4, r5, r6, r7, pc}
100029d0:	4823      	ldr	r0, [pc, #140]	; (10002a60 <sleep_until+0xe0>)
100029d2:	f001 f825 	bl	10003a20 <panic>
100029d6:	4b23      	ldr	r3, [pc, #140]	; (10002a64 <sleep_until+0xe4>)
100029d8:	4a23      	ldr	r2, [pc, #140]	; (10002a68 <sleep_until+0xe8>)
100029da:	213f      	movs	r1, #63	; 0x3f
100029dc:	4823      	ldr	r0, [pc, #140]	; (10002a6c <sleep_until+0xec>)
100029de:	f000 ff85 	bl	100038ec <__assert_func>
100029e2:	4b20      	ldr	r3, [pc, #128]	; (10002a64 <sleep_until+0xe4>)
100029e4:	4a20      	ldr	r2, [pc, #128]	; (10002a68 <sleep_until+0xe8>)
100029e6:	213f      	movs	r1, #63	; 0x3f
100029e8:	4820      	ldr	r0, [pc, #128]	; (10002a6c <sleep_until+0xec>)
100029ea:	f000 ff7f 	bl	100038ec <__assert_func>
100029ee:	2c00      	cmp	r4, #0
100029f0:	d0e8      	beq.n	100029c4 <sleep_until+0x44>
100029f2:	f7ff fe7d 	bl	100026f0 <alarm_pool_get_default>
100029f6:	2300      	movs	r3, #0
100029f8:	9302      	str	r3, [sp, #8]
100029fa:	9301      	str	r3, [sp, #4]
100029fc:	4b1c      	ldr	r3, [pc, #112]	; (10002a70 <sleep_until+0xf0>)
100029fe:	9300      	str	r3, [sp, #0]
10002a00:	9a04      	ldr	r2, [sp, #16]
10002a02:	9b05      	ldr	r3, [sp, #20]
10002a04:	f7ff fe8a 	bl	1000271c <alarm_pool_add_alarm_at>
10002a08:	2800      	cmp	r0, #0
10002a0a:	da18      	bge.n	10002a3e <sleep_until+0xbe>
10002a0c:	e7da      	b.n	100029c4 <sleep_until+0x44>
10002a0e:	2300      	movs	r3, #0
10002a10:	e000      	b.n	10002a14 <sleep_until+0x94>
10002a12:	2300      	movs	r3, #0
10002a14:	2b00      	cmp	r3, #0
10002a16:	d1d5      	bne.n	100029c4 <sleep_until+0x44>
10002a18:	4b16      	ldr	r3, [pc, #88]	; (10002a74 <sleep_until+0xf4>)
10002a1a:	681a      	ldr	r2, [r3, #0]
10002a1c:	f3ef 8110 	mrs	r1, PRIMASK
10002a20:	b672      	cpsid	i
10002a22:	6813      	ldr	r3, [r2, #0]
10002a24:	2b00      	cmp	r3, #0
10002a26:	d0fc      	beq.n	10002a22 <sleep_until+0xa2>
10002a28:	f3bf 8f5f 	dmb	sy
10002a2c:	4b11      	ldr	r3, [pc, #68]	; (10002a74 <sleep_until+0xf4>)
10002a2e:	681b      	ldr	r3, [r3, #0]
10002a30:	f3bf 8f5f 	dmb	sy
10002a34:	2200      	movs	r2, #0
10002a36:	601a      	str	r2, [r3, #0]
10002a38:	f381 8810 	msr	PRIMASK, r1
10002a3c:	bf20      	wfe
10002a3e:	9904      	ldr	r1, [sp, #16]
10002a40:	9a05      	ldr	r2, [sp, #20]
10002a42:	4b0d      	ldr	r3, [pc, #52]	; (10002a78 <sleep_until+0xf8>)
10002a44:	6a5b      	ldr	r3, [r3, #36]	; 0x24
10002a46:	429a      	cmp	r2, r3
10002a48:	d8e3      	bhi.n	10002a12 <sleep_until+0x92>
10002a4a:	480b      	ldr	r0, [pc, #44]	; (10002a78 <sleep_until+0xf8>)
10002a4c:	6a80      	ldr	r0, [r0, #40]	; 0x28
10002a4e:	4288      	cmp	r0, r1
10002a50:	d203      	bcs.n	10002a5a <sleep_until+0xda>
10002a52:	429a      	cmp	r2, r3
10002a54:	d0db      	beq.n	10002a0e <sleep_until+0x8e>
10002a56:	2301      	movs	r3, #1
10002a58:	e7dc      	b.n	10002a14 <sleep_until+0x94>
10002a5a:	2301      	movs	r3, #1
10002a5c:	e7da      	b.n	10002a14 <sleep_until+0x94>
10002a5e:	46c0      	nop			; (mov r8, r8)
10002a60:	10009f70 	.word	0x10009f70
10002a64:	10009c30 	.word	0x10009c30
10002a68:	10009fd8 	.word	0x10009fd8
10002a6c:	10009c4c 	.word	0x10009c4c
10002a70:	10002071 	.word	0x10002071
10002a74:	20002554 	.word	0x20002554
10002a78:	40054000 	.word	0x40054000

10002a7c <sleep_us>:
10002a7c:	b570      	push	{r4, r5, r6, lr}
10002a7e:	0004      	movs	r4, r0
10002a80:	000d      	movs	r5, r1
10002a82:	f000 f8db 	bl	10002c3c <time_us_64>
10002a86:	0002      	movs	r2, r0
10002a88:	1e0b      	subs	r3, r1, #0
10002a8a:	db0a      	blt.n	10002aa2 <sleep_us+0x26>
10002a8c:	0020      	movs	r0, r4
10002a8e:	0029      	movs	r1, r5
10002a90:	1880      	adds	r0, r0, r2
10002a92:	4159      	adcs	r1, r3
10002a94:	2900      	cmp	r1, #0
10002a96:	db0a      	blt.n	10002aae <sleep_us+0x32>
10002a98:	2900      	cmp	r1, #0
10002a9a:	db0c      	blt.n	10002ab6 <sleep_us+0x3a>
10002a9c:	f7ff ff70 	bl	10002980 <sleep_until>
10002aa0:	bd70      	pop	{r4, r5, r6, pc}
10002aa2:	4b08      	ldr	r3, [pc, #32]	; (10002ac4 <sleep_us+0x48>)
10002aa4:	4a08      	ldr	r2, [pc, #32]	; (10002ac8 <sleep_us+0x4c>)
10002aa6:	213f      	movs	r1, #63	; 0x3f
10002aa8:	4808      	ldr	r0, [pc, #32]	; (10002acc <sleep_us+0x50>)
10002aaa:	f000 ff1f 	bl	100038ec <__assert_func>
10002aae:	2001      	movs	r0, #1
10002ab0:	4240      	negs	r0, r0
10002ab2:	4907      	ldr	r1, [pc, #28]	; (10002ad0 <sleep_us+0x54>)
10002ab4:	e7f0      	b.n	10002a98 <sleep_us+0x1c>
10002ab6:	4b03      	ldr	r3, [pc, #12]	; (10002ac4 <sleep_us+0x48>)
10002ab8:	4a03      	ldr	r2, [pc, #12]	; (10002ac8 <sleep_us+0x4c>)
10002aba:	213f      	movs	r1, #63	; 0x3f
10002abc:	4803      	ldr	r0, [pc, #12]	; (10002acc <sleep_us+0x50>)
10002abe:	f000 ff15 	bl	100038ec <__assert_func>
10002ac2:	46c0      	nop			; (mov r8, r8)
10002ac4:	10009c30 	.word	0x10009c30
10002ac8:	10009fd8 	.word	0x10009fd8
10002acc:	10009c4c 	.word	0x10009c4c
10002ad0:	7fffffff 	.word	0x7fffffff

10002ad4 <sleep_ms>:
10002ad4:	b510      	push	{r4, lr}
10002ad6:	22fa      	movs	r2, #250	; 0xfa
10002ad8:	0092      	lsls	r2, r2, #2
10002ada:	2300      	movs	r3, #0
10002adc:	2100      	movs	r1, #0
10002ade:	f002 ff29 	bl	10005934 <__wrap___aeabi_lmul>
10002ae2:	f7ff ffcb 	bl	10002a7c <sleep_us>
10002ae6:	bd10      	pop	{r4, pc}

10002ae8 <best_effort_wfe_or_timeout>:
10002ae8:	b570      	push	{r4, r5, r6, lr}
10002aea:	b084      	sub	sp, #16
10002aec:	0005      	movs	r5, r0
10002aee:	000c      	movs	r4, r1
10002af0:	f3ef 8305 	mrs	r3, IPSR
10002af4:	2b00      	cmp	r3, #0
10002af6:	d11e      	bne.n	10002b36 <best_effort_wfe_or_timeout+0x4e>
10002af8:	f7ff fdfa 	bl	100026f0 <alarm_pool_get_default>
10002afc:	2300      	movs	r3, #0
10002afe:	9302      	str	r3, [sp, #8]
10002b00:	9301      	str	r3, [sp, #4]
10002b02:	4b22      	ldr	r3, [pc, #136]	; (10002b8c <best_effort_wfe_or_timeout+0xa4>)
10002b04:	9300      	str	r3, [sp, #0]
10002b06:	002a      	movs	r2, r5
10002b08:	0023      	movs	r3, r4
10002b0a:	f7ff fe07 	bl	1000271c <alarm_pool_add_alarm_at>
10002b0e:	1e06      	subs	r6, r0, #0
10002b10:	dd23      	ble.n	10002b5a <best_effort_wfe_or_timeout+0x72>
10002b12:	bf20      	wfe
10002b14:	f7ff fdec 	bl	100026f0 <alarm_pool_get_default>
10002b18:	0031      	movs	r1, r6
10002b1a:	f7ff feb3 	bl	10002884 <alarm_pool_cancel_alarm>
10002b1e:	4b1c      	ldr	r3, [pc, #112]	; (10002b90 <best_effort_wfe_or_timeout+0xa8>)
10002b20:	6a5b      	ldr	r3, [r3, #36]	; 0x24
10002b22:	429c      	cmp	r4, r3
10002b24:	d82d      	bhi.n	10002b82 <best_effort_wfe_or_timeout+0x9a>
10002b26:	4a1a      	ldr	r2, [pc, #104]	; (10002b90 <best_effort_wfe_or_timeout+0xa8>)
10002b28:	6a92      	ldr	r2, [r2, #40]	; 0x28
10002b2a:	42aa      	cmp	r2, r5
10002b2c:	d22c      	bcs.n	10002b88 <best_effort_wfe_or_timeout+0xa0>
10002b2e:	429c      	cmp	r4, r3
10002b30:	d025      	beq.n	10002b7e <best_effort_wfe_or_timeout+0x96>
10002b32:	2001      	movs	r0, #1
10002b34:	e026      	b.n	10002b84 <best_effort_wfe_or_timeout+0x9c>
10002b36:	4b16      	ldr	r3, [pc, #88]	; (10002b90 <best_effort_wfe_or_timeout+0xa8>)
10002b38:	6a5b      	ldr	r3, [r3, #36]	; 0x24
10002b3a:	4299      	cmp	r1, r3
10002b3c:	d809      	bhi.n	10002b52 <best_effort_wfe_or_timeout+0x6a>
10002b3e:	4a14      	ldr	r2, [pc, #80]	; (10002b90 <best_effort_wfe_or_timeout+0xa8>)
10002b40:	6a92      	ldr	r2, [r2, #40]	; 0x28
10002b42:	4282      	cmp	r2, r0
10002b44:	d207      	bcs.n	10002b56 <best_effort_wfe_or_timeout+0x6e>
10002b46:	4299      	cmp	r1, r3
10002b48:	d001      	beq.n	10002b4e <best_effort_wfe_or_timeout+0x66>
10002b4a:	2001      	movs	r0, #1
10002b4c:	e01a      	b.n	10002b84 <best_effort_wfe_or_timeout+0x9c>
10002b4e:	2000      	movs	r0, #0
10002b50:	e018      	b.n	10002b84 <best_effort_wfe_or_timeout+0x9c>
10002b52:	2000      	movs	r0, #0
10002b54:	e016      	b.n	10002b84 <best_effort_wfe_or_timeout+0x9c>
10002b56:	2001      	movs	r0, #1
10002b58:	e014      	b.n	10002b84 <best_effort_wfe_or_timeout+0x9c>
10002b5a:	4b0d      	ldr	r3, [pc, #52]	; (10002b90 <best_effort_wfe_or_timeout+0xa8>)
10002b5c:	6a5b      	ldr	r3, [r3, #36]	; 0x24
10002b5e:	429c      	cmp	r4, r3
10002b60:	d809      	bhi.n	10002b76 <best_effort_wfe_or_timeout+0x8e>
10002b62:	4a0b      	ldr	r2, [pc, #44]	; (10002b90 <best_effort_wfe_or_timeout+0xa8>)
10002b64:	6a92      	ldr	r2, [r2, #40]	; 0x28
10002b66:	42aa      	cmp	r2, r5
10002b68:	d207      	bcs.n	10002b7a <best_effort_wfe_or_timeout+0x92>
10002b6a:	429c      	cmp	r4, r3
10002b6c:	d001      	beq.n	10002b72 <best_effort_wfe_or_timeout+0x8a>
10002b6e:	2001      	movs	r0, #1
10002b70:	e008      	b.n	10002b84 <best_effort_wfe_or_timeout+0x9c>
10002b72:	2000      	movs	r0, #0
10002b74:	e006      	b.n	10002b84 <best_effort_wfe_or_timeout+0x9c>
10002b76:	2000      	movs	r0, #0
10002b78:	e004      	b.n	10002b84 <best_effort_wfe_or_timeout+0x9c>
10002b7a:	2001      	movs	r0, #1
10002b7c:	e002      	b.n	10002b84 <best_effort_wfe_or_timeout+0x9c>
10002b7e:	2000      	movs	r0, #0
10002b80:	e000      	b.n	10002b84 <best_effort_wfe_or_timeout+0x9c>
10002b82:	2000      	movs	r0, #0
10002b84:	b004      	add	sp, #16
10002b86:	bd70      	pop	{r4, r5, r6, pc}
10002b88:	2001      	movs	r0, #1
10002b8a:	e7fb      	b.n	10002b84 <best_effort_wfe_or_timeout+0x9c>
10002b8c:	10002071 	.word	0x10002071
10002b90:	40054000 	.word	0x40054000

10002b94 <hardware_alarm_irq_handler>:
10002b94:	b570      	push	{r4, r5, r6, lr}
10002b96:	f3ef 8005 	mrs	r0, IPSR
10002b9a:	3810      	subs	r0, #16
10002b9c:	f3ef 8c10 	mrs	ip, PRIMASK
10002ba0:	b672      	cpsid	i
10002ba2:	4b1a      	ldr	r3, [pc, #104]	; (10002c0c <hardware_alarm_irq_handler+0x78>)
10002ba4:	681b      	ldr	r3, [r3, #0]
10002ba6:	2b00      	cmp	r3, #0
10002ba8:	d0fb      	beq.n	10002ba2 <hardware_alarm_irq_handler+0xe>
10002baa:	f3bf 8f5f 	dmb	sy
10002bae:	2201      	movs	r2, #1
10002bb0:	0013      	movs	r3, r2
10002bb2:	4083      	lsls	r3, r0
10002bb4:	4916      	ldr	r1, [pc, #88]	; (10002c10 <hardware_alarm_irq_handler+0x7c>)
10002bb6:	634b      	str	r3, [r1, #52]	; 0x34
10002bb8:	4916      	ldr	r1, [pc, #88]	; (10002c14 <hardware_alarm_irq_handler+0x80>)
10002bba:	600b      	str	r3, [r1, #0]
10002bbc:	4916      	ldr	r1, [pc, #88]	; (10002c18 <hardware_alarm_irq_handler+0x84>)
10002bbe:	7809      	ldrb	r1, [r1, #0]
10002bc0:	000c      	movs	r4, r1
10002bc2:	40c4      	lsrs	r4, r0
10002bc4:	4222      	tst	r2, r4
10002bc6:	d014      	beq.n	10002bf2 <hardware_alarm_irq_handler+0x5e>
10002bc8:	4a11      	ldr	r2, [pc, #68]	; (10002c10 <hardware_alarm_irq_handler+0x7c>)
10002bca:	6a54      	ldr	r4, [r2, #36]	; 0x24
10002bcc:	0082      	lsls	r2, r0, #2
10002bce:	4d13      	ldr	r5, [pc, #76]	; (10002c1c <hardware_alarm_irq_handler+0x88>)
10002bd0:	5952      	ldr	r2, [r2, r5]
10002bd2:	4294      	cmp	r4, r2
10002bd4:	d306      	bcc.n	10002be4 <hardware_alarm_irq_handler+0x50>
10002bd6:	0082      	lsls	r2, r0, #2
10002bd8:	4c11      	ldr	r4, [pc, #68]	; (10002c20 <hardware_alarm_irq_handler+0x8c>)
10002bda:	5912      	ldr	r2, [r2, r4]
10002bdc:	4399      	bics	r1, r3
10002bde:	4b0e      	ldr	r3, [pc, #56]	; (10002c18 <hardware_alarm_irq_handler+0x84>)
10002be0:	7019      	strb	r1, [r3, #0]
10002be2:	e007      	b.n	10002bf4 <hardware_alarm_irq_handler+0x60>
10002be4:	4a0a      	ldr	r2, [pc, #40]	; (10002c10 <hardware_alarm_irq_handler+0x7c>)
10002be6:	1d03      	adds	r3, r0, #4
10002be8:	009b      	lsls	r3, r3, #2
10002bea:	5899      	ldr	r1, [r3, r2]
10002bec:	5099      	str	r1, [r3, r2]
10002bee:	2200      	movs	r2, #0
10002bf0:	e000      	b.n	10002bf4 <hardware_alarm_irq_handler+0x60>
10002bf2:	2200      	movs	r2, #0
10002bf4:	f3bf 8f5f 	dmb	sy
10002bf8:	4b04      	ldr	r3, [pc, #16]	; (10002c0c <hardware_alarm_irq_handler+0x78>)
10002bfa:	2100      	movs	r1, #0
10002bfc:	6019      	str	r1, [r3, #0]
10002bfe:	f38c 8810 	msr	PRIMASK, ip
10002c02:	2a00      	cmp	r2, #0
10002c04:	d000      	beq.n	10002c08 <hardware_alarm_irq_handler+0x74>
10002c06:	4790      	blx	r2
10002c08:	bd70      	pop	{r4, r5, r6, pc}
10002c0a:	46c0      	nop			; (mov r8, r8)
10002c0c:	d0000128 	.word	0xd0000128
10002c10:	40054000 	.word	0x40054000
10002c14:	4005703c 	.word	0x4005703c
10002c18:	20002593 	.word	0x20002593
10002c1c:	20002560 	.word	0x20002560
10002c20:	20001ca8 	.word	0x20001ca8

10002c24 <hardware_alarm_claim>:
10002c24:	b510      	push	{r4, lr}
10002c26:	0001      	movs	r1, r0
10002c28:	4a02      	ldr	r2, [pc, #8]	; (10002c34 <hardware_alarm_claim+0x10>)
10002c2a:	4803      	ldr	r0, [pc, #12]	; (10002c38 <hardware_alarm_claim+0x14>)
10002c2c:	f7fe fdf6 	bl	1000181c <hw_claim_or_assert>
10002c30:	bd10      	pop	{r4, pc}
10002c32:	46c0      	nop			; (mov r8, r8)
10002c34:	1000a09c 	.word	0x1000a09c
10002c38:	2000258d 	.word	0x2000258d

10002c3c <time_us_64>:
10002c3c:	4b04      	ldr	r3, [pc, #16]	; (10002c50 <time_us_64+0x14>)
10002c3e:	6a5b      	ldr	r3, [r3, #36]	; 0x24
10002c40:	4a03      	ldr	r2, [pc, #12]	; (10002c50 <time_us_64+0x14>)
10002c42:	6a90      	ldr	r0, [r2, #40]	; 0x28
10002c44:	0019      	movs	r1, r3
10002c46:	6a53      	ldr	r3, [r2, #36]	; 0x24
10002c48:	4299      	cmp	r1, r3
10002c4a:	d1f9      	bne.n	10002c40 <time_us_64+0x4>
10002c4c:	4770      	bx	lr
10002c4e:	46c0      	nop			; (mov r8, r8)
10002c50:	40054000 	.word	0x40054000

10002c54 <busy_wait_until>:
10002c54:	4b08      	ldr	r3, [pc, #32]	; (10002c78 <busy_wait_until+0x24>)
10002c56:	6a5b      	ldr	r3, [r3, #36]	; 0x24
10002c58:	e001      	b.n	10002c5e <busy_wait_until+0xa>
10002c5a:	4b07      	ldr	r3, [pc, #28]	; (10002c78 <busy_wait_until+0x24>)
10002c5c:	6a5b      	ldr	r3, [r3, #36]	; 0x24
10002c5e:	428b      	cmp	r3, r1
10002c60:	d3fb      	bcc.n	10002c5a <busy_wait_until+0x6>
10002c62:	e001      	b.n	10002c68 <busy_wait_until+0x14>
10002c64:	4b04      	ldr	r3, [pc, #16]	; (10002c78 <busy_wait_until+0x24>)
10002c66:	6a5b      	ldr	r3, [r3, #36]	; 0x24
10002c68:	428b      	cmp	r3, r1
10002c6a:	d103      	bne.n	10002c74 <busy_wait_until+0x20>
10002c6c:	4b02      	ldr	r3, [pc, #8]	; (10002c78 <busy_wait_until+0x24>)
10002c6e:	6a9b      	ldr	r3, [r3, #40]	; 0x28
10002c70:	4283      	cmp	r3, r0
10002c72:	d3f7      	bcc.n	10002c64 <busy_wait_until+0x10>
10002c74:	4770      	bx	lr
10002c76:	46c0      	nop			; (mov r8, r8)
10002c78:	40054000 	.word	0x40054000

10002c7c <busy_wait_us>:
10002c7c:	b570      	push	{r4, r5, r6, lr}
10002c7e:	0004      	movs	r4, r0
10002c80:	000d      	movs	r5, r1
10002c82:	f7ff ffdb 	bl	10002c3c <time_us_64>
10002c86:	0002      	movs	r2, r0
10002c88:	000b      	movs	r3, r1
10002c8a:	0020      	movs	r0, r4
10002c8c:	0029      	movs	r1, r5
10002c8e:	1880      	adds	r0, r0, r2
10002c90:	4159      	adcs	r1, r3
10002c92:	428b      	cmp	r3, r1
10002c94:	d802      	bhi.n	10002c9c <busy_wait_us+0x20>
10002c96:	d104      	bne.n	10002ca2 <busy_wait_us+0x26>
10002c98:	4282      	cmp	r2, r0
10002c9a:	d902      	bls.n	10002ca2 <busy_wait_us+0x26>
10002c9c:	2001      	movs	r0, #1
10002c9e:	4240      	negs	r0, r0
10002ca0:	17c1      	asrs	r1, r0, #31
10002ca2:	2900      	cmp	r1, #0
10002ca4:	db02      	blt.n	10002cac <busy_wait_us+0x30>
10002ca6:	f7ff ffd5 	bl	10002c54 <busy_wait_until>
10002caa:	bd70      	pop	{r4, r5, r6, pc}
10002cac:	4b02      	ldr	r3, [pc, #8]	; (10002cb8 <busy_wait_us+0x3c>)
10002cae:	4a03      	ldr	r2, [pc, #12]	; (10002cbc <busy_wait_us+0x40>)
10002cb0:	213f      	movs	r1, #63	; 0x3f
10002cb2:	4803      	ldr	r0, [pc, #12]	; (10002cc0 <busy_wait_us+0x44>)
10002cb4:	f000 fe1a 	bl	100038ec <__assert_func>
10002cb8:	10009c30 	.word	0x10009c30
10002cbc:	1000a160 	.word	0x1000a160
10002cc0:	10009c4c 	.word	0x10009c4c

10002cc4 <hardware_alarm_set_callback>:
10002cc4:	b570      	push	{r4, r5, r6, lr}
10002cc6:	0004      	movs	r4, r0
10002cc8:	000d      	movs	r5, r1
10002cca:	f3ef 8610 	mrs	r6, PRIMASK
10002cce:	b672      	cpsid	i
10002cd0:	4b1b      	ldr	r3, [pc, #108]	; (10002d40 <hardware_alarm_set_callback+0x7c>)
10002cd2:	681b      	ldr	r3, [r3, #0]
10002cd4:	2b00      	cmp	r3, #0
10002cd6:	d0fb      	beq.n	10002cd0 <hardware_alarm_set_callback+0xc>
10002cd8:	f3bf 8f5f 	dmb	sy
10002cdc:	2d00      	cmp	r5, #0
10002cde:	d01c      	beq.n	10002d1a <hardware_alarm_set_callback+0x56>
10002ce0:	0020      	movs	r0, r4
10002ce2:	f7fe fe8f 	bl	10001a04 <irq_get_vtable_handler>
10002ce6:	4b17      	ldr	r3, [pc, #92]	; (10002d44 <hardware_alarm_set_callback+0x80>)
10002ce8:	4283      	cmp	r3, r0
10002cea:	d00b      	beq.n	10002d04 <hardware_alarm_set_callback+0x40>
10002cec:	0019      	movs	r1, r3
10002cee:	0020      	movs	r0, r4
10002cf0:	f7fe fea2 	bl	10001a38 <irq_set_exclusive_handler>
10002cf4:	2101      	movs	r1, #1
10002cf6:	0020      	movs	r0, r4
10002cf8:	f7fe fe74 	bl	100019e4 <irq_set_enabled>
10002cfc:	2301      	movs	r3, #1
10002cfe:	40a3      	lsls	r3, r4
10002d00:	4a11      	ldr	r2, [pc, #68]	; (10002d48 <hardware_alarm_set_callback+0x84>)
10002d02:	6013      	str	r3, [r2, #0]
10002d04:	00a4      	lsls	r4, r4, #2
10002d06:	4b11      	ldr	r3, [pc, #68]	; (10002d4c <hardware_alarm_set_callback+0x88>)
10002d08:	50e5      	str	r5, [r4, r3]
10002d0a:	f3bf 8f5f 	dmb	sy
10002d0e:	4b0c      	ldr	r3, [pc, #48]	; (10002d40 <hardware_alarm_set_callback+0x7c>)
10002d10:	2200      	movs	r2, #0
10002d12:	601a      	str	r2, [r3, #0]
10002d14:	f386 8810 	msr	PRIMASK, r6
10002d18:	bd70      	pop	{r4, r5, r6, pc}
10002d1a:	00a2      	lsls	r2, r4, #2
10002d1c:	4b0b      	ldr	r3, [pc, #44]	; (10002d4c <hardware_alarm_set_callback+0x88>)
10002d1e:	2100      	movs	r1, #0
10002d20:	50d1      	str	r1, [r2, r3]
10002d22:	2201      	movs	r2, #1
10002d24:	40a2      	lsls	r2, r4
10002d26:	490a      	ldr	r1, [pc, #40]	; (10002d50 <hardware_alarm_set_callback+0x8c>)
10002d28:	780b      	ldrb	r3, [r1, #0]
10002d2a:	4393      	bics	r3, r2
10002d2c:	700b      	strb	r3, [r1, #0]
10002d2e:	4905      	ldr	r1, [pc, #20]	; (10002d44 <hardware_alarm_set_callback+0x80>)
10002d30:	0020      	movs	r0, r4
10002d32:	f7fe ffc5 	bl	10001cc0 <irq_remove_handler>
10002d36:	2100      	movs	r1, #0
10002d38:	0020      	movs	r0, r4
10002d3a:	f7fe fe53 	bl	100019e4 <irq_set_enabled>
10002d3e:	e7e4      	b.n	10002d0a <hardware_alarm_set_callback+0x46>
10002d40:	d0000128 	.word	0xd0000128
10002d44:	10002b95 	.word	0x10002b95
10002d48:	40056038 	.word	0x40056038
10002d4c:	20001ca8 	.word	0x20001ca8
10002d50:	20002593 	.word	0x20002593

10002d54 <hardware_alarm_set_target>:
10002d54:	b5f0      	push	{r4, r5, r6, r7, lr}
10002d56:	46de      	mov	lr, fp
10002d58:	b500      	push	{lr}
10002d5a:	b084      	sub	sp, #16
10002d5c:	0004      	movs	r4, r0
10002d5e:	0015      	movs	r5, r2
10002d60:	9201      	str	r2, [sp, #4]
10002d62:	001e      	movs	r6, r3
10002d64:	9302      	str	r3, [sp, #8]
10002d66:	f7ff ff69 	bl	10002c3c <time_us_64>
10002d6a:	9503      	str	r5, [sp, #12]
10002d6c:	428e      	cmp	r6, r1
10002d6e:	d802      	bhi.n	10002d76 <hardware_alarm_set_target+0x22>
10002d70:	d14e      	bne.n	10002e10 <hardware_alarm_set_target+0xbc>
10002d72:	4285      	cmp	r5, r0
10002d74:	d94c      	bls.n	10002e10 <hardware_alarm_set_target+0xbc>
10002d76:	f3ef 8b10 	mrs	fp, PRIMASK
10002d7a:	b672      	cpsid	i
10002d7c:	4b27      	ldr	r3, [pc, #156]	; (10002e1c <hardware_alarm_set_target+0xc8>)
10002d7e:	681b      	ldr	r3, [r3, #0]
10002d80:	2b00      	cmp	r3, #0
10002d82:	d0fb      	beq.n	10002d7c <hardware_alarm_set_target+0x28>
10002d84:	f3bf 8f5f 	dmb	sy
10002d88:	4a25      	ldr	r2, [pc, #148]	; (10002e20 <hardware_alarm_set_target+0xcc>)
10002d8a:	7817      	ldrb	r7, [r2, #0]
10002d8c:	2501      	movs	r5, #1
10002d8e:	40a5      	lsls	r5, r4
10002d90:	b2eb      	uxtb	r3, r5
10002d92:	433b      	orrs	r3, r7
10002d94:	7013      	strb	r3, [r2, #0]
10002d96:	4b23      	ldr	r3, [pc, #140]	; (10002e24 <hardware_alarm_set_target+0xd0>)
10002d98:	635d      	str	r5, [r3, #52]	; 0x34
10002d9a:	1d22      	adds	r2, r4, #4
10002d9c:	0092      	lsls	r2, r2, #2
10002d9e:	9901      	ldr	r1, [sp, #4]
10002da0:	50d1      	str	r1, [r2, r3]
10002da2:	00a2      	lsls	r2, r4, #2
10002da4:	4920      	ldr	r1, [pc, #128]	; (10002e28 <hardware_alarm_set_target+0xd4>)
10002da6:	9802      	ldr	r0, [sp, #8]
10002da8:	5050      	str	r0, [r2, r1]
10002daa:	6a1b      	ldr	r3, [r3, #32]
10002dac:	422b      	tst	r3, r5
10002dae:	d112      	bne.n	10002dd6 <hardware_alarm_set_target+0x82>
10002db0:	4b1c      	ldr	r3, [pc, #112]	; (10002e24 <hardware_alarm_set_target+0xd0>)
10002db2:	6c1b      	ldr	r3, [r3, #64]	; 0x40
10002db4:	422b      	tst	r3, r5
10002db6:	d008      	beq.n	10002dca <hardware_alarm_set_target+0x76>
10002db8:	2000      	movs	r0, #0
10002dba:	f3bf 8f5f 	dmb	sy
10002dbe:	4b17      	ldr	r3, [pc, #92]	; (10002e1c <hardware_alarm_set_target+0xc8>)
10002dc0:	2200      	movs	r2, #0
10002dc2:	601a      	str	r2, [r3, #0]
10002dc4:	f38b 8810 	msr	PRIMASK, fp
10002dc8:	e023      	b.n	10002e12 <hardware_alarm_set_target+0xbe>
10002dca:	4b18      	ldr	r3, [pc, #96]	; (10002e2c <hardware_alarm_set_target+0xd8>)
10002dcc:	4a18      	ldr	r2, [pc, #96]	; (10002e30 <hardware_alarm_set_target+0xdc>)
10002dce:	21c5      	movs	r1, #197	; 0xc5
10002dd0:	4818      	ldr	r0, [pc, #96]	; (10002e34 <hardware_alarm_set_target+0xe0>)
10002dd2:	f000 fd8b 	bl	100038ec <__assert_func>
10002dd6:	f7ff ff31 	bl	10002c3c <time_us_64>
10002dda:	428e      	cmp	r6, r1
10002ddc:	d814      	bhi.n	10002e08 <hardware_alarm_set_target+0xb4>
10002dde:	d102      	bne.n	10002de6 <hardware_alarm_set_target+0x92>
10002de0:	9b03      	ldr	r3, [sp, #12]
10002de2:	4283      	cmp	r3, r0
10002de4:	d810      	bhi.n	10002e08 <hardware_alarm_set_target+0xb4>
10002de6:	4b0e      	ldr	r3, [pc, #56]	; (10002e20 <hardware_alarm_set_target+0xcc>)
10002de8:	781b      	ldrb	r3, [r3, #0]
10002dea:	42bb      	cmp	r3, r7
10002dec:	d00e      	beq.n	10002e0c <hardware_alarm_set_target+0xb8>
10002dee:	4b0d      	ldr	r3, [pc, #52]	; (10002e24 <hardware_alarm_set_target+0xd0>)
10002df0:	621d      	str	r5, [r3, #32]
10002df2:	635d      	str	r5, [r3, #52]	; 0x34
10002df4:	201f      	movs	r0, #31
10002df6:	4004      	ands	r4, r0
10002df8:	2301      	movs	r3, #1
10002dfa:	40a3      	lsls	r3, r4
10002dfc:	4a0e      	ldr	r2, [pc, #56]	; (10002e38 <hardware_alarm_set_target+0xe4>)
10002dfe:	6013      	str	r3, [r2, #0]
10002e00:	4b07      	ldr	r3, [pc, #28]	; (10002e20 <hardware_alarm_set_target+0xcc>)
10002e02:	701f      	strb	r7, [r3, #0]
10002e04:	381e      	subs	r0, #30
10002e06:	e7d8      	b.n	10002dba <hardware_alarm_set_target+0x66>
10002e08:	2000      	movs	r0, #0
10002e0a:	e7d6      	b.n	10002dba <hardware_alarm_set_target+0x66>
10002e0c:	2001      	movs	r0, #1
10002e0e:	e7d4      	b.n	10002dba <hardware_alarm_set_target+0x66>
10002e10:	2001      	movs	r0, #1
10002e12:	b004      	add	sp, #16
10002e14:	bc80      	pop	{r7}
10002e16:	46bb      	mov	fp, r7
10002e18:	bdf0      	pop	{r4, r5, r6, r7, pc}
10002e1a:	46c0      	nop			; (mov r8, r8)
10002e1c:	d0000128 	.word	0xd0000128
10002e20:	20002593 	.word	0x20002593
10002e24:	40054000 	.word	0x40054000
10002e28:	20002560 	.word	0x20002560
10002e2c:	1000a0c0 	.word	0x1000a0c0
10002e30:	1000a144 	.word	0x1000a144
10002e34:	1000a0e4 	.word	0x1000a0e4
10002e38:	e000e280 	.word	0xe000e280

10002e3c <hardware_alarm_cancel>:
10002e3c:	f3ef 8c10 	mrs	ip, PRIMASK
10002e40:	b672      	cpsid	i
10002e42:	4b0b      	ldr	r3, [pc, #44]	; (10002e70 <hardware_alarm_cancel+0x34>)
10002e44:	681b      	ldr	r3, [r3, #0]
10002e46:	2b00      	cmp	r3, #0
10002e48:	d0fb      	beq.n	10002e42 <hardware_alarm_cancel+0x6>
10002e4a:	f3bf 8f5f 	dmb	sy
10002e4e:	2301      	movs	r3, #1
10002e50:	4083      	lsls	r3, r0
10002e52:	4a08      	ldr	r2, [pc, #32]	; (10002e74 <hardware_alarm_cancel+0x38>)
10002e54:	6213      	str	r3, [r2, #32]
10002e56:	4908      	ldr	r1, [pc, #32]	; (10002e78 <hardware_alarm_cancel+0x3c>)
10002e58:	780a      	ldrb	r2, [r1, #0]
10002e5a:	439a      	bics	r2, r3
10002e5c:	700a      	strb	r2, [r1, #0]
10002e5e:	f3bf 8f5f 	dmb	sy
10002e62:	4b03      	ldr	r3, [pc, #12]	; (10002e70 <hardware_alarm_cancel+0x34>)
10002e64:	2200      	movs	r2, #0
10002e66:	601a      	str	r2, [r3, #0]
10002e68:	f38c 8810 	msr	PRIMASK, ip
10002e6c:	4770      	bx	lr
10002e6e:	46c0      	nop			; (mov r8, r8)
10002e70:	d0000128 	.word	0xd0000128
10002e74:	40054000 	.word	0x40054000
10002e78:	20002593 	.word	0x20002593

10002e7c <ph_add_child_node>:
10002e7c:	b510      	push	{r4, lr}
10002e7e:	2900      	cmp	r1, #0
10002e80:	d01e      	beq.n	10002ec0 <ph_add_child_node+0x44>
10002e82:	7b03      	ldrb	r3, [r0, #12]
10002e84:	4299      	cmp	r1, r3
10002e86:	d81b      	bhi.n	10002ec0 <ph_add_child_node+0x44>
10002e88:	004b      	lsls	r3, r1, #1
10002e8a:	185b      	adds	r3, r3, r1
10002e8c:	3b03      	subs	r3, #3
10002e8e:	6804      	ldr	r4, [r0, #0]
10002e90:	46a4      	mov	ip, r4
10002e92:	4463      	add	r3, ip
10002e94:	2900      	cmp	r1, #0
10002e96:	d019      	beq.n	10002ecc <ph_add_child_node+0x50>
10002e98:	2a00      	cmp	r2, #0
10002e9a:	d01d      	beq.n	10002ed8 <ph_add_child_node+0x5c>
10002e9c:	4291      	cmp	r1, r2
10002e9e:	d021      	beq.n	10002ee4 <ph_add_child_node+0x68>
10002ea0:	2a00      	cmp	r2, #0
10002ea2:	d025      	beq.n	10002ef0 <ph_add_child_node+0x74>
10002ea4:	7b04      	ldrb	r4, [r0, #12]
10002ea6:	42a2      	cmp	r2, r4
10002ea8:	d822      	bhi.n	10002ef0 <ph_add_child_node+0x74>
10002eaa:	6804      	ldr	r4, [r0, #0]
10002eac:	0050      	lsls	r0, r2, #1
10002eae:	1880      	adds	r0, r0, r2
10002eb0:	3803      	subs	r0, #3
10002eb2:	1820      	adds	r0, r4, r0
10002eb4:	7081      	strb	r1, [r0, #2]
10002eb6:	7819      	ldrb	r1, [r3, #0]
10002eb8:	2900      	cmp	r1, #0
10002eba:	d11f      	bne.n	10002efc <ph_add_child_node+0x80>
10002ebc:	701a      	strb	r2, [r3, #0]
10002ebe:	bd10      	pop	{r4, pc}
10002ec0:	4b10      	ldr	r3, [pc, #64]	; (10002f04 <ph_add_child_node+0x88>)
10002ec2:	4a11      	ldr	r2, [pc, #68]	; (10002f08 <ph_add_child_node+0x8c>)
10002ec4:	2168      	movs	r1, #104	; 0x68
10002ec6:	4811      	ldr	r0, [pc, #68]	; (10002f0c <ph_add_child_node+0x90>)
10002ec8:	f000 fd10 	bl	100038ec <__assert_func>
10002ecc:	4b10      	ldr	r3, [pc, #64]	; (10002f10 <ph_add_child_node+0x94>)
10002ece:	4a11      	ldr	r2, [pc, #68]	; (10002f14 <ph_add_child_node+0x98>)
10002ed0:	316f      	adds	r1, #111	; 0x6f
10002ed2:	480e      	ldr	r0, [pc, #56]	; (10002f0c <ph_add_child_node+0x90>)
10002ed4:	f000 fd0a 	bl	100038ec <__assert_func>
10002ed8:	4b0f      	ldr	r3, [pc, #60]	; (10002f18 <ph_add_child_node+0x9c>)
10002eda:	4a0e      	ldr	r2, [pc, #56]	; (10002f14 <ph_add_child_node+0x98>)
10002edc:	2170      	movs	r1, #112	; 0x70
10002ede:	480b      	ldr	r0, [pc, #44]	; (10002f0c <ph_add_child_node+0x90>)
10002ee0:	f000 fd04 	bl	100038ec <__assert_func>
10002ee4:	4b0d      	ldr	r3, [pc, #52]	; (10002f1c <ph_add_child_node+0xa0>)
10002ee6:	4a0b      	ldr	r2, [pc, #44]	; (10002f14 <ph_add_child_node+0x98>)
10002ee8:	2171      	movs	r1, #113	; 0x71
10002eea:	4808      	ldr	r0, [pc, #32]	; (10002f0c <ph_add_child_node+0x90>)
10002eec:	f000 fcfe 	bl	100038ec <__assert_func>
10002ef0:	4b04      	ldr	r3, [pc, #16]	; (10002f04 <ph_add_child_node+0x88>)
10002ef2:	4a05      	ldr	r2, [pc, #20]	; (10002f08 <ph_add_child_node+0x8c>)
10002ef4:	2168      	movs	r1, #104	; 0x68
10002ef6:	4805      	ldr	r0, [pc, #20]	; (10002f0c <ph_add_child_node+0x90>)
10002ef8:	f000 fcf8 	bl	100038ec <__assert_func>
10002efc:	7041      	strb	r1, [r0, #1]
10002efe:	701a      	strb	r2, [r3, #0]
10002f00:	e7dd      	b.n	10002ebe <ph_add_child_node+0x42>
10002f02:	46c0      	nop			; (mov r8, r8)
10002f04:	10009db0 	.word	0x10009db0
10002f08:	1000a280 	.word	0x1000a280
10002f0c:	10009dcc 	.word	0x10009dcc
10002f10:	10009e34 	.word	0x10009e34
10002f14:	1000a26c 	.word	0x1000a26c
10002f18:	10009e40 	.word	0x10009e40
10002f1c:	10009e4c 	.word	0x10009e4c

10002f20 <ph_merge_nodes>:
10002f20:	b570      	push	{r4, r5, r6, lr}
10002f22:	0006      	movs	r6, r0
10002f24:	000d      	movs	r5, r1
10002f26:	0014      	movs	r4, r2
10002f28:	2900      	cmp	r1, #0
10002f2a:	d014      	beq.n	10002f56 <ph_merge_nodes+0x36>
10002f2c:	2a00      	cmp	r2, #0
10002f2e:	d014      	beq.n	10002f5a <ph_merge_nodes+0x3a>
10002f30:	6880      	ldr	r0, [r0, #8]
10002f32:	6873      	ldr	r3, [r6, #4]
10002f34:	4798      	blx	r3
10002f36:	2800      	cmp	r0, #0
10002f38:	d006      	beq.n	10002f48 <ph_merge_nodes+0x28>
10002f3a:	0022      	movs	r2, r4
10002f3c:	0029      	movs	r1, r5
10002f3e:	0030      	movs	r0, r6
10002f40:	f7ff ff9c 	bl	10002e7c <ph_add_child_node>
10002f44:	0028      	movs	r0, r5
10002f46:	e007      	b.n	10002f58 <ph_merge_nodes+0x38>
10002f48:	002a      	movs	r2, r5
10002f4a:	0021      	movs	r1, r4
10002f4c:	0030      	movs	r0, r6
10002f4e:	f7ff ff95 	bl	10002e7c <ph_add_child_node>
10002f52:	0020      	movs	r0, r4
10002f54:	e000      	b.n	10002f58 <ph_merge_nodes+0x38>
10002f56:	0010      	movs	r0, r2
10002f58:	bd70      	pop	{r4, r5, r6, pc}
10002f5a:	0008      	movs	r0, r1
10002f5c:	e7fc      	b.n	10002f58 <ph_merge_nodes+0x38>
	...

10002f60 <ph_clear>:
10002f60:	b510      	push	{r4, lr}
10002f62:	2300      	movs	r3, #0
10002f64:	7343      	strb	r3, [r0, #13]
10002f66:	3301      	adds	r3, #1
10002f68:	7383      	strb	r3, [r0, #14]
10002f6a:	7b03      	ldrb	r3, [r0, #12]
10002f6c:	73c3      	strb	r3, [r0, #15]
10002f6e:	2301      	movs	r3, #1
10002f70:	7b02      	ldrb	r2, [r0, #12]
10002f72:	429a      	cmp	r2, r3
10002f74:	d914      	bls.n	10002fa0 <ph_clear+0x40>
10002f76:	2b00      	cmp	r3, #0
10002f78:	d00c      	beq.n	10002f94 <ph_clear+0x34>
10002f7a:	7b02      	ldrb	r2, [r0, #12]
10002f7c:	4293      	cmp	r3, r2
10002f7e:	d809      	bhi.n	10002f94 <ph_clear+0x34>
10002f80:	005a      	lsls	r2, r3, #1
10002f82:	18d2      	adds	r2, r2, r3
10002f84:	3a03      	subs	r2, #3
10002f86:	6801      	ldr	r1, [r0, #0]
10002f88:	468c      	mov	ip, r1
10002f8a:	4462      	add	r2, ip
10002f8c:	3301      	adds	r3, #1
10002f8e:	b2db      	uxtb	r3, r3
10002f90:	7053      	strb	r3, [r2, #1]
10002f92:	e7ed      	b.n	10002f70 <ph_clear+0x10>
10002f94:	4b0b      	ldr	r3, [pc, #44]	; (10002fc4 <ph_clear+0x64>)
10002f96:	4a0c      	ldr	r2, [pc, #48]	; (10002fc8 <ph_clear+0x68>)
10002f98:	2168      	movs	r1, #104	; 0x68
10002f9a:	480c      	ldr	r0, [pc, #48]	; (10002fcc <ph_clear+0x6c>)
10002f9c:	f000 fca6 	bl	100038ec <__assert_func>
10002fa0:	2a00      	cmp	r2, #0
10002fa2:	d009      	beq.n	10002fb8 <ph_clear+0x58>
10002fa4:	4292      	cmp	r2, r2
10002fa6:	d807      	bhi.n	10002fb8 <ph_clear+0x58>
10002fa8:	6801      	ldr	r1, [r0, #0]
10002faa:	0053      	lsls	r3, r2, #1
10002fac:	189a      	adds	r2, r3, r2
10002fae:	3a03      	subs	r2, #3
10002fb0:	188a      	adds	r2, r1, r2
10002fb2:	2300      	movs	r3, #0
10002fb4:	7053      	strb	r3, [r2, #1]
10002fb6:	bd10      	pop	{r4, pc}
10002fb8:	4b02      	ldr	r3, [pc, #8]	; (10002fc4 <ph_clear+0x64>)
10002fba:	4a03      	ldr	r2, [pc, #12]	; (10002fc8 <ph_clear+0x68>)
10002fbc:	2168      	movs	r1, #104	; 0x68
10002fbe:	4803      	ldr	r0, [pc, #12]	; (10002fcc <ph_clear+0x6c>)
10002fc0:	f000 fc94 	bl	100038ec <__assert_func>
10002fc4:	10009db0 	.word	0x10009db0
10002fc8:	1000a280 	.word	0x1000a280
10002fcc:	10009dcc 	.word	0x10009dcc

10002fd0 <ph_post_alloc_init>:
10002fd0:	b510      	push	{r4, lr}
10002fd2:	7301      	strb	r1, [r0, #12]
10002fd4:	6042      	str	r2, [r0, #4]
10002fd6:	6083      	str	r3, [r0, #8]
10002fd8:	f7ff ffc2 	bl	10002f60 <ph_clear>
10002fdc:	bd10      	pop	{r4, pc}
	...

10002fe0 <ph_merge_two_pass>:
10002fe0:	b570      	push	{r4, r5, r6, lr}
10002fe2:	0004      	movs	r4, r0
10002fe4:	1e08      	subs	r0, r1, #0
10002fe6:	d100      	bne.n	10002fea <ph_merge_two_pass+0xa>
10002fe8:	bd70      	pop	{r4, r5, r6, pc}
10002fea:	2900      	cmp	r1, #0
10002fec:	d034      	beq.n	10003058 <ph_merge_two_pass+0x78>
10002fee:	7b23      	ldrb	r3, [r4, #12]
10002ff0:	4299      	cmp	r1, r3
10002ff2:	d831      	bhi.n	10003058 <ph_merge_two_pass+0x78>
10002ff4:	004b      	lsls	r3, r1, #1
10002ff6:	185b      	adds	r3, r3, r1
10002ff8:	3b03      	subs	r3, #3
10002ffa:	6822      	ldr	r2, [r4, #0]
10002ffc:	4694      	mov	ip, r2
10002ffe:	4463      	add	r3, ip
10003000:	785a      	ldrb	r2, [r3, #1]
10003002:	2a00      	cmp	r2, #0
10003004:	d0f0      	beq.n	10002fe8 <ph_merge_two_pass+0x8>
10003006:	d02d      	beq.n	10003064 <ph_merge_two_pass+0x84>
10003008:	7b23      	ldrb	r3, [r4, #12]
1000300a:	429a      	cmp	r2, r3
1000300c:	d82a      	bhi.n	10003064 <ph_merge_two_pass+0x84>
1000300e:	0053      	lsls	r3, r2, #1
10003010:	189b      	adds	r3, r3, r2
10003012:	3b03      	subs	r3, #3
10003014:	6821      	ldr	r1, [r4, #0]
10003016:	468c      	mov	ip, r1
10003018:	4463      	add	r3, ip
1000301a:	785d      	ldrb	r5, [r3, #1]
1000301c:	2100      	movs	r1, #0
1000301e:	7059      	strb	r1, [r3, #1]
10003020:	2800      	cmp	r0, #0
10003022:	d025      	beq.n	10003070 <ph_merge_two_pass+0x90>
10003024:	7b23      	ldrb	r3, [r4, #12]
10003026:	4298      	cmp	r0, r3
10003028:	d822      	bhi.n	10003070 <ph_merge_two_pass+0x90>
1000302a:	0043      	lsls	r3, r0, #1
1000302c:	181b      	adds	r3, r3, r0
1000302e:	3b03      	subs	r3, #3
10003030:	6821      	ldr	r1, [r4, #0]
10003032:	468c      	mov	ip, r1
10003034:	4463      	add	r3, ip
10003036:	2100      	movs	r1, #0
10003038:	7059      	strb	r1, [r3, #1]
1000303a:	0001      	movs	r1, r0
1000303c:	0020      	movs	r0, r4
1000303e:	f7ff ff6f 	bl	10002f20 <ph_merge_nodes>
10003042:	0006      	movs	r6, r0
10003044:	0029      	movs	r1, r5
10003046:	0020      	movs	r0, r4
10003048:	f7ff ffca 	bl	10002fe0 <ph_merge_two_pass>
1000304c:	0002      	movs	r2, r0
1000304e:	0031      	movs	r1, r6
10003050:	0020      	movs	r0, r4
10003052:	f7ff ff65 	bl	10002f20 <ph_merge_nodes>
10003056:	e7c7      	b.n	10002fe8 <ph_merge_two_pass+0x8>
10003058:	4b08      	ldr	r3, [pc, #32]	; (1000307c <ph_merge_two_pass+0x9c>)
1000305a:	4a09      	ldr	r2, [pc, #36]	; (10003080 <ph_merge_two_pass+0xa0>)
1000305c:	2168      	movs	r1, #104	; 0x68
1000305e:	4809      	ldr	r0, [pc, #36]	; (10003084 <ph_merge_two_pass+0xa4>)
10003060:	f000 fc44 	bl	100038ec <__assert_func>
10003064:	4b05      	ldr	r3, [pc, #20]	; (1000307c <ph_merge_two_pass+0x9c>)
10003066:	4a06      	ldr	r2, [pc, #24]	; (10003080 <ph_merge_two_pass+0xa0>)
10003068:	2168      	movs	r1, #104	; 0x68
1000306a:	4806      	ldr	r0, [pc, #24]	; (10003084 <ph_merge_two_pass+0xa4>)
1000306c:	f000 fc3e 	bl	100038ec <__assert_func>
10003070:	4b02      	ldr	r3, [pc, #8]	; (1000307c <ph_merge_two_pass+0x9c>)
10003072:	4a03      	ldr	r2, [pc, #12]	; (10003080 <ph_merge_two_pass+0xa0>)
10003074:	2168      	movs	r1, #104	; 0x68
10003076:	4803      	ldr	r0, [pc, #12]	; (10003084 <ph_merge_two_pass+0xa4>)
10003078:	f000 fc38 	bl	100038ec <__assert_func>
1000307c:	10009db0 	.word	0x10009db0
10003080:	1000a280 	.word	0x1000a280
10003084:	10009dcc 	.word	0x10009dcc

10003088 <ph_remove_any_head>:
10003088:	b570      	push	{r4, r5, r6, lr}
1000308a:	0005      	movs	r5, r0
1000308c:	000c      	movs	r4, r1
1000308e:	0016      	movs	r6, r2
10003090:	2900      	cmp	r1, #0
10003092:	d02f      	beq.n	100030f4 <ph_remove_any_head+0x6c>
10003094:	d034      	beq.n	10003100 <ph_remove_any_head+0x78>
10003096:	7b03      	ldrb	r3, [r0, #12]
10003098:	4299      	cmp	r1, r3
1000309a:	d831      	bhi.n	10003100 <ph_remove_any_head+0x78>
1000309c:	004b      	lsls	r3, r1, #1
1000309e:	185b      	adds	r3, r3, r1
100030a0:	3b03      	subs	r3, #3
100030a2:	6802      	ldr	r2, [r0, #0]
100030a4:	4694      	mov	ip, r2
100030a6:	4463      	add	r3, ip
100030a8:	785a      	ldrb	r2, [r3, #1]
100030aa:	2a00      	cmp	r2, #0
100030ac:	d12e      	bne.n	1000310c <ph_remove_any_head+0x84>
100030ae:	789a      	ldrb	r2, [r3, #2]
100030b0:	2a00      	cmp	r2, #0
100030b2:	d131      	bne.n	10003118 <ph_remove_any_head+0x90>
100030b4:	7819      	ldrb	r1, [r3, #0]
100030b6:	f7ff ff93 	bl	10002fe0 <ph_merge_two_pass>
100030ba:	0003      	movs	r3, r0
100030bc:	2e00      	cmp	r6, #0
100030be:	d00a      	beq.n	100030d6 <ph_remove_any_head+0x4e>
100030c0:	7bea      	ldrb	r2, [r5, #15]
100030c2:	2a00      	cmp	r2, #0
100030c4:	d12e      	bne.n	10003124 <ph_remove_any_head+0x9c>
100030c6:	7baa      	ldrb	r2, [r5, #14]
100030c8:	2a00      	cmp	r2, #0
100030ca:	d103      	bne.n	100030d4 <ph_remove_any_head+0x4c>
100030cc:	7bea      	ldrb	r2, [r5, #15]
100030ce:	2a00      	cmp	r2, #0
100030d0:	d13b      	bne.n	1000314a <ph_remove_any_head+0xc2>
100030d2:	73ac      	strb	r4, [r5, #14]
100030d4:	73ec      	strb	r4, [r5, #15]
100030d6:	2b00      	cmp	r3, #0
100030d8:	d13d      	bne.n	10003156 <ph_remove_any_head+0xce>
100030da:	2c00      	cmp	r4, #0
100030dc:	d04f      	beq.n	1000317e <ph_remove_any_head+0xf6>
100030de:	7b2b      	ldrb	r3, [r5, #12]
100030e0:	429c      	cmp	r4, r3
100030e2:	d84c      	bhi.n	1000317e <ph_remove_any_head+0xf6>
100030e4:	682b      	ldr	r3, [r5, #0]
100030e6:	0061      	lsls	r1, r4, #1
100030e8:	190c      	adds	r4, r1, r4
100030ea:	3c03      	subs	r4, #3
100030ec:	191c      	adds	r4, r3, r4
100030ee:	2300      	movs	r3, #0
100030f0:	7063      	strb	r3, [r4, #1]
100030f2:	bd70      	pop	{r4, r5, r6, pc}
100030f4:	4b25      	ldr	r3, [pc, #148]	; (1000318c <ph_remove_any_head+0x104>)
100030f6:	4a26      	ldr	r2, [pc, #152]	; (10003190 <ph_remove_any_head+0x108>)
100030f8:	2138      	movs	r1, #56	; 0x38
100030fa:	4826      	ldr	r0, [pc, #152]	; (10003194 <ph_remove_any_head+0x10c>)
100030fc:	f000 fbf6 	bl	100038ec <__assert_func>
10003100:	4b25      	ldr	r3, [pc, #148]	; (10003198 <ph_remove_any_head+0x110>)
10003102:	4a26      	ldr	r2, [pc, #152]	; (1000319c <ph_remove_any_head+0x114>)
10003104:	2168      	movs	r1, #104	; 0x68
10003106:	4826      	ldr	r0, [pc, #152]	; (100031a0 <ph_remove_any_head+0x118>)
10003108:	f000 fbf0 	bl	100038ec <__assert_func>
1000310c:	4b25      	ldr	r3, [pc, #148]	; (100031a4 <ph_remove_any_head+0x11c>)
1000310e:	4a20      	ldr	r2, [pc, #128]	; (10003190 <ph_remove_any_head+0x108>)
10003110:	213a      	movs	r1, #58	; 0x3a
10003112:	4820      	ldr	r0, [pc, #128]	; (10003194 <ph_remove_any_head+0x10c>)
10003114:	f000 fbea 	bl	100038ec <__assert_func>
10003118:	4b23      	ldr	r3, [pc, #140]	; (100031a8 <ph_remove_any_head+0x120>)
1000311a:	4a1d      	ldr	r2, [pc, #116]	; (10003190 <ph_remove_any_head+0x108>)
1000311c:	213b      	movs	r1, #59	; 0x3b
1000311e:	481d      	ldr	r0, [pc, #116]	; (10003194 <ph_remove_any_head+0x10c>)
10003120:	f000 fbe4 	bl	100038ec <__assert_func>
10003124:	2a00      	cmp	r2, #0
10003126:	d00a      	beq.n	1000313e <ph_remove_any_head+0xb6>
10003128:	7b29      	ldrb	r1, [r5, #12]
1000312a:	428a      	cmp	r2, r1
1000312c:	d807      	bhi.n	1000313e <ph_remove_any_head+0xb6>
1000312e:	0051      	lsls	r1, r2, #1
10003130:	188a      	adds	r2, r1, r2
10003132:	3a03      	subs	r2, #3
10003134:	6829      	ldr	r1, [r5, #0]
10003136:	468c      	mov	ip, r1
10003138:	4462      	add	r2, ip
1000313a:	7054      	strb	r4, [r2, #1]
1000313c:	e7c3      	b.n	100030c6 <ph_remove_any_head+0x3e>
1000313e:	4b16      	ldr	r3, [pc, #88]	; (10003198 <ph_remove_any_head+0x110>)
10003140:	4a16      	ldr	r2, [pc, #88]	; (1000319c <ph_remove_any_head+0x114>)
10003142:	2168      	movs	r1, #104	; 0x68
10003144:	4816      	ldr	r0, [pc, #88]	; (100031a0 <ph_remove_any_head+0x118>)
10003146:	f000 fbd1 	bl	100038ec <__assert_func>
1000314a:	4b18      	ldr	r3, [pc, #96]	; (100031ac <ph_remove_any_head+0x124>)
1000314c:	4a10      	ldr	r2, [pc, #64]	; (10003190 <ph_remove_any_head+0x108>)
1000314e:	2142      	movs	r1, #66	; 0x42
10003150:	4810      	ldr	r0, [pc, #64]	; (10003194 <ph_remove_any_head+0x10c>)
10003152:	f000 fbcb 	bl	100038ec <__assert_func>
10003156:	2b00      	cmp	r3, #0
10003158:	d00b      	beq.n	10003172 <ph_remove_any_head+0xea>
1000315a:	7b2a      	ldrb	r2, [r5, #12]
1000315c:	4293      	cmp	r3, r2
1000315e:	d808      	bhi.n	10003172 <ph_remove_any_head+0xea>
10003160:	0043      	lsls	r3, r0, #1
10003162:	181b      	adds	r3, r3, r0
10003164:	3b03      	subs	r3, #3
10003166:	682a      	ldr	r2, [r5, #0]
10003168:	4694      	mov	ip, r2
1000316a:	4463      	add	r3, ip
1000316c:	2200      	movs	r2, #0
1000316e:	709a      	strb	r2, [r3, #2]
10003170:	e7b3      	b.n	100030da <ph_remove_any_head+0x52>
10003172:	4b09      	ldr	r3, [pc, #36]	; (10003198 <ph_remove_any_head+0x110>)
10003174:	4a09      	ldr	r2, [pc, #36]	; (1000319c <ph_remove_any_head+0x114>)
10003176:	2168      	movs	r1, #104	; 0x68
10003178:	4809      	ldr	r0, [pc, #36]	; (100031a0 <ph_remove_any_head+0x118>)
1000317a:	f000 fbb7 	bl	100038ec <__assert_func>
1000317e:	4b06      	ldr	r3, [pc, #24]	; (10003198 <ph_remove_any_head+0x110>)
10003180:	4a06      	ldr	r2, [pc, #24]	; (1000319c <ph_remove_any_head+0x114>)
10003182:	2168      	movs	r1, #104	; 0x68
10003184:	4806      	ldr	r0, [pc, #24]	; (100031a0 <ph_remove_any_head+0x118>)
10003186:	f000 fbb1 	bl	100038ec <__assert_func>
1000318a:	46c0      	nop			; (mov r8, r8)
1000318c:	1000a178 	.word	0x1000a178
10003190:	1000a258 	.word	0x1000a258
10003194:	1000a180 	.word	0x1000a180
10003198:	10009db0 	.word	0x10009db0
1000319c:	1000a280 	.word	0x1000a280
100031a0:	10009dcc 	.word	0x10009dcc
100031a4:	1000a1d4 	.word	0x1000a1d4
100031a8:	1000a1fc 	.word	0x1000a1fc
100031ac:	10009f10 	.word	0x10009f10

100031b0 <ph_remove_head>:
100031b0:	b570      	push	{r4, r5, r6, lr}
100031b2:	0004      	movs	r4, r0
100031b4:	000a      	movs	r2, r1
100031b6:	7b45      	ldrb	r5, [r0, #13]
100031b8:	0029      	movs	r1, r5
100031ba:	f7ff ff65 	bl	10003088 <ph_remove_any_head>
100031be:	7360      	strb	r0, [r4, #13]
100031c0:	0028      	movs	r0, r5
100031c2:	bd70      	pop	{r4, r5, r6, pc}

100031c4 <ph_remove_and_free_node>:
100031c4:	b570      	push	{r4, r5, r6, lr}
100031c6:	0004      	movs	r4, r0
100031c8:	2900      	cmp	r1, #0
100031ca:	d067      	beq.n	1000329c <ph_remove_and_free_node+0xd8>
100031cc:	7b43      	ldrb	r3, [r0, #13]
100031ce:	428b      	cmp	r3, r1
100031d0:	d00e      	beq.n	100031f0 <ph_remove_and_free_node+0x2c>
100031d2:	2900      	cmp	r1, #0
100031d4:	d011      	beq.n	100031fa <ph_remove_and_free_node+0x36>
100031d6:	7b03      	ldrb	r3, [r0, #12]
100031d8:	4299      	cmp	r1, r3
100031da:	d80e      	bhi.n	100031fa <ph_remove_and_free_node+0x36>
100031dc:	004b      	lsls	r3, r1, #1
100031de:	185b      	adds	r3, r3, r1
100031e0:	3b03      	subs	r3, #3
100031e2:	6802      	ldr	r2, [r0, #0]
100031e4:	18d0      	adds	r0, r2, r3
100031e6:	7883      	ldrb	r3, [r0, #2]
100031e8:	2b00      	cmp	r3, #0
100031ea:	d10c      	bne.n	10003206 <ph_remove_and_free_node+0x42>
100031ec:	2000      	movs	r0, #0
100031ee:	e056      	b.n	1000329e <ph_remove_and_free_node+0xda>
100031f0:	2101      	movs	r1, #1
100031f2:	f7ff ffdd 	bl	100031b0 <ph_remove_head>
100031f6:	2001      	movs	r0, #1
100031f8:	e051      	b.n	1000329e <ph_remove_and_free_node+0xda>
100031fa:	4b29      	ldr	r3, [pc, #164]	; (100032a0 <ph_remove_and_free_node+0xdc>)
100031fc:	4a29      	ldr	r2, [pc, #164]	; (100032a4 <ph_remove_and_free_node+0xe0>)
100031fe:	2168      	movs	r1, #104	; 0x68
10003200:	4829      	ldr	r0, [pc, #164]	; (100032a8 <ph_remove_and_free_node+0xe4>)
10003202:	f000 fb73 	bl	100038ec <__assert_func>
10003206:	2b00      	cmp	r3, #0
10003208:	d020      	beq.n	1000324c <ph_remove_and_free_node+0x88>
1000320a:	7b22      	ldrb	r2, [r4, #12]
1000320c:	4293      	cmp	r3, r2
1000320e:	d81d      	bhi.n	1000324c <ph_remove_and_free_node+0x88>
10003210:	005a      	lsls	r2, r3, #1
10003212:	18d3      	adds	r3, r2, r3
10003214:	3b03      	subs	r3, #3
10003216:	6822      	ldr	r2, [r4, #0]
10003218:	18d2      	adds	r2, r2, r3
1000321a:	6825      	ldr	r5, [r4, #0]
1000321c:	5ceb      	ldrb	r3, [r5, r3]
1000321e:	428b      	cmp	r3, r1
10003220:	d01a      	beq.n	10003258 <ph_remove_and_free_node+0x94>
10003222:	2b00      	cmp	r3, #0
10003224:	d01b      	beq.n	1000325e <ph_remove_and_free_node+0x9a>
10003226:	7b22      	ldrb	r2, [r4, #12]
10003228:	4293      	cmp	r3, r2
1000322a:	d818      	bhi.n	1000325e <ph_remove_and_free_node+0x9a>
1000322c:	005a      	lsls	r2, r3, #1
1000322e:	18d3      	adds	r3, r2, r3
10003230:	3b03      	subs	r3, #3
10003232:	6822      	ldr	r2, [r4, #0]
10003234:	18d2      	adds	r2, r2, r3
10003236:	7853      	ldrb	r3, [r2, #1]
10003238:	428b      	cmp	r3, r1
1000323a:	d016      	beq.n	1000326a <ph_remove_and_free_node+0xa6>
1000323c:	2b00      	cmp	r3, #0
1000323e:	d1f0      	bne.n	10003222 <ph_remove_and_free_node+0x5e>
10003240:	4b1a      	ldr	r3, [pc, #104]	; (100032ac <ph_remove_and_free_node+0xe8>)
10003242:	4a1b      	ldr	r2, [pc, #108]	; (100032b0 <ph_remove_and_free_node+0xec>)
10003244:	216b      	movs	r1, #107	; 0x6b
10003246:	481b      	ldr	r0, [pc, #108]	; (100032b4 <ph_remove_and_free_node+0xf0>)
10003248:	f000 fb50 	bl	100038ec <__assert_func>
1000324c:	4b14      	ldr	r3, [pc, #80]	; (100032a0 <ph_remove_and_free_node+0xdc>)
1000324e:	4a15      	ldr	r2, [pc, #84]	; (100032a4 <ph_remove_and_free_node+0xe0>)
10003250:	2168      	movs	r1, #104	; 0x68
10003252:	4815      	ldr	r0, [pc, #84]	; (100032a8 <ph_remove_and_free_node+0xe4>)
10003254:	f000 fb4a 	bl	100038ec <__assert_func>
10003258:	7843      	ldrb	r3, [r0, #1]
1000325a:	7013      	strb	r3, [r2, #0]
1000325c:	e007      	b.n	1000326e <ph_remove_and_free_node+0xaa>
1000325e:	4b10      	ldr	r3, [pc, #64]	; (100032a0 <ph_remove_and_free_node+0xdc>)
10003260:	4a10      	ldr	r2, [pc, #64]	; (100032a4 <ph_remove_and_free_node+0xe0>)
10003262:	2168      	movs	r1, #104	; 0x68
10003264:	4810      	ldr	r0, [pc, #64]	; (100032a8 <ph_remove_and_free_node+0xe4>)
10003266:	f000 fb41 	bl	100038ec <__assert_func>
1000326a:	7843      	ldrb	r3, [r0, #1]
1000326c:	7053      	strb	r3, [r2, #1]
1000326e:	2300      	movs	r3, #0
10003270:	7083      	strb	r3, [r0, #2]
10003272:	7043      	strb	r3, [r0, #1]
10003274:	2201      	movs	r2, #1
10003276:	0020      	movs	r0, r4
10003278:	f7ff ff06 	bl	10003088 <ph_remove_any_head>
1000327c:	0002      	movs	r2, r0
1000327e:	7b61      	ldrb	r1, [r4, #13]
10003280:	4281      	cmp	r1, r0
10003282:	d005      	beq.n	10003290 <ph_remove_and_free_node+0xcc>
10003284:	0020      	movs	r0, r4
10003286:	f7ff fe4b 	bl	10002f20 <ph_merge_nodes>
1000328a:	7360      	strb	r0, [r4, #13]
1000328c:	2001      	movs	r0, #1
1000328e:	e006      	b.n	1000329e <ph_remove_and_free_node+0xda>
10003290:	4b09      	ldr	r3, [pc, #36]	; (100032b8 <ph_remove_and_free_node+0xf4>)
10003292:	4a07      	ldr	r2, [pc, #28]	; (100032b0 <ph_remove_and_free_node+0xec>)
10003294:	2171      	movs	r1, #113	; 0x71
10003296:	4807      	ldr	r0, [pc, #28]	; (100032b4 <ph_remove_and_free_node+0xf0>)
10003298:	f000 fb28 	bl	100038ec <__assert_func>
1000329c:	2000      	movs	r0, #0
1000329e:	bd70      	pop	{r4, r5, r6, pc}
100032a0:	10009db0 	.word	0x10009db0
100032a4:	1000a280 	.word	0x1000a280
100032a8:	10009dcc 	.word	0x10009dcc
100032ac:	10009b04 	.word	0x10009b04
100032b0:	1000a240 	.word	0x1000a240
100032b4:	1000a180 	.word	0x1000a180
100032b8:	1000a220 	.word	0x1000a220

100032bc <uart_disable_before_lcr_write>:
100032bc:	b570      	push	{r4, r5, r6, lr}
100032be:	6b04      	ldr	r4, [r0, #48]	; 0x30
100032c0:	07e3      	lsls	r3, r4, #31
100032c2:	d401      	bmi.n	100032c8 <uart_disable_before_lcr_write+0xc>
100032c4:	0020      	movs	r0, r4
100032c6:	bd70      	pop	{r4, r5, r6, pc}
100032c8:	0002      	movs	r2, r0
100032ca:	3230      	adds	r2, #48	; 0x30
100032cc:	23c0      	movs	r3, #192	; 0xc0
100032ce:	019b      	lsls	r3, r3, #6
100032d0:	4313      	orrs	r3, r2
100032d2:	4a0a      	ldr	r2, [pc, #40]	; (100032fc <uart_disable_before_lcr_write+0x40>)
100032d4:	601a      	str	r2, [r3, #0]
100032d6:	6a45      	ldr	r5, [r0, #36]	; 0x24
100032d8:	6a82      	ldr	r2, [r0, #40]	; 0x28
100032da:	01ad      	lsls	r5, r5, #6
100032dc:	18ad      	adds	r5, r5, r2
100032de:	02ad      	lsls	r5, r5, #10
100032e0:	2006      	movs	r0, #6
100032e2:	f000 f9c5 	bl	10003670 <clock_get_hz>
100032e6:	4906      	ldr	r1, [pc, #24]	; (10003300 <uart_disable_before_lcr_write+0x44>)
100032e8:	f001 fcae 	bl	10004c48 <__wrap___aeabi_uidiv>
100032ec:	0001      	movs	r1, r0
100032ee:	0028      	movs	r0, r5
100032f0:	f001 fcaa 	bl	10004c48 <__wrap___aeabi_uidiv>
100032f4:	2100      	movs	r1, #0
100032f6:	f7ff fcc1 	bl	10002c7c <busy_wait_us>
100032fa:	e7e3      	b.n	100032c4 <uart_disable_before_lcr_write+0x8>
100032fc:	00000301 	.word	0x00000301
10003300:	00000e4e 	.word	0x00000e4e

10003304 <uart_write_lcr_bits_masked>:
10003304:	b570      	push	{r4, r5, r6, lr}
10003306:	0004      	movs	r4, r0
10003308:	000e      	movs	r6, r1
1000330a:	0015      	movs	r5, r2
1000330c:	f7ff ffd6 	bl	100032bc <uart_disable_before_lcr_write>
10003310:	0022      	movs	r2, r4
10003312:	322c      	adds	r2, #44	; 0x2c
10003314:	6ae1      	ldr	r1, [r4, #44]	; 0x2c
10003316:	404e      	eors	r6, r1
10003318:	4035      	ands	r5, r6
1000331a:	2380      	movs	r3, #128	; 0x80
1000331c:	015b      	lsls	r3, r3, #5
1000331e:	4313      	orrs	r3, r2
10003320:	601d      	str	r5, [r3, #0]
10003322:	6320      	str	r0, [r4, #48]	; 0x30
10003324:	bd70      	pop	{r4, r5, r6, pc}
	...

10003328 <uart_set_baudrate>:
10003328:	b570      	push	{r4, r5, r6, lr}
1000332a:	0005      	movs	r5, r0
1000332c:	000c      	movs	r4, r1
1000332e:	2006      	movs	r0, #6
10003330:	f000 f99e 	bl	10003670 <clock_get_hz>
10003334:	00c0      	lsls	r0, r0, #3
10003336:	0021      	movs	r1, r4
10003338:	f001 fc86 	bl	10004c48 <__wrap___aeabi_uidiv>
1000333c:	09c6      	lsrs	r6, r0, #7
1000333e:	d008      	beq.n	10003352 <uart_set_baudrate+0x2a>
10003340:	4b0e      	ldr	r3, [pc, #56]	; (1000337c <uart_set_baudrate+0x54>)
10003342:	429e      	cmp	r6, r3
10003344:	d816      	bhi.n	10003374 <uart_set_baudrate+0x4c>
10003346:	237f      	movs	r3, #127	; 0x7f
10003348:	4018      	ands	r0, r3
1000334a:	3001      	adds	r0, #1
1000334c:	0034      	movs	r4, r6
1000334e:	0846      	lsrs	r6, r0, #1
10003350:	e000      	b.n	10003354 <uart_set_baudrate+0x2c>
10003352:	2401      	movs	r4, #1
10003354:	626c      	str	r4, [r5, #36]	; 0x24
10003356:	62ae      	str	r6, [r5, #40]	; 0x28
10003358:	2200      	movs	r2, #0
1000335a:	2100      	movs	r1, #0
1000335c:	0028      	movs	r0, r5
1000335e:	f7ff ffd1 	bl	10003304 <uart_write_lcr_bits_masked>
10003362:	2006      	movs	r0, #6
10003364:	f000 f984 	bl	10003670 <clock_get_hz>
10003368:	0080      	lsls	r0, r0, #2
1000336a:	01a1      	lsls	r1, r4, #6
1000336c:	1989      	adds	r1, r1, r6
1000336e:	f001 fc6b 	bl	10004c48 <__wrap___aeabi_uidiv>
10003372:	bd70      	pop	{r4, r5, r6, pc}
10003374:	2600      	movs	r6, #0
10003376:	4c02      	ldr	r4, [pc, #8]	; (10003380 <uart_set_baudrate+0x58>)
10003378:	e7ec      	b.n	10003354 <uart_set_baudrate+0x2c>
1000337a:	46c0      	nop			; (mov r8, r8)
1000337c:	0000fffe 	.word	0x0000fffe
10003380:	0000ffff 	.word	0x0000ffff

10003384 <uart_set_format>:
10003384:	b510      	push	{r4, lr}
10003386:	3905      	subs	r1, #5
10003388:	0149      	lsls	r1, r1, #5
1000338a:	3a01      	subs	r2, #1
1000338c:	00d2      	lsls	r2, r2, #3
1000338e:	4311      	orrs	r1, r2
10003390:	2b00      	cmp	r3, #0
10003392:	d009      	beq.n	100033a8 <uart_set_format+0x24>
10003394:	2202      	movs	r2, #2
10003396:	430a      	orrs	r2, r1
10003398:	2b01      	cmp	r3, #1
1000339a:	d007      	beq.n	100033ac <uart_set_format+0x28>
1000339c:	2100      	movs	r1, #0
1000339e:	4311      	orrs	r1, r2
100033a0:	226e      	movs	r2, #110	; 0x6e
100033a2:	f7ff ffaf 	bl	10003304 <uart_write_lcr_bits_masked>
100033a6:	bd10      	pop	{r4, pc}
100033a8:	2200      	movs	r2, #0
100033aa:	e7f4      	b.n	10003396 <uart_set_format+0x12>
100033ac:	2104      	movs	r1, #4
100033ae:	e7f6      	b.n	1000339e <uart_set_format+0x1a>

100033b0 <uart_set_fifo_enabled>:
100033b0:	b510      	push	{r4, lr}
100033b2:	2900      	cmp	r1, #0
100033b4:	d000      	beq.n	100033b8 <uart_set_fifo_enabled+0x8>
100033b6:	2110      	movs	r1, #16
100033b8:	2210      	movs	r2, #16
100033ba:	f7ff ffa3 	bl	10003304 <uart_write_lcr_bits_masked>
100033be:	bd10      	pop	{r4, pc}

100033c0 <uart_set_translate_crlf>:
100033c0:	2900      	cmp	r1, #0
100033c2:	d009      	beq.n	100033d8 <uart_set_translate_crlf+0x18>
100033c4:	220a      	movs	r2, #10
100033c6:	4b06      	ldr	r3, [pc, #24]	; (100033e0 <uart_set_translate_crlf+0x20>)
100033c8:	469c      	mov	ip, r3
100033ca:	4460      	add	r0, ip
100033cc:	4243      	negs	r3, r0
100033ce:	4158      	adcs	r0, r3
100033d0:	0040      	lsls	r0, r0, #1
100033d2:	4b04      	ldr	r3, [pc, #16]	; (100033e4 <uart_set_translate_crlf+0x24>)
100033d4:	52c2      	strh	r2, [r0, r3]
100033d6:	4770      	bx	lr
100033d8:	2280      	movs	r2, #128	; 0x80
100033da:	0052      	lsls	r2, r2, #1
100033dc:	e7f3      	b.n	100033c6 <uart_set_translate_crlf+0x6>
100033de:	46c0      	nop			; (mov r8, r8)
100033e0:	bffc8000 	.word	0xbffc8000
100033e4:	20002570 	.word	0x20002570

100033e8 <uart_init>:
100033e8:	b570      	push	{r4, r5, r6, lr}
100033ea:	0005      	movs	r5, r0
100033ec:	000c      	movs	r4, r1
100033ee:	2006      	movs	r0, #6
100033f0:	f000 f93e 	bl	10003670 <clock_get_hz>
100033f4:	1e06      	subs	r6, r0, #0
100033f6:	d027      	beq.n	10003448 <uart_init+0x60>
100033f8:	4b16      	ldr	r3, [pc, #88]	; (10003454 <uart_init+0x6c>)
100033fa:	429d      	cmp	r5, r3
100033fc:	d026      	beq.n	1000344c <uart_init+0x64>
100033fe:	2280      	movs	r2, #128	; 0x80
10003400:	03d2      	lsls	r2, r2, #15
10003402:	4b15      	ldr	r3, [pc, #84]	; (10003458 <uart_init+0x70>)
10003404:	601a      	str	r2, [r3, #0]
10003406:	4b15      	ldr	r3, [pc, #84]	; (1000345c <uart_init+0x74>)
10003408:	601a      	str	r2, [r3, #0]
1000340a:	4b15      	ldr	r3, [pc, #84]	; (10003460 <uart_init+0x78>)
1000340c:	689b      	ldr	r3, [r3, #8]
1000340e:	0011      	movs	r1, r2
10003410:	4399      	bics	r1, r3
10003412:	d1fa      	bne.n	1000340a <uart_init+0x22>
10003414:	2100      	movs	r1, #0
10003416:	0028      	movs	r0, r5
10003418:	f7ff ffd2 	bl	100033c0 <uart_set_translate_crlf>
1000341c:	0021      	movs	r1, r4
1000341e:	0028      	movs	r0, r5
10003420:	f7ff ff82 	bl	10003328 <uart_set_baudrate>
10003424:	0006      	movs	r6, r0
10003426:	2300      	movs	r3, #0
10003428:	2201      	movs	r2, #1
1000342a:	2108      	movs	r1, #8
1000342c:	0028      	movs	r0, r5
1000342e:	f7ff ffa9 	bl	10003384 <uart_set_format>
10003432:	002a      	movs	r2, r5
10003434:	322c      	adds	r2, #44	; 0x2c
10003436:	2380      	movs	r3, #128	; 0x80
10003438:	019b      	lsls	r3, r3, #6
1000343a:	4313      	orrs	r3, r2
1000343c:	2210      	movs	r2, #16
1000343e:	601a      	str	r2, [r3, #0]
10003440:	4b08      	ldr	r3, [pc, #32]	; (10003464 <uart_init+0x7c>)
10003442:	632b      	str	r3, [r5, #48]	; 0x30
10003444:	2303      	movs	r3, #3
10003446:	64ab      	str	r3, [r5, #72]	; 0x48
10003448:	0030      	movs	r0, r6
1000344a:	bd70      	pop	{r4, r5, r6, pc}
1000344c:	2280      	movs	r2, #128	; 0x80
1000344e:	0412      	lsls	r2, r2, #16
10003450:	e7d7      	b.n	10003402 <uart_init+0x1a>
10003452:	46c0      	nop			; (mov r8, r8)
10003454:	40038000 	.word	0x40038000
10003458:	4000e000 	.word	0x4000e000
1000345c:	4000f000 	.word	0x4000f000
10003460:	4000c000 	.word	0x4000c000
10003464:	00000301 	.word	0x00000301

10003468 <clock_configure>:
10003468:	b5f8      	push	{r3, r4, r5, r6, r7, lr}
1000346a:	46de      	mov	lr, fp
1000346c:	4657      	mov	r7, sl
1000346e:	464e      	mov	r6, r9
10003470:	4645      	mov	r5, r8
10003472:	b5e0      	push	{r5, r6, r7, lr}
10003474:	0005      	movs	r5, r0
10003476:	000f      	movs	r7, r1
10003478:	4692      	mov	sl, r2
1000347a:	9a0a      	ldr	r2, [sp, #40]	; 0x28
1000347c:	4293      	cmp	r3, r2
1000347e:	d350      	bcc.n	10003522 <clock_configure+0xba>
10003480:	0e1a      	lsrs	r2, r3, #24
10003482:	4691      	mov	r9, r2
10003484:	021e      	lsls	r6, r3, #8
10003486:	9a0a      	ldr	r2, [sp, #40]	; 0x28
10003488:	2300      	movs	r3, #0
1000348a:	0030      	movs	r0, r6
1000348c:	4649      	mov	r1, r9
1000348e:	f001 fc19 	bl	10004cc4 <__wrap___aeabi_uldivmod>
10003492:	4680      	mov	r8, r0
10003494:	006c      	lsls	r4, r5, #1
10003496:	1964      	adds	r4, r4, r5
10003498:	00a4      	lsls	r4, r4, #2
1000349a:	4b30      	ldr	r3, [pc, #192]	; (1000355c <clock_configure+0xf4>)
1000349c:	469c      	mov	ip, r3
1000349e:	4464      	add	r4, ip
100034a0:	6863      	ldr	r3, [r4, #4]
100034a2:	4283      	cmp	r3, r0
100034a4:	d200      	bcs.n	100034a8 <clock_configure+0x40>
100034a6:	6060      	str	r0, [r4, #4]
100034a8:	1f2b      	subs	r3, r5, #4
100034aa:	b2db      	uxtb	r3, r3
100034ac:	469b      	mov	fp, r3
100034ae:	2b01      	cmp	r3, #1
100034b0:	d93d      	bls.n	1000352e <clock_configure+0xc6>
100034b2:	23c0      	movs	r3, #192	; 0xc0
100034b4:	019b      	lsls	r3, r3, #6
100034b6:	4323      	orrs	r3, r4
100034b8:	2280      	movs	r2, #128	; 0x80
100034ba:	0112      	lsls	r2, r2, #4
100034bc:	601a      	str	r2, [r3, #0]
100034be:	00ab      	lsls	r3, r5, #2
100034c0:	4a27      	ldr	r2, [pc, #156]	; (10003560 <clock_configure+0xf8>)
100034c2:	5899      	ldr	r1, [r3, r2]
100034c4:	2900      	cmp	r1, #0
100034c6:	d007      	beq.n	100034d8 <clock_configure+0x70>
100034c8:	6950      	ldr	r0, [r2, #20]
100034ca:	f001 fbbd 	bl	10004c48 <__wrap___aeabi_uidiv>
100034ce:	1c43      	adds	r3, r0, #1
100034d0:	0058      	lsls	r0, r3, #1
100034d2:	18c0      	adds	r0, r0, r3
100034d4:	3803      	subs	r0, #3
100034d6:	d2fd      	bcs.n	100034d4 <clock_configure+0x6c>
100034d8:	4653      	mov	r3, sl
100034da:	015a      	lsls	r2, r3, #5
100034dc:	6823      	ldr	r3, [r4, #0]
100034de:	405a      	eors	r2, r3
100034e0:	23e0      	movs	r3, #224	; 0xe0
100034e2:	401a      	ands	r2, r3
100034e4:	2380      	movs	r3, #128	; 0x80
100034e6:	015b      	lsls	r3, r3, #5
100034e8:	4323      	orrs	r3, r4
100034ea:	601a      	str	r2, [r3, #0]
100034ec:	465a      	mov	r2, fp
100034ee:	2a01      	cmp	r2, #1
100034f0:	d928      	bls.n	10003544 <clock_configure+0xdc>
100034f2:	2380      	movs	r3, #128	; 0x80
100034f4:	019b      	lsls	r3, r3, #6
100034f6:	4323      	orrs	r3, r4
100034f8:	2280      	movs	r2, #128	; 0x80
100034fa:	0112      	lsls	r2, r2, #4
100034fc:	601a      	str	r2, [r3, #0]
100034fe:	4643      	mov	r3, r8
10003500:	6063      	str	r3, [r4, #4]
10003502:	4642      	mov	r2, r8
10003504:	2300      	movs	r3, #0
10003506:	0030      	movs	r0, r6
10003508:	4649      	mov	r1, r9
1000350a:	f001 fbdb 	bl	10004cc4 <__wrap___aeabi_uldivmod>
1000350e:	00ad      	lsls	r5, r5, #2
10003510:	4b13      	ldr	r3, [pc, #76]	; (10003560 <clock_configure+0xf8>)
10003512:	5158      	str	r0, [r3, r5]
10003514:	2001      	movs	r0, #1
10003516:	bcf0      	pop	{r4, r5, r6, r7}
10003518:	46bb      	mov	fp, r7
1000351a:	46b2      	mov	sl, r6
1000351c:	46a9      	mov	r9, r5
1000351e:	46a0      	mov	r8, r4
10003520:	bdf8      	pop	{r3, r4, r5, r6, r7, pc}
10003522:	4b10      	ldr	r3, [pc, #64]	; (10003564 <clock_configure+0xfc>)
10003524:	4a10      	ldr	r2, [pc, #64]	; (10003568 <clock_configure+0x100>)
10003526:	2133      	movs	r1, #51	; 0x33
10003528:	4810      	ldr	r0, [pc, #64]	; (1000356c <clock_configure+0x104>)
1000352a:	f000 f9df 	bl	100038ec <__assert_func>
1000352e:	2f01      	cmp	r7, #1
10003530:	d1bf      	bne.n	100034b2 <clock_configure+0x4a>
10003532:	23c0      	movs	r3, #192	; 0xc0
10003534:	019b      	lsls	r3, r3, #6
10003536:	4323      	orrs	r3, r4
10003538:	2203      	movs	r2, #3
1000353a:	601a      	str	r2, [r3, #0]
1000353c:	68a3      	ldr	r3, [r4, #8]
1000353e:	07db      	lsls	r3, r3, #31
10003540:	d5fc      	bpl.n	1000353c <clock_configure+0xd4>
10003542:	e7c9      	b.n	100034d8 <clock_configure+0x70>
10003544:	6821      	ldr	r1, [r4, #0]
10003546:	4079      	eors	r1, r7
10003548:	2203      	movs	r2, #3
1000354a:	400a      	ands	r2, r1
1000354c:	601a      	str	r2, [r3, #0]
1000354e:	68a2      	ldr	r2, [r4, #8]
10003550:	2301      	movs	r3, #1
10003552:	40bb      	lsls	r3, r7
10003554:	4213      	tst	r3, r2
10003556:	d0fa      	beq.n	1000354e <clock_configure+0xe6>
10003558:	e7cb      	b.n	100034f2 <clock_configure+0x8a>
1000355a:	46c0      	nop			; (mov r8, r8)
1000355c:	40008000 	.word	0x40008000
10003560:	20001e6c 	.word	0x20001e6c
10003564:	1000a28c 	.word	0x1000a28c
10003568:	1000a300 	.word	0x1000a300
1000356c:	1000a2a0 	.word	0x1000a2a0

10003570 <clocks_init>:
10003570:	b530      	push	{r4, r5, lr}
10003572:	b083      	sub	sp, #12
10003574:	200c      	movs	r0, #12
10003576:	f000 f911 	bl	1000379c <watchdog_start_tick>
1000357a:	f7fe f92f 	bl	100017dc <running_on_fpga>
1000357e:	2800      	cmp	r0, #0
10003580:	d00d      	beq.n	1000359e <clocks_init+0x2e>
10003582:	2300      	movs	r3, #0
10003584:	e004      	b.n	10003590 <clocks_init+0x20>
10003586:	0099      	lsls	r1, r3, #2
10003588:	4a2d      	ldr	r2, [pc, #180]	; (10003640 <clocks_init+0xd0>)
1000358a:	482e      	ldr	r0, [pc, #184]	; (10003644 <clocks_init+0xd4>)
1000358c:	5088      	str	r0, [r1, r2]
1000358e:	3301      	adds	r3, #1
10003590:	2b09      	cmp	r3, #9
10003592:	d9f8      	bls.n	10003586 <clocks_init+0x16>
10003594:	4b2a      	ldr	r3, [pc, #168]	; (10003640 <clocks_init+0xd0>)
10003596:	4a2c      	ldr	r2, [pc, #176]	; (10003648 <clocks_init+0xd8>)
10003598:	625a      	str	r2, [r3, #36]	; 0x24
1000359a:	b003      	add	sp, #12
1000359c:	bd30      	pop	{r4, r5, pc}
1000359e:	4b2b      	ldr	r3, [pc, #172]	; (1000364c <clocks_init+0xdc>)
100035a0:	2200      	movs	r2, #0
100035a2:	679a      	str	r2, [r3, #120]	; 0x78
100035a4:	f000 f96c 	bl	10003880 <xosc_init>
100035a8:	4b29      	ldr	r3, [pc, #164]	; (10003650 <clocks_init+0xe0>)
100035aa:	2201      	movs	r2, #1
100035ac:	601a      	str	r2, [r3, #0]
100035ae:	4b27      	ldr	r3, [pc, #156]	; (1000364c <clocks_init+0xdc>)
100035b0:	6c5b      	ldr	r3, [r3, #68]	; 0x44
100035b2:	2b01      	cmp	r3, #1
100035b4:	d1fb      	bne.n	100035ae <clocks_init+0x3e>
100035b6:	4b27      	ldr	r3, [pc, #156]	; (10003654 <clocks_init+0xe4>)
100035b8:	2203      	movs	r2, #3
100035ba:	601a      	str	r2, [r3, #0]
100035bc:	4b23      	ldr	r3, [pc, #140]	; (1000364c <clocks_init+0xdc>)
100035be:	6b9b      	ldr	r3, [r3, #56]	; 0x38
100035c0:	2b01      	cmp	r3, #1
100035c2:	d1fb      	bne.n	100035bc <clocks_init+0x4c>
100035c4:	3301      	adds	r3, #1
100035c6:	9300      	str	r3, [sp, #0]
100035c8:	3304      	adds	r3, #4
100035ca:	4a23      	ldr	r2, [pc, #140]	; (10003658 <clocks_init+0xe8>)
100035cc:	2101      	movs	r1, #1
100035ce:	4823      	ldr	r0, [pc, #140]	; (1000365c <clocks_init+0xec>)
100035d0:	f000 f854 	bl	1000367c <pll_init>
100035d4:	2305      	movs	r3, #5
100035d6:	9300      	str	r3, [sp, #0]
100035d8:	4a21      	ldr	r2, [pc, #132]	; (10003660 <clocks_init+0xf0>)
100035da:	2101      	movs	r1, #1
100035dc:	4821      	ldr	r0, [pc, #132]	; (10003664 <clocks_init+0xf4>)
100035de:	f000 f84d 	bl	1000367c <pll_init>
100035e2:	4b21      	ldr	r3, [pc, #132]	; (10003668 <clocks_init+0xf8>)
100035e4:	9300      	str	r3, [sp, #0]
100035e6:	2200      	movs	r2, #0
100035e8:	2102      	movs	r1, #2
100035ea:	2004      	movs	r0, #4
100035ec:	f7ff ff3c 	bl	10003468 <clock_configure>
100035f0:	4d1e      	ldr	r5, [pc, #120]	; (1000366c <clocks_init+0xfc>)
100035f2:	9500      	str	r5, [sp, #0]
100035f4:	002b      	movs	r3, r5
100035f6:	2200      	movs	r2, #0
100035f8:	2101      	movs	r1, #1
100035fa:	2005      	movs	r0, #5
100035fc:	f7ff ff34 	bl	10003468 <clock_configure>
10003600:	4c10      	ldr	r4, [pc, #64]	; (10003644 <clocks_init+0xd4>)
10003602:	9400      	str	r4, [sp, #0]
10003604:	0023      	movs	r3, r4
10003606:	2200      	movs	r2, #0
10003608:	2100      	movs	r1, #0
1000360a:	2007      	movs	r0, #7
1000360c:	f7ff ff2c 	bl	10003468 <clock_configure>
10003610:	9400      	str	r4, [sp, #0]
10003612:	0023      	movs	r3, r4
10003614:	2200      	movs	r2, #0
10003616:	2100      	movs	r1, #0
10003618:	2008      	movs	r0, #8
1000361a:	f7ff ff25 	bl	10003468 <clock_configure>
1000361e:	4b0a      	ldr	r3, [pc, #40]	; (10003648 <clocks_init+0xd8>)
10003620:	9300      	str	r3, [sp, #0]
10003622:	0023      	movs	r3, r4
10003624:	2200      	movs	r2, #0
10003626:	2100      	movs	r1, #0
10003628:	2009      	movs	r0, #9
1000362a:	f7ff ff1d 	bl	10003468 <clock_configure>
1000362e:	9500      	str	r5, [sp, #0]
10003630:	002b      	movs	r3, r5
10003632:	2200      	movs	r2, #0
10003634:	2100      	movs	r1, #0
10003636:	2006      	movs	r0, #6
10003638:	f7ff ff16 	bl	10003468 <clock_configure>
1000363c:	e7ad      	b.n	1000359a <clocks_init+0x2a>
1000363e:	46c0      	nop			; (mov r8, r8)
10003640:	20001e6c 	.word	0x20001e6c
10003644:	02dc6c00 	.word	0x02dc6c00
10003648:	0000b71b 	.word	0x0000b71b
1000364c:	40008000 	.word	0x40008000
10003650:	4000b03c 	.word	0x4000b03c
10003654:	4000b030 	.word	0x4000b030
10003658:	59682f00 	.word	0x59682f00
1000365c:	40028000 	.word	0x40028000
10003660:	47868c00 	.word	0x47868c00
10003664:	4002c000 	.word	0x4002c000
10003668:	00b71b00 	.word	0x00b71b00
1000366c:	07735940 	.word	0x07735940

10003670 <clock_get_hz>:
10003670:	0080      	lsls	r0, r0, #2
10003672:	4b01      	ldr	r3, [pc, #4]	; (10003678 <clock_get_hz+0x8>)
10003674:	58c0      	ldr	r0, [r0, r3]
10003676:	4770      	bx	lr
10003678:	20001e6c 	.word	0x20001e6c

1000367c <pll_init>:
1000367c:	b5f0      	push	{r4, r5, r6, r7, lr}
1000367e:	46c6      	mov	lr, r8
10003680:	b500      	push	{lr}
10003682:	0004      	movs	r4, r0
10003684:	000e      	movs	r6, r1
10003686:	0017      	movs	r7, r2
10003688:	001d      	movs	r5, r3
1000368a:	4837      	ldr	r0, [pc, #220]	; (10003768 <pll_init+0xec>)
1000368c:	f001 fadc 	bl	10004c48 <__wrap___aeabi_uidiv>
10003690:	4680      	mov	r8, r0
10003692:	4b36      	ldr	r3, [pc, #216]	; (1000376c <pll_init+0xf0>)
10003694:	18fa      	adds	r2, r7, r3
10003696:	4b36      	ldr	r3, [pc, #216]	; (10003770 <pll_init+0xf4>)
10003698:	429a      	cmp	r2, r3
1000369a:	d839      	bhi.n	10003710 <pll_init+0x94>
1000369c:	0001      	movs	r1, r0
1000369e:	0038      	movs	r0, r7
100036a0:	f001 fad2 	bl	10004c48 <__wrap___aeabi_uidiv>
100036a4:	0002      	movs	r2, r0
100036a6:	3a10      	subs	r2, #16
100036a8:	2398      	movs	r3, #152	; 0x98
100036aa:	005b      	lsls	r3, r3, #1
100036ac:	429a      	cmp	r2, r3
100036ae:	d835      	bhi.n	1000371c <pll_init+0xa0>
100036b0:	1e6b      	subs	r3, r5, #1
100036b2:	2b06      	cmp	r3, #6
100036b4:	d838      	bhi.n	10003728 <pll_init+0xac>
100036b6:	9b06      	ldr	r3, [sp, #24]
100036b8:	3b01      	subs	r3, #1
100036ba:	2b06      	cmp	r3, #6
100036bc:	d834      	bhi.n	10003728 <pll_init+0xac>
100036be:	093f      	lsrs	r7, r7, #4
100036c0:	4547      	cmp	r7, r8
100036c2:	d337      	bcc.n	10003734 <pll_init+0xb8>
100036c4:	042d      	lsls	r5, r5, #16
100036c6:	9b06      	ldr	r3, [sp, #24]
100036c8:	031a      	lsls	r2, r3, #12
100036ca:	4315      	orrs	r5, r2
100036cc:	6823      	ldr	r3, [r4, #0]
100036ce:	2b00      	cmp	r3, #0
100036d0:	db36      	blt.n	10003740 <pll_init+0xc4>
100036d2:	4b28      	ldr	r3, [pc, #160]	; (10003774 <pll_init+0xf8>)
100036d4:	429c      	cmp	r4, r3
100036d6:	d044      	beq.n	10003762 <pll_init+0xe6>
100036d8:	2280      	movs	r2, #128	; 0x80
100036da:	0152      	lsls	r2, r2, #5
100036dc:	4b26      	ldr	r3, [pc, #152]	; (10003778 <pll_init+0xfc>)
100036de:	601a      	str	r2, [r3, #0]
100036e0:	4b26      	ldr	r3, [pc, #152]	; (1000377c <pll_init+0x100>)
100036e2:	601a      	str	r2, [r3, #0]
100036e4:	4b26      	ldr	r3, [pc, #152]	; (10003780 <pll_init+0x104>)
100036e6:	689b      	ldr	r3, [r3, #8]
100036e8:	0011      	movs	r1, r2
100036ea:	4399      	bics	r1, r3
100036ec:	d1fa      	bne.n	100036e4 <pll_init+0x68>
100036ee:	6026      	str	r6, [r4, #0]
100036f0:	60a0      	str	r0, [r4, #8]
100036f2:	1d23      	adds	r3, r4, #4
100036f4:	22c0      	movs	r2, #192	; 0xc0
100036f6:	0192      	lsls	r2, r2, #6
100036f8:	431a      	orrs	r2, r3
100036fa:	2321      	movs	r3, #33	; 0x21
100036fc:	6013      	str	r3, [r2, #0]
100036fe:	6823      	ldr	r3, [r4, #0]
10003700:	2b00      	cmp	r3, #0
10003702:	dafc      	bge.n	100036fe <pll_init+0x82>
10003704:	60e5      	str	r5, [r4, #12]
10003706:	2308      	movs	r3, #8
10003708:	6013      	str	r3, [r2, #0]
1000370a:	bc80      	pop	{r7}
1000370c:	46b8      	mov	r8, r7
1000370e:	bdf0      	pop	{r4, r5, r6, r7, pc}
10003710:	4b1c      	ldr	r3, [pc, #112]	; (10003784 <pll_init+0x108>)
10003712:	4a1d      	ldr	r2, [pc, #116]	; (10003788 <pll_init+0x10c>)
10003714:	2111      	movs	r1, #17
10003716:	481d      	ldr	r0, [pc, #116]	; (1000378c <pll_init+0x110>)
10003718:	f000 f8e8 	bl	100038ec <__assert_func>
1000371c:	4b1c      	ldr	r3, [pc, #112]	; (10003790 <pll_init+0x114>)
1000371e:	4a1a      	ldr	r2, [pc, #104]	; (10003788 <pll_init+0x10c>)
10003720:	2119      	movs	r1, #25
10003722:	481a      	ldr	r0, [pc, #104]	; (1000378c <pll_init+0x110>)
10003724:	f000 f8e2 	bl	100038ec <__assert_func>
10003728:	4b1a      	ldr	r3, [pc, #104]	; (10003794 <pll_init+0x118>)
1000372a:	4a17      	ldr	r2, [pc, #92]	; (10003788 <pll_init+0x10c>)
1000372c:	211c      	movs	r1, #28
1000372e:	4817      	ldr	r0, [pc, #92]	; (1000378c <pll_init+0x110>)
10003730:	f000 f8dc 	bl	100038ec <__assert_func>
10003734:	4b18      	ldr	r3, [pc, #96]	; (10003798 <pll_init+0x11c>)
10003736:	4a14      	ldr	r2, [pc, #80]	; (10003788 <pll_init+0x10c>)
10003738:	2123      	movs	r1, #35	; 0x23
1000373a:	4814      	ldr	r0, [pc, #80]	; (1000378c <pll_init+0x110>)
1000373c:	f000 f8d6 	bl	100038ec <__assert_func>
10003740:	6822      	ldr	r2, [r4, #0]
10003742:	233f      	movs	r3, #63	; 0x3f
10003744:	4013      	ands	r3, r2
10003746:	42b3      	cmp	r3, r6
10003748:	d1c3      	bne.n	100036d2 <pll_init+0x56>
1000374a:	68a3      	ldr	r3, [r4, #8]
1000374c:	051b      	lsls	r3, r3, #20
1000374e:	0d1b      	lsrs	r3, r3, #20
10003750:	4283      	cmp	r3, r0
10003752:	d1be      	bne.n	100036d2 <pll_init+0x56>
10003754:	68e3      	ldr	r3, [r4, #12]
10003756:	22ee      	movs	r2, #238	; 0xee
10003758:	02d2      	lsls	r2, r2, #11
1000375a:	4013      	ands	r3, r2
1000375c:	42ab      	cmp	r3, r5
1000375e:	d1b8      	bne.n	100036d2 <pll_init+0x56>
10003760:	e7d3      	b.n	1000370a <pll_init+0x8e>
10003762:	2280      	movs	r2, #128	; 0x80
10003764:	0192      	lsls	r2, r2, #6
10003766:	e7b9      	b.n	100036dc <pll_init+0x60>
10003768:	00b71b00 	.word	0x00b71b00
1000376c:	d34be880 	.word	0xd34be880
10003770:	32a9f880 	.word	0x32a9f880
10003774:	4002c000 	.word	0x4002c000
10003778:	4000e000 	.word	0x4000e000
1000377c:	4000f000 	.word	0x4000f000
10003780:	4000c000 	.word	0x4000c000
10003784:	1000a310 	.word	0x1000a310
10003788:	1000a450 	.word	0x1000a450
1000378c:	1000a370 	.word	0x1000a370
10003790:	1000a3cc 	.word	0x1000a3cc
10003794:	1000a3e8 	.word	0x1000a3e8
10003798:	1000a434 	.word	0x1000a434

1000379c <watchdog_start_tick>:
1000379c:	2380      	movs	r3, #128	; 0x80
1000379e:	009b      	lsls	r3, r3, #2
100037a0:	4303      	orrs	r3, r0
100037a2:	4a01      	ldr	r2, [pc, #4]	; (100037a8 <watchdog_start_tick+0xc>)
100037a4:	62d3      	str	r3, [r2, #44]	; 0x2c
100037a6:	4770      	bx	lr
100037a8:	40058000 	.word	0x40058000

100037ac <watchdog_update>:
100037ac:	4b02      	ldr	r3, [pc, #8]	; (100037b8 <watchdog_update+0xc>)
100037ae:	681a      	ldr	r2, [r3, #0]
100037b0:	4b02      	ldr	r3, [pc, #8]	; (100037bc <watchdog_update+0x10>)
100037b2:	605a      	str	r2, [r3, #4]
100037b4:	4770      	bx	lr
100037b6:	46c0      	nop			; (mov r8, r8)
100037b8:	20002314 	.word	0x20002314
100037bc:	40058000 	.word	0x40058000

100037c0 <_watchdog_enable>:
100037c0:	b510      	push	{r4, lr}
100037c2:	0002      	movs	r2, r0
100037c4:	4b16      	ldr	r3, [pc, #88]	; (10003820 <_watchdog_enable+0x60>)
100037c6:	2080      	movs	r0, #128	; 0x80
100037c8:	05c0      	lsls	r0, r0, #23
100037ca:	6018      	str	r0, [r3, #0]
100037cc:	4b15      	ldr	r3, [pc, #84]	; (10003824 <_watchdog_enable+0x64>)
100037ce:	4816      	ldr	r0, [pc, #88]	; (10003828 <_watchdog_enable+0x68>)
100037d0:	6018      	str	r0, [r3, #0]
100037d2:	2900      	cmp	r1, #0
100037d4:	d00a      	beq.n	100037ec <_watchdog_enable+0x2c>
100037d6:	4b15      	ldr	r3, [pc, #84]	; (1000382c <_watchdog_enable+0x6c>)
100037d8:	21e0      	movs	r1, #224	; 0xe0
100037da:	04c9      	lsls	r1, r1, #19
100037dc:	6019      	str	r1, [r3, #0]
100037de:	2a00      	cmp	r2, #0
100037e0:	d109      	bne.n	100037f6 <_watchdog_enable+0x36>
100037e2:	4b12      	ldr	r3, [pc, #72]	; (1000382c <_watchdog_enable+0x6c>)
100037e4:	2280      	movs	r2, #128	; 0x80
100037e6:	0612      	lsls	r2, r2, #24
100037e8:	601a      	str	r2, [r3, #0]
100037ea:	bd10      	pop	{r4, pc}
100037ec:	4b0c      	ldr	r3, [pc, #48]	; (10003820 <_watchdog_enable+0x60>)
100037ee:	21e0      	movs	r1, #224	; 0xe0
100037f0:	04c9      	lsls	r1, r1, #19
100037f2:	6019      	str	r1, [r3, #0]
100037f4:	e7f3      	b.n	100037de <_watchdog_enable+0x1e>
100037f6:	0153      	lsls	r3, r2, #5
100037f8:	1a9b      	subs	r3, r3, r2
100037fa:	0098      	lsls	r0, r3, #2
100037fc:	1880      	adds	r0, r0, r2
100037fe:	0100      	lsls	r0, r0, #4
10003800:	4b0b      	ldr	r3, [pc, #44]	; (10003830 <_watchdog_enable+0x70>)
10003802:	6018      	str	r0, [r3, #0]
10003804:	2380      	movs	r3, #128	; 0x80
10003806:	045b      	lsls	r3, r3, #17
10003808:	4298      	cmp	r0, r3
1000380a:	d302      	bcc.n	10003812 <_watchdog_enable+0x52>
1000380c:	4b08      	ldr	r3, [pc, #32]	; (10003830 <_watchdog_enable+0x70>)
1000380e:	4a09      	ldr	r2, [pc, #36]	; (10003834 <_watchdog_enable+0x74>)
10003810:	601a      	str	r2, [r3, #0]
10003812:	f7ff ffcb 	bl	100037ac <watchdog_update>
10003816:	4b05      	ldr	r3, [pc, #20]	; (1000382c <_watchdog_enable+0x6c>)
10003818:	2280      	movs	r2, #128	; 0x80
1000381a:	05d2      	lsls	r2, r2, #23
1000381c:	601a      	str	r2, [r3, #0]
1000381e:	e7e4      	b.n	100037ea <_watchdog_enable+0x2a>
10003820:	4005b000 	.word	0x4005b000
10003824:	40012008 	.word	0x40012008
10003828:	0001fffc 	.word	0x0001fffc
1000382c:	4005a000 	.word	0x4005a000
10003830:	20002314 	.word	0x20002314
10003834:	00ffffff 	.word	0x00ffffff

10003838 <watchdog_reboot>:
10003838:	b510      	push	{r4, lr}
1000383a:	0003      	movs	r3, r0
1000383c:	0010      	movs	r0, r2
1000383e:	4a0c      	ldr	r2, [pc, #48]	; (10003870 <watchdog_reboot+0x38>)
10003840:	2480      	movs	r4, #128	; 0x80
10003842:	05e4      	lsls	r4, r4, #23
10003844:	6014      	str	r4, [r2, #0]
10003846:	2b00      	cmp	r3, #0
10003848:	d00d      	beq.n	10003866 <watchdog_reboot+0x2e>
1000384a:	2201      	movs	r2, #1
1000384c:	4313      	orrs	r3, r2
1000384e:	4a09      	ldr	r2, [pc, #36]	; (10003874 <watchdog_reboot+0x3c>)
10003850:	4c09      	ldr	r4, [pc, #36]	; (10003878 <watchdog_reboot+0x40>)
10003852:	61d4      	str	r4, [r2, #28]
10003854:	4c09      	ldr	r4, [pc, #36]	; (1000387c <watchdog_reboot+0x44>)
10003856:	405c      	eors	r4, r3
10003858:	6214      	str	r4, [r2, #32]
1000385a:	6251      	str	r1, [r2, #36]	; 0x24
1000385c:	6293      	str	r3, [r2, #40]	; 0x28
1000385e:	2100      	movs	r1, #0
10003860:	f7ff ffae 	bl	100037c0 <_watchdog_enable>
10003864:	bd10      	pop	{r4, pc}
10003866:	4b03      	ldr	r3, [pc, #12]	; (10003874 <watchdog_reboot+0x3c>)
10003868:	2200      	movs	r2, #0
1000386a:	61da      	str	r2, [r3, #28]
1000386c:	e7f7      	b.n	1000385e <watchdog_reboot+0x26>
1000386e:	46c0      	nop			; (mov r8, r8)
10003870:	4005b000 	.word	0x4005b000
10003874:	40058000 	.word	0x40058000
10003878:	b007c0d3 	.word	0xb007c0d3
1000387c:	4ff83f2d 	.word	0x4ff83f2d

10003880 <xosc_init>:
10003880:	4b06      	ldr	r3, [pc, #24]	; (1000389c <xosc_init+0x1c>)
10003882:	22aa      	movs	r2, #170	; 0xaa
10003884:	0112      	lsls	r2, r2, #4
10003886:	601a      	str	r2, [r3, #0]
10003888:	222f      	movs	r2, #47	; 0x2f
1000388a:	60da      	str	r2, [r3, #12]
1000388c:	4b04      	ldr	r3, [pc, #16]	; (100038a0 <xosc_init+0x20>)
1000388e:	4a05      	ldr	r2, [pc, #20]	; (100038a4 <xosc_init+0x24>)
10003890:	601a      	str	r2, [r3, #0]
10003892:	4b02      	ldr	r3, [pc, #8]	; (1000389c <xosc_init+0x1c>)
10003894:	685b      	ldr	r3, [r3, #4]
10003896:	2b00      	cmp	r3, #0
10003898:	dafb      	bge.n	10003892 <xosc_init+0x12>
1000389a:	4770      	bx	lr
1000389c:	40024000 	.word	0x40024000
100038a0:	40026000 	.word	0x40026000
100038a4:	00fab000 	.word	0x00fab000

100038a8 <_exit>:
100038a8:	be00      	bkpt	0x0000
100038aa:	e7fd      	b.n	100038a8 <_exit>

100038ac <_sbrk>:
100038ac:	0003      	movs	r3, r0
100038ae:	4a0a      	ldr	r2, [pc, #40]	; (100038d8 <_sbrk+0x2c>)
100038b0:	6812      	ldr	r2, [r2, #0]
100038b2:	2a00      	cmp	r2, #0
100038b4:	d008      	beq.n	100038c8 <_sbrk+0x1c>
100038b6:	4a08      	ldr	r2, [pc, #32]	; (100038d8 <_sbrk+0x2c>)
100038b8:	6810      	ldr	r0, [r2, #0]
100038ba:	18c3      	adds	r3, r0, r3
100038bc:	4a07      	ldr	r2, [pc, #28]	; (100038dc <_sbrk+0x30>)
100038be:	429a      	cmp	r2, r3
100038c0:	d306      	bcc.n	100038d0 <_sbrk+0x24>
100038c2:	4a05      	ldr	r2, [pc, #20]	; (100038d8 <_sbrk+0x2c>)
100038c4:	6013      	str	r3, [r2, #0]
100038c6:	4770      	bx	lr
100038c8:	4a03      	ldr	r2, [pc, #12]	; (100038d8 <_sbrk+0x2c>)
100038ca:	4905      	ldr	r1, [pc, #20]	; (100038e0 <_sbrk+0x34>)
100038cc:	6011      	str	r1, [r2, #0]
100038ce:	e7f2      	b.n	100038b6 <_sbrk+0xa>
100038d0:	2001      	movs	r0, #1
100038d2:	4240      	negs	r0, r0
100038d4:	e7f7      	b.n	100038c6 <_sbrk+0x1a>
100038d6:	46c0      	nop			; (mov r8, r8)
100038d8:	20001f10 	.word	0x20001f10
100038dc:	20040000 	.word	0x20040000
100038e0:	20002598 	.word	0x20002598

100038e4 <exit>:
100038e4:	b510      	push	{r4, lr}
100038e6:	f7ff ffdf 	bl	100038a8 <_exit>
	...

100038ec <__assert_func>:
100038ec:	b510      	push	{r4, lr}
100038ee:	b082      	sub	sp, #8
100038f0:	000c      	movs	r4, r1
100038f2:	0019      	movs	r1, r3
100038f4:	2a00      	cmp	r2, #0
100038f6:	d00c      	beq.n	10003912 <__assert_func+0x26>
100038f8:	4b08      	ldr	r3, [pc, #32]	; (1000391c <__assert_func+0x30>)
100038fa:	2a00      	cmp	r2, #0
100038fc:	d00b      	beq.n	10003916 <__assert_func+0x2a>
100038fe:	9201      	str	r2, [sp, #4]
10003900:	9300      	str	r3, [sp, #0]
10003902:	0023      	movs	r3, r4
10003904:	0002      	movs	r2, r0
10003906:	4806      	ldr	r0, [pc, #24]	; (10003920 <__assert_func+0x34>)
10003908:	f002 fbbe 	bl	10006088 <__wrap_printf>
1000390c:	2001      	movs	r0, #1
1000390e:	f7ff ffcb 	bl	100038a8 <_exit>
10003912:	4b04      	ldr	r3, [pc, #16]	; (10003924 <__assert_func+0x38>)
10003914:	e7f1      	b.n	100038fa <__assert_func+0xe>
10003916:	4a03      	ldr	r2, [pc, #12]	; (10003924 <__assert_func+0x38>)
10003918:	e7f1      	b.n	100038fe <__assert_func+0x12>
1000391a:	46c0      	nop			; (mov r8, r8)
1000391c:	1000a45c 	.word	0x1000a45c
10003920:	1000a46c 	.word	0x1000a46c
10003924:	1000975c 	.word	0x1000975c

10003928 <runtime_init>:
10003928:	b570      	push	{r4, r5, r6, lr}
1000392a:	4b2b      	ldr	r3, [pc, #172]	; (100039d8 <runtime_init+0xb0>)
1000392c:	4a2b      	ldr	r2, [pc, #172]	; (100039dc <runtime_init+0xb4>)
1000392e:	601a      	str	r2, [r3, #0]
10003930:	4b2b      	ldr	r3, [pc, #172]	; (100039e0 <runtime_init+0xb8>)
10003932:	4a2c      	ldr	r2, [pc, #176]	; (100039e4 <runtime_init+0xbc>)
10003934:	601a      	str	r2, [r3, #0]
10003936:	4b2c      	ldr	r3, [pc, #176]	; (100039e8 <runtime_init+0xc0>)
10003938:	689a      	ldr	r2, [r3, #8]
1000393a:	4b2a      	ldr	r3, [pc, #168]	; (100039e4 <runtime_init+0xbc>)
1000393c:	4393      	bics	r3, r2
1000393e:	d1fa      	bne.n	10003936 <runtime_init+0xe>
10003940:	4c2a      	ldr	r4, [pc, #168]	; (100039ec <runtime_init+0xc4>)
10003942:	e001      	b.n	10003948 <runtime_init+0x20>
10003944:	cc08      	ldmia	r4!, {r3}
10003946:	4798      	blx	r3
10003948:	4b29      	ldr	r3, [pc, #164]	; (100039f0 <runtime_init+0xc8>)
1000394a:	429c      	cmp	r4, r3
1000394c:	d3fa      	bcc.n	10003944 <runtime_init+0x1c>
1000394e:	f7ff fe0f 	bl	10003570 <clocks_init>
10003952:	4b23      	ldr	r3, [pc, #140]	; (100039e0 <runtime_init+0xb8>)
10003954:	4a27      	ldr	r2, [pc, #156]	; (100039f4 <runtime_init+0xcc>)
10003956:	601a      	str	r2, [r3, #0]
10003958:	4b23      	ldr	r3, [pc, #140]	; (100039e8 <runtime_init+0xc0>)
1000395a:	689b      	ldr	r3, [r3, #8]
1000395c:	43db      	mvns	r3, r3
1000395e:	01db      	lsls	r3, r3, #7
10003960:	d1fa      	bne.n	10003958 <runtime_init+0x30>
10003962:	4b25      	ldr	r3, [pc, #148]	; (100039f8 <runtime_init+0xd0>)
10003964:	2240      	movs	r2, #64	; 0x40
10003966:	679a      	str	r2, [r3, #120]	; 0x78
10003968:	675a      	str	r2, [r3, #116]	; 0x74
1000396a:	671a      	str	r2, [r3, #112]	; 0x70
1000396c:	66da      	str	r2, [r3, #108]	; 0x6c
1000396e:	4c23      	ldr	r4, [pc, #140]	; (100039fc <runtime_init+0xd4>)
10003970:	e009      	b.n	10003986 <runtime_init+0x5e>
10003972:	4b23      	ldr	r3, [pc, #140]	; (10003a00 <runtime_init+0xd8>)
10003974:	4a23      	ldr	r2, [pc, #140]	; (10003a04 <runtime_init+0xdc>)
10003976:	2187      	movs	r1, #135	; 0x87
10003978:	4823      	ldr	r0, [pc, #140]	; (10003a08 <runtime_init+0xe0>)
1000397a:	f7ff ffb7 	bl	100038ec <__assert_func>
1000397e:	0020      	movs	r0, r4
10003980:	f7fe fb26 	bl	10001fd0 <mutex_init>
10003984:	3408      	adds	r4, #8
10003986:	4b21      	ldr	r3, [pc, #132]	; (10003a0c <runtime_init+0xe4>)
10003988:	429c      	cmp	r4, r3
1000398a:	d209      	bcs.n	100039a0 <runtime_init+0x78>
1000398c:	6823      	ldr	r3, [r4, #0]
1000398e:	2b00      	cmp	r3, #0
10003990:	d0f5      	beq.n	1000397e <runtime_init+0x56>
10003992:	2b01      	cmp	r3, #1
10003994:	d1ed      	bne.n	10003972 <runtime_init+0x4a>
10003996:	0020      	movs	r0, r4
10003998:	f7fe fb27 	bl	10001fea <recursive_mutex_init>
1000399c:	3408      	adds	r4, #8
1000399e:	e7f2      	b.n	10003986 <runtime_init+0x5e>
100039a0:	4c1b      	ldr	r4, [pc, #108]	; (10003a10 <runtime_init+0xe8>)
100039a2:	68a1      	ldr	r1, [r4, #8]
100039a4:	4d1b      	ldr	r5, [pc, #108]	; (10003a14 <runtime_init+0xec>)
100039a6:	22c0      	movs	r2, #192	; 0xc0
100039a8:	0028      	movs	r0, r5
100039aa:	f002 fa15 	bl	10005dd8 <__wrap___aeabi_memcpy>
100039ae:	60a5      	str	r5, [r4, #8]
100039b0:	f3ef 8305 	mrs	r3, IPSR
100039b4:	2b00      	cmp	r3, #0
100039b6:	d000      	beq.n	100039ba <runtime_init+0x92>
100039b8:	be00      	bkpt	0x0000
100039ba:	f7fd ff71 	bl	100018a0 <spin_locks_reset>
100039be:	f7fe facd 	bl	10001f5c <irq_init_priorities>
100039c2:	f7fe fe75 	bl	100026b0 <alarm_pool_init_default>
100039c6:	4c14      	ldr	r4, [pc, #80]	; (10003a18 <runtime_init+0xf0>)
100039c8:	e001      	b.n	100039ce <runtime_init+0xa6>
100039ca:	cc08      	ldmia	r4!, {r3}
100039cc:	4798      	blx	r3
100039ce:	4b13      	ldr	r3, [pc, #76]	; (10003a1c <runtime_init+0xf4>)
100039d0:	429c      	cmp	r4, r3
100039d2:	d3fa      	bcc.n	100039ca <runtime_init+0xa2>
100039d4:	bd70      	pop	{r4, r5, r6, pc}
100039d6:	46c0      	nop			; (mov r8, r8)
100039d8:	4000e000 	.word	0x4000e000
100039dc:	fefbcdbf 	.word	0xfefbcdbf
100039e0:	4000f000 	.word	0x4000f000
100039e4:	003c7ffe 	.word	0x003c7ffe
100039e8:	4000c000 	.word	0x4000c000
100039ec:	20001648 	.word	0x20001648
100039f0:	20001658 	.word	0x20001658
100039f4:	01ffffff 	.word	0x01ffffff
100039f8:	4001f000 	.word	0x4001f000
100039fc:	20001638 	.word	0x20001638
10003a00:	1000a49c 	.word	0x1000a49c
10003a04:	1000a52c 	.word	0x1000a52c
10003a08:	1000a4bc 	.word	0x1000a4bc
10003a0c:	20001648 	.word	0x20001648
10003a10:	e000ed00 	.word	0xe000ed00
10003a14:	20000000 	.word	0x20000000
10003a18:	20001658 	.word	0x20001658
10003a1c:	20001660 	.word	0x20001660

10003a20 <panic>:
10003a20:	b40f      	push	{r0, r1, r2, r3}
10003a22:	b500      	push	{lr}
10003a24:	b083      	sub	sp, #12
10003a26:	4808      	ldr	r0, [pc, #32]	; (10003a48 <panic+0x28>)
10003a28:	f002 fafe 	bl	10006028 <__wrap_puts>
10003a2c:	9b04      	ldr	r3, [sp, #16]
10003a2e:	2b00      	cmp	r3, #0
10003a30:	d007      	beq.n	10003a42 <panic+0x22>
10003a32:	a905      	add	r1, sp, #20
10003a34:	9101      	str	r1, [sp, #4]
10003a36:	0018      	movs	r0, r3
10003a38:	f002 fb06 	bl	10006048 <__wrap_vprintf>
10003a3c:	4803      	ldr	r0, [pc, #12]	; (10003a4c <panic+0x2c>)
10003a3e:	f002 faf3 	bl	10006028 <__wrap_puts>
10003a42:	2001      	movs	r0, #1
10003a44:	f7ff ff30 	bl	100038a8 <_exit>
10003a48:	1000a51c 	.word	0x1000a51c
10003a4c:	10009874 	.word	0x10009874

10003a50 <_out_null>:
10003a50:	4770      	bx	lr

10003a52 <_out_fct>:
10003a52:	b510      	push	{r4, lr}
10003a54:	2800      	cmp	r0, #0
10003a56:	d002      	beq.n	10003a5e <_out_fct+0xc>
10003a58:	680b      	ldr	r3, [r1, #0]
10003a5a:	6849      	ldr	r1, [r1, #4]
10003a5c:	4798      	blx	r3
10003a5e:	bd10      	pop	{r4, pc}

10003a60 <_atoi>:
10003a60:	0001      	movs	r1, r0
10003a62:	2000      	movs	r0, #0
10003a64:	e007      	b.n	10003a76 <_atoi+0x16>
10003a66:	0083      	lsls	r3, r0, #2
10003a68:	181b      	adds	r3, r3, r0
10003a6a:	005b      	lsls	r3, r3, #1
10003a6c:	1c50      	adds	r0, r2, #1
10003a6e:	6008      	str	r0, [r1, #0]
10003a70:	7810      	ldrb	r0, [r2, #0]
10003a72:	18c0      	adds	r0, r0, r3
10003a74:	3830      	subs	r0, #48	; 0x30
10003a76:	680a      	ldr	r2, [r1, #0]
10003a78:	7813      	ldrb	r3, [r2, #0]
10003a7a:	3b30      	subs	r3, #48	; 0x30
10003a7c:	b2db      	uxtb	r3, r3
10003a7e:	2b09      	cmp	r3, #9
10003a80:	d9f1      	bls.n	10003a66 <_atoi+0x6>
10003a82:	4770      	bx	lr

10003a84 <_out_rev>:
10003a84:	b5f0      	push	{r4, r5, r6, r7, lr}
10003a86:	46de      	mov	lr, fp
10003a88:	4657      	mov	r7, sl
10003a8a:	464e      	mov	r6, r9
10003a8c:	4645      	mov	r5, r8
10003a8e:	b5e0      	push	{r5, r6, r7, lr}
10003a90:	b083      	sub	sp, #12
10003a92:	4693      	mov	fp, r2
10003a94:	001f      	movs	r7, r3
10003a96:	9b0c      	ldr	r3, [sp, #48]	; 0x30
10003a98:	469a      	mov	sl, r3
10003a9a:	9c0d      	ldr	r4, [sp, #52]	; 0x34
10003a9c:	9b0e      	ldr	r3, [sp, #56]	; 0x38
10003a9e:	4699      	mov	r9, r3
10003aa0:	9b0f      	ldr	r3, [sp, #60]	; 0x3c
10003aa2:	079b      	lsls	r3, r3, #30
10003aa4:	d003      	beq.n	10003aae <_out_rev+0x2a>
10003aa6:	46b8      	mov	r8, r7
10003aa8:	000f      	movs	r7, r1
10003aaa:	0006      	movs	r6, r0
10003aac:	e022      	b.n	10003af4 <_out_rev+0x70>
10003aae:	9201      	str	r2, [sp, #4]
10003ab0:	46a3      	mov	fp, r4
10003ab2:	4688      	mov	r8, r1
10003ab4:	464e      	mov	r6, r9
10003ab6:	46b9      	mov	r9, r7
10003ab8:	0007      	movs	r7, r0
10003aba:	42b4      	cmp	r4, r6
10003abc:	d207      	bcs.n	10003ace <_out_rev+0x4a>
10003abe:	1c55      	adds	r5, r2, #1
10003ac0:	464b      	mov	r3, r9
10003ac2:	4641      	mov	r1, r8
10003ac4:	2020      	movs	r0, #32
10003ac6:	47b8      	blx	r7
10003ac8:	3401      	adds	r4, #1
10003aca:	002a      	movs	r2, r5
10003acc:	e7f5      	b.n	10003aba <_out_rev+0x36>
10003ace:	003d      	movs	r5, r7
10003ad0:	464f      	mov	r7, r9
10003ad2:	465c      	mov	r4, fp
10003ad4:	9b01      	ldr	r3, [sp, #4]
10003ad6:	469b      	mov	fp, r3
10003ad8:	46b1      	mov	r9, r6
10003ada:	4646      	mov	r6, r8
10003adc:	46b8      	mov	r8, r7
10003ade:	0037      	movs	r7, r6
10003ae0:	002e      	movs	r6, r5
10003ae2:	e007      	b.n	10003af4 <_out_rev+0x70>
10003ae4:	3c01      	subs	r4, #1
10003ae6:	1c55      	adds	r5, r2, #1
10003ae8:	4653      	mov	r3, sl
10003aea:	5d18      	ldrb	r0, [r3, r4]
10003aec:	4643      	mov	r3, r8
10003aee:	0039      	movs	r1, r7
10003af0:	47b0      	blx	r6
10003af2:	002a      	movs	r2, r5
10003af4:	2c00      	cmp	r4, #0
10003af6:	d1f5      	bne.n	10003ae4 <_out_rev+0x60>
10003af8:	0035      	movs	r5, r6
10003afa:	003e      	movs	r6, r7
10003afc:	4647      	mov	r7, r8
10003afe:	9b0f      	ldr	r3, [sp, #60]	; 0x3c
10003b00:	079b      	lsls	r3, r3, #30
10003b02:	d407      	bmi.n	10003b14 <_out_rev+0x90>
10003b04:	0010      	movs	r0, r2
10003b06:	b003      	add	sp, #12
10003b08:	bcf0      	pop	{r4, r5, r6, r7}
10003b0a:	46bb      	mov	fp, r7
10003b0c:	46b2      	mov	sl, r6
10003b0e:	46a9      	mov	r9, r5
10003b10:	46a0      	mov	r8, r4
10003b12:	bdf0      	pop	{r4, r5, r6, r7, pc}
10003b14:	46b0      	mov	r8, r6
10003b16:	464e      	mov	r6, r9
10003b18:	46b9      	mov	r9, r7
10003b1a:	002f      	movs	r7, r5
10003b1c:	465d      	mov	r5, fp
10003b1e:	1b53      	subs	r3, r2, r5
10003b20:	42b3      	cmp	r3, r6
10003b22:	d2ef      	bcs.n	10003b04 <_out_rev+0x80>
10003b24:	1c54      	adds	r4, r2, #1
10003b26:	464b      	mov	r3, r9
10003b28:	4641      	mov	r1, r8
10003b2a:	2020      	movs	r0, #32
10003b2c:	47b8      	blx	r7
10003b2e:	0022      	movs	r2, r4
10003b30:	e7f5      	b.n	10003b1e <_out_rev+0x9a>

10003b32 <_ntoa_format>:
10003b32:	b5f0      	push	{r4, r5, r6, r7, lr}
10003b34:	46ce      	mov	lr, r9
10003b36:	4647      	mov	r7, r8
10003b38:	b580      	push	{r7, lr}
10003b3a:	b085      	sub	sp, #20
10003b3c:	4694      	mov	ip, r2
10003b3e:	4698      	mov	r8, r3
10003b40:	9d0c      	ldr	r5, [sp, #48]	; 0x30
10003b42:	9c0d      	ldr	r4, [sp, #52]	; 0x34
10003b44:	ab0e      	add	r3, sp, #56	; 0x38
10003b46:	781b      	ldrb	r3, [r3, #0]
10003b48:	4699      	mov	r9, r3
10003b4a:	9a10      	ldr	r2, [sp, #64]	; 0x40
10003b4c:	9b11      	ldr	r3, [sp, #68]	; 0x44
10003b4e:	9e12      	ldr	r6, [sp, #72]	; 0x48
10003b50:	07b7      	lsls	r7, r6, #30
10003b52:	d41c      	bmi.n	10003b8e <_ntoa_format+0x5c>
10003b54:	2b00      	cmp	r3, #0
10003b56:	d00c      	beq.n	10003b72 <_ntoa_format+0x40>
10003b58:	07f7      	lsls	r7, r6, #31
10003b5a:	d50a      	bpl.n	10003b72 <_ntoa_format+0x40>
10003b5c:	464f      	mov	r7, r9
10003b5e:	2f00      	cmp	r7, #0
10003b60:	d102      	bne.n	10003b68 <_ntoa_format+0x36>
10003b62:	370c      	adds	r7, #12
10003b64:	4237      	tst	r7, r6
10003b66:	d004      	beq.n	10003b72 <_ntoa_format+0x40>
10003b68:	3b01      	subs	r3, #1
10003b6a:	e002      	b.n	10003b72 <_ntoa_format+0x40>
10003b6c:	2730      	movs	r7, #48	; 0x30
10003b6e:	552f      	strb	r7, [r5, r4]
10003b70:	3401      	adds	r4, #1
10003b72:	4294      	cmp	r4, r2
10003b74:	d201      	bcs.n	10003b7a <_ntoa_format+0x48>
10003b76:	2c1f      	cmp	r4, #31
10003b78:	d9f8      	bls.n	10003b6c <_ntoa_format+0x3a>
10003b7a:	07f7      	lsls	r7, r6, #31
10003b7c:	d507      	bpl.n	10003b8e <_ntoa_format+0x5c>
10003b7e:	429c      	cmp	r4, r3
10003b80:	d205      	bcs.n	10003b8e <_ntoa_format+0x5c>
10003b82:	2c1f      	cmp	r4, #31
10003b84:	d803      	bhi.n	10003b8e <_ntoa_format+0x5c>
10003b86:	2730      	movs	r7, #48	; 0x30
10003b88:	552f      	strb	r7, [r5, r4]
10003b8a:	3401      	adds	r4, #1
10003b8c:	e7f5      	b.n	10003b7a <_ntoa_format+0x48>
10003b8e:	06f7      	lsls	r7, r6, #27
10003b90:	d515      	bpl.n	10003bbe <_ntoa_format+0x8c>
10003b92:	0577      	lsls	r7, r6, #21
10003b94:	d405      	bmi.n	10003ba2 <_ntoa_format+0x70>
10003b96:	2c00      	cmp	r4, #0
10003b98:	d003      	beq.n	10003ba2 <_ntoa_format+0x70>
10003b9a:	4294      	cmp	r4, r2
10003b9c:	d024      	beq.n	10003be8 <_ntoa_format+0xb6>
10003b9e:	429c      	cmp	r4, r3
10003ba0:	d022      	beq.n	10003be8 <_ntoa_format+0xb6>
10003ba2:	9a0f      	ldr	r2, [sp, #60]	; 0x3c
10003ba4:	2a10      	cmp	r2, #16
10003ba6:	d02b      	beq.n	10003c00 <_ntoa_format+0xce>
10003ba8:	9a0f      	ldr	r2, [sp, #60]	; 0x3c
10003baa:	2a10      	cmp	r2, #16
10003bac:	d030      	beq.n	10003c10 <_ntoa_format+0xde>
10003bae:	9a0f      	ldr	r2, [sp, #60]	; 0x3c
10003bb0:	2a02      	cmp	r2, #2
10003bb2:	d035      	beq.n	10003c20 <_ntoa_format+0xee>
10003bb4:	2c1f      	cmp	r4, #31
10003bb6:	d802      	bhi.n	10003bbe <_ntoa_format+0x8c>
10003bb8:	2230      	movs	r2, #48	; 0x30
10003bba:	552a      	strb	r2, [r5, r4]
10003bbc:	3401      	adds	r4, #1
10003bbe:	2c1f      	cmp	r4, #31
10003bc0:	d805      	bhi.n	10003bce <_ntoa_format+0x9c>
10003bc2:	464a      	mov	r2, r9
10003bc4:	2a00      	cmp	r2, #0
10003bc6:	d031      	beq.n	10003c2c <_ntoa_format+0xfa>
10003bc8:	222d      	movs	r2, #45	; 0x2d
10003bca:	552a      	strb	r2, [r5, r4]
10003bcc:	3401      	adds	r4, #1
10003bce:	9603      	str	r6, [sp, #12]
10003bd0:	9302      	str	r3, [sp, #8]
10003bd2:	9401      	str	r4, [sp, #4]
10003bd4:	9500      	str	r5, [sp, #0]
10003bd6:	4643      	mov	r3, r8
10003bd8:	4662      	mov	r2, ip
10003bda:	f7ff ff53 	bl	10003a84 <_out_rev>
10003bde:	b005      	add	sp, #20
10003be0:	bcc0      	pop	{r6, r7}
10003be2:	46b9      	mov	r9, r7
10003be4:	46b0      	mov	r8, r6
10003be6:	bdf0      	pop	{r4, r5, r6, r7, pc}
10003be8:	1e62      	subs	r2, r4, #1
10003bea:	2c01      	cmp	r4, #1
10003bec:	d006      	beq.n	10003bfc <_ntoa_format+0xca>
10003bee:	9f0f      	ldr	r7, [sp, #60]	; 0x3c
10003bf0:	2f10      	cmp	r7, #16
10003bf2:	d001      	beq.n	10003bf8 <_ntoa_format+0xc6>
10003bf4:	0014      	movs	r4, r2
10003bf6:	e7d4      	b.n	10003ba2 <_ntoa_format+0x70>
10003bf8:	3c02      	subs	r4, #2
10003bfa:	e7d2      	b.n	10003ba2 <_ntoa_format+0x70>
10003bfc:	0014      	movs	r4, r2
10003bfe:	e7d0      	b.n	10003ba2 <_ntoa_format+0x70>
10003c00:	06b2      	lsls	r2, r6, #26
10003c02:	d4d1      	bmi.n	10003ba8 <_ntoa_format+0x76>
10003c04:	2c1f      	cmp	r4, #31
10003c06:	d8cf      	bhi.n	10003ba8 <_ntoa_format+0x76>
10003c08:	2278      	movs	r2, #120	; 0x78
10003c0a:	552a      	strb	r2, [r5, r4]
10003c0c:	3401      	adds	r4, #1
10003c0e:	e7d1      	b.n	10003bb4 <_ntoa_format+0x82>
10003c10:	06b2      	lsls	r2, r6, #26
10003c12:	d5cc      	bpl.n	10003bae <_ntoa_format+0x7c>
10003c14:	2c1f      	cmp	r4, #31
10003c16:	d8ca      	bhi.n	10003bae <_ntoa_format+0x7c>
10003c18:	2258      	movs	r2, #88	; 0x58
10003c1a:	552a      	strb	r2, [r5, r4]
10003c1c:	3401      	adds	r4, #1
10003c1e:	e7c9      	b.n	10003bb4 <_ntoa_format+0x82>
10003c20:	2c1f      	cmp	r4, #31
10003c22:	d8c7      	bhi.n	10003bb4 <_ntoa_format+0x82>
10003c24:	3260      	adds	r2, #96	; 0x60
10003c26:	552a      	strb	r2, [r5, r4]
10003c28:	3401      	adds	r4, #1
10003c2a:	e7c3      	b.n	10003bb4 <_ntoa_format+0x82>
10003c2c:	0772      	lsls	r2, r6, #29
10003c2e:	d503      	bpl.n	10003c38 <_ntoa_format+0x106>
10003c30:	222b      	movs	r2, #43	; 0x2b
10003c32:	552a      	strb	r2, [r5, r4]
10003c34:	3401      	adds	r4, #1
10003c36:	e7ca      	b.n	10003bce <_ntoa_format+0x9c>
10003c38:	0732      	lsls	r2, r6, #28
10003c3a:	d5c8      	bpl.n	10003bce <_ntoa_format+0x9c>
10003c3c:	2220      	movs	r2, #32
10003c3e:	552a      	strb	r2, [r5, r4]
10003c40:	3401      	adds	r4, #1
10003c42:	e7c4      	b.n	10003bce <_ntoa_format+0x9c>

10003c44 <_ntoa_long>:
10003c44:	b5f0      	push	{r4, r5, r6, r7, lr}
10003c46:	46de      	mov	lr, fp
10003c48:	4657      	mov	r7, sl
10003c4a:	464e      	mov	r6, r9
10003c4c:	4645      	mov	r5, r8
10003c4e:	b5e0      	push	{r5, r6, r7, lr}
10003c50:	b093      	sub	sp, #76	; 0x4c
10003c52:	4681      	mov	r9, r0
10003c54:	468a      	mov	sl, r1
10003c56:	9208      	str	r2, [sp, #32]
10003c58:	9309      	str	r3, [sp, #36]	; 0x24
10003c5a:	ab1c      	add	r3, sp, #112	; 0x70
10003c5c:	cb10      	ldmia	r3!, {r4}
10003c5e:	781b      	ldrb	r3, [r3, #0]
10003c60:	469b      	mov	fp, r3
10003c62:	9d1e      	ldr	r5, [sp, #120]	; 0x78
10003c64:	9b21      	ldr	r3, [sp, #132]	; 0x84
10003c66:	4698      	mov	r8, r3
10003c68:	2c00      	cmp	r4, #0
10003c6a:	d103      	bne.n	10003c74 <_ntoa_long+0x30>
10003c6c:	2310      	movs	r3, #16
10003c6e:	4642      	mov	r2, r8
10003c70:	439a      	bics	r2, r3
10003c72:	4690      	mov	r8, r2
10003c74:	2380      	movs	r3, #128	; 0x80
10003c76:	00db      	lsls	r3, r3, #3
10003c78:	4646      	mov	r6, r8
10003c7a:	401e      	ands	r6, r3
10003c7c:	4642      	mov	r2, r8
10003c7e:	421a      	tst	r2, r3
10003c80:	d012      	beq.n	10003ca8 <_ntoa_long+0x64>
10003c82:	2c00      	cmp	r4, #0
10003c84:	d022      	beq.n	10003ccc <_ntoa_long+0x88>
10003c86:	2600      	movs	r6, #0
10003c88:	e00e      	b.n	10003ca8 <_ntoa_long+0x64>
10003c8a:	3330      	adds	r3, #48	; 0x30
10003c8c:	b2d9      	uxtb	r1, r3
10003c8e:	1c77      	adds	r7, r6, #1
10003c90:	ab0a      	add	r3, sp, #40	; 0x28
10003c92:	5599      	strb	r1, [r3, r6]
10003c94:	0029      	movs	r1, r5
10003c96:	0020      	movs	r0, r4
10003c98:	f000 ffd6 	bl	10004c48 <__wrap___aeabi_uidiv>
10003c9c:	42ac      	cmp	r4, r5
10003c9e:	d316      	bcc.n	10003cce <_ntoa_long+0x8a>
10003ca0:	2f1f      	cmp	r7, #31
10003ca2:	d814      	bhi.n	10003cce <_ntoa_long+0x8a>
10003ca4:	003e      	movs	r6, r7
10003ca6:	0004      	movs	r4, r0
10003ca8:	0029      	movs	r1, r5
10003caa:	0020      	movs	r0, r4
10003cac:	f000 ffcc 	bl	10004c48 <__wrap___aeabi_uidiv>
10003cb0:	b2cb      	uxtb	r3, r1
10003cb2:	2b09      	cmp	r3, #9
10003cb4:	d9e9      	bls.n	10003c8a <_ntoa_long+0x46>
10003cb6:	4642      	mov	r2, r8
10003cb8:	0692      	lsls	r2, r2, #26
10003cba:	d505      	bpl.n	10003cc8 <_ntoa_long+0x84>
10003cbc:	2141      	movs	r1, #65	; 0x41
10003cbe:	18c9      	adds	r1, r1, r3
10003cc0:	b2c9      	uxtb	r1, r1
10003cc2:	390a      	subs	r1, #10
10003cc4:	b2c9      	uxtb	r1, r1
10003cc6:	e7e2      	b.n	10003c8e <_ntoa_long+0x4a>
10003cc8:	2161      	movs	r1, #97	; 0x61
10003cca:	e7f8      	b.n	10003cbe <_ntoa_long+0x7a>
10003ccc:	0027      	movs	r7, r4
10003cce:	4643      	mov	r3, r8
10003cd0:	9306      	str	r3, [sp, #24]
10003cd2:	9b20      	ldr	r3, [sp, #128]	; 0x80
10003cd4:	9305      	str	r3, [sp, #20]
10003cd6:	9b1f      	ldr	r3, [sp, #124]	; 0x7c
10003cd8:	9304      	str	r3, [sp, #16]
10003cda:	9503      	str	r5, [sp, #12]
10003cdc:	465b      	mov	r3, fp
10003cde:	9302      	str	r3, [sp, #8]
10003ce0:	9701      	str	r7, [sp, #4]
10003ce2:	ab0a      	add	r3, sp, #40	; 0x28
10003ce4:	9300      	str	r3, [sp, #0]
10003ce6:	9b09      	ldr	r3, [sp, #36]	; 0x24
10003ce8:	9a08      	ldr	r2, [sp, #32]
10003cea:	4651      	mov	r1, sl
10003cec:	4648      	mov	r0, r9
10003cee:	f7ff ff20 	bl	10003b32 <_ntoa_format>
10003cf2:	b013      	add	sp, #76	; 0x4c
10003cf4:	bcf0      	pop	{r4, r5, r6, r7}
10003cf6:	46bb      	mov	fp, r7
10003cf8:	46b2      	mov	sl, r6
10003cfa:	46a9      	mov	r9, r5
10003cfc:	46a0      	mov	r8, r4
10003cfe:	bdf0      	pop	{r4, r5, r6, r7, pc}

10003d00 <_ntoa_long_long>:
10003d00:	b5f0      	push	{r4, r5, r6, r7, lr}
10003d02:	46de      	mov	lr, fp
10003d04:	4657      	mov	r7, sl
10003d06:	464e      	mov	r6, r9
10003d08:	4645      	mov	r5, r8
10003d0a:	b5e0      	push	{r5, r6, r7, lr}
10003d0c:	b095      	sub	sp, #84	; 0x54
10003d0e:	9008      	str	r0, [sp, #32]
10003d10:	9109      	str	r1, [sp, #36]	; 0x24
10003d12:	920a      	str	r2, [sp, #40]	; 0x28
10003d14:	930b      	str	r3, [sp, #44]	; 0x2c
10003d16:	9e1e      	ldr	r6, [sp, #120]	; 0x78
10003d18:	9c1f      	ldr	r4, [sp, #124]	; 0x7c
10003d1a:	ab20      	add	r3, sp, #128	; 0x80
10003d1c:	781b      	ldrb	r3, [r3, #0]
10003d1e:	469b      	mov	fp, r3
10003d20:	9b22      	ldr	r3, [sp, #136]	; 0x88
10003d22:	4699      	mov	r9, r3
10003d24:	9d23      	ldr	r5, [sp, #140]	; 0x8c
10003d26:	9b26      	ldr	r3, [sp, #152]	; 0x98
10003d28:	469a      	mov	sl, r3
10003d2a:	0033      	movs	r3, r6
10003d2c:	4323      	orrs	r3, r4
10003d2e:	d103      	bne.n	10003d38 <_ntoa_long_long+0x38>
10003d30:	3310      	adds	r3, #16
10003d32:	4652      	mov	r2, sl
10003d34:	439a      	bics	r2, r3
10003d36:	4692      	mov	sl, r2
10003d38:	2380      	movs	r3, #128	; 0x80
10003d3a:	00db      	lsls	r3, r3, #3
10003d3c:	4657      	mov	r7, sl
10003d3e:	401f      	ands	r7, r3
10003d40:	4652      	mov	r2, sl
10003d42:	421a      	tst	r2, r3
10003d44:	d019      	beq.n	10003d7a <_ntoa_long_long+0x7a>
10003d46:	0033      	movs	r3, r6
10003d48:	4323      	orrs	r3, r4
10003d4a:	d02d      	beq.n	10003da8 <_ntoa_long_long+0xa8>
10003d4c:	2700      	movs	r7, #0
10003d4e:	e014      	b.n	10003d7a <_ntoa_long_long+0x7a>
10003d50:	3330      	adds	r3, #48	; 0x30
10003d52:	b2da      	uxtb	r2, r3
10003d54:	1c7b      	adds	r3, r7, #1
10003d56:	4698      	mov	r8, r3
10003d58:	ab0c      	add	r3, sp, #48	; 0x30
10003d5a:	55da      	strb	r2, [r3, r7]
10003d5c:	464a      	mov	r2, r9
10003d5e:	002b      	movs	r3, r5
10003d60:	0030      	movs	r0, r6
10003d62:	0021      	movs	r1, r4
10003d64:	f000 ffae 	bl	10004cc4 <__wrap___aeabi_uldivmod>
10003d68:	42a5      	cmp	r5, r4
10003d6a:	d81f      	bhi.n	10003dac <_ntoa_long_long+0xac>
10003d6c:	d019      	beq.n	10003da2 <_ntoa_long_long+0xa2>
10003d6e:	4643      	mov	r3, r8
10003d70:	2b1f      	cmp	r3, #31
10003d72:	d81b      	bhi.n	10003dac <_ntoa_long_long+0xac>
10003d74:	4647      	mov	r7, r8
10003d76:	0006      	movs	r6, r0
10003d78:	000c      	movs	r4, r1
10003d7a:	464a      	mov	r2, r9
10003d7c:	002b      	movs	r3, r5
10003d7e:	0030      	movs	r0, r6
10003d80:	0021      	movs	r1, r4
10003d82:	f000 ff9f 	bl	10004cc4 <__wrap___aeabi_uldivmod>
10003d86:	b2d3      	uxtb	r3, r2
10003d88:	2b09      	cmp	r3, #9
10003d8a:	d9e1      	bls.n	10003d50 <_ntoa_long_long+0x50>
10003d8c:	4652      	mov	r2, sl
10003d8e:	0692      	lsls	r2, r2, #26
10003d90:	d505      	bpl.n	10003d9e <_ntoa_long_long+0x9e>
10003d92:	2241      	movs	r2, #65	; 0x41
10003d94:	18d2      	adds	r2, r2, r3
10003d96:	b2d2      	uxtb	r2, r2
10003d98:	3a0a      	subs	r2, #10
10003d9a:	b2d2      	uxtb	r2, r2
10003d9c:	e7da      	b.n	10003d54 <_ntoa_long_long+0x54>
10003d9e:	2261      	movs	r2, #97	; 0x61
10003da0:	e7f8      	b.n	10003d94 <_ntoa_long_long+0x94>
10003da2:	45b1      	cmp	r9, r6
10003da4:	d9e3      	bls.n	10003d6e <_ntoa_long_long+0x6e>
10003da6:	e001      	b.n	10003dac <_ntoa_long_long+0xac>
10003da8:	2300      	movs	r3, #0
10003daa:	4698      	mov	r8, r3
10003dac:	4653      	mov	r3, sl
10003dae:	9306      	str	r3, [sp, #24]
10003db0:	9b25      	ldr	r3, [sp, #148]	; 0x94
10003db2:	9305      	str	r3, [sp, #20]
10003db4:	9b24      	ldr	r3, [sp, #144]	; 0x90
10003db6:	9304      	str	r3, [sp, #16]
10003db8:	464b      	mov	r3, r9
10003dba:	9303      	str	r3, [sp, #12]
10003dbc:	465b      	mov	r3, fp
10003dbe:	9302      	str	r3, [sp, #8]
10003dc0:	4643      	mov	r3, r8
10003dc2:	9301      	str	r3, [sp, #4]
10003dc4:	ab0c      	add	r3, sp, #48	; 0x30
10003dc6:	9300      	str	r3, [sp, #0]
10003dc8:	9b0b      	ldr	r3, [sp, #44]	; 0x2c
10003dca:	9a0a      	ldr	r2, [sp, #40]	; 0x28
10003dcc:	9909      	ldr	r1, [sp, #36]	; 0x24
10003dce:	9808      	ldr	r0, [sp, #32]
10003dd0:	f7ff feaf 	bl	10003b32 <_ntoa_format>
10003dd4:	b015      	add	sp, #84	; 0x54
10003dd6:	bcf0      	pop	{r4, r5, r6, r7}
10003dd8:	46bb      	mov	fp, r7
10003dda:	46b2      	mov	sl, r6
10003ddc:	46a9      	mov	r9, r5
10003dde:	46a0      	mov	r8, r4
10003de0:	bdf0      	pop	{r4, r5, r6, r7, pc}
	...

10003de4 <_etoa>:
10003de4:	b5f0      	push	{r4, r5, r6, r7, lr}
10003de6:	46de      	mov	lr, fp
10003de8:	4657      	mov	r7, sl
10003dea:	464e      	mov	r6, r9
10003dec:	4645      	mov	r5, r8
10003dee:	b5e0      	push	{r5, r6, r7, lr}
10003df0:	b091      	sub	sp, #68	; 0x44
10003df2:	4683      	mov	fp, r0
10003df4:	468a      	mov	sl, r1
10003df6:	920c      	str	r2, [sp, #48]	; 0x30
10003df8:	4698      	mov	r8, r3
10003dfa:	9c1a      	ldr	r4, [sp, #104]	; 0x68
10003dfc:	9408      	str	r4, [sp, #32]
10003dfe:	9d1b      	ldr	r5, [sp, #108]	; 0x6c
10003e00:	9509      	str	r5, [sp, #36]	; 0x24
10003e02:	0022      	movs	r2, r4
10003e04:	002b      	movs	r3, r5
10003e06:	0020      	movs	r0, r4
10003e08:	0029      	movs	r1, r5
10003e0a:	f001 f9e6 	bl	100051da <__wrap___aeabi_dcmpun>
10003e0e:	2800      	cmp	r0, #0
10003e10:	d000      	beq.n	10003e14 <_etoa+0x30>
10003e12:	e0e5      	b.n	10003fe0 <_etoa+0x1fc>
10003e14:	2201      	movs	r2, #1
10003e16:	4252      	negs	r2, r2
10003e18:	4bd7      	ldr	r3, [pc, #860]	; (10004178 <_etoa+0x394>)
10003e1a:	0020      	movs	r0, r4
10003e1c:	0029      	movs	r1, r5
10003e1e:	f001 f9d7 	bl	100051d0 <__wrap___aeabi_dcmpgt>
10003e22:	2800      	cmp	r0, #0
10003e24:	d000      	beq.n	10003e28 <_etoa+0x44>
10003e26:	e0db      	b.n	10003fe0 <_etoa+0x1fc>
10003e28:	2201      	movs	r2, #1
10003e2a:	4252      	negs	r2, r2
10003e2c:	4bd3      	ldr	r3, [pc, #844]	; (1000417c <_etoa+0x398>)
10003e2e:	0020      	movs	r0, r4
10003e30:	0029      	movs	r1, r5
10003e32:	f001 f9b7 	bl	100051a4 <__wrap___aeabi_dcmplt>
10003e36:	2800      	cmp	r0, #0
10003e38:	d000      	beq.n	10003e3c <_etoa+0x58>
10003e3a:	e0d1      	b.n	10003fe0 <_etoa+0x1fc>
10003e3c:	2200      	movs	r2, #0
10003e3e:	2300      	movs	r3, #0
10003e40:	9e08      	ldr	r6, [sp, #32]
10003e42:	0030      	movs	r0, r6
10003e44:	9d09      	ldr	r5, [sp, #36]	; 0x24
10003e46:	0029      	movs	r1, r5
10003e48:	f001 f9ac 	bl	100051a4 <__wrap___aeabi_dcmplt>
10003e4c:	2800      	cmp	r0, #0
10003e4e:	d000      	beq.n	10003e52 <_etoa+0x6e>
10003e50:	e0dd      	b.n	1000400e <_etoa+0x22a>
10003e52:	9808      	ldr	r0, [sp, #32]
10003e54:	9909      	ldr	r1, [sp, #36]	; 0x24
10003e56:	9006      	str	r0, [sp, #24]
10003e58:	9107      	str	r1, [sp, #28]
10003e5a:	2380      	movs	r3, #128	; 0x80
10003e5c:	00db      	lsls	r3, r3, #3
10003e5e:	9a1e      	ldr	r2, [sp, #120]	; 0x78
10003e60:	401a      	ands	r2, r3
10003e62:	920d      	str	r2, [sp, #52]	; 0x34
10003e64:	9a1e      	ldr	r2, [sp, #120]	; 0x78
10003e66:	421a      	tst	r2, r3
10003e68:	d101      	bne.n	10003e6e <_etoa+0x8a>
10003e6a:	2306      	movs	r3, #6
10003e6c:	931c      	str	r3, [sp, #112]	; 0x70
10003e6e:	9806      	ldr	r0, [sp, #24]
10003e70:	9907      	ldr	r1, [sp, #28]
10003e72:	0004      	movs	r4, r0
10003e74:	000d      	movs	r5, r1
10003e76:	000a      	movs	r2, r1
10003e78:	0006      	movs	r6, r0
10003e7a:	4302      	orrs	r2, r0
10003e7c:	d100      	bne.n	10003e80 <_etoa+0x9c>
10003e7e:	e0d1      	b.n	10004024 <_etoa+0x240>
10003e80:	0d08      	lsrs	r0, r1, #20
10003e82:	0540      	lsls	r0, r0, #21
10003e84:	0d40      	lsrs	r0, r0, #21
10003e86:	4cbe      	ldr	r4, [pc, #760]	; (10004180 <_etoa+0x39c>)
10003e88:	46a4      	mov	ip, r4
10003e8a:	4460      	add	r0, ip
10003e8c:	030a      	lsls	r2, r1, #12
10003e8e:	0b12      	lsrs	r2, r2, #12
10003e90:	4bbc      	ldr	r3, [pc, #752]	; (10004184 <_etoa+0x3a0>)
10003e92:	4313      	orrs	r3, r2
10003e94:	001f      	movs	r7, r3
10003e96:	f001 f9b3 	bl	10005200 <__wrap___aeabi_i2d>
10003e9a:	4abb      	ldr	r2, [pc, #748]	; (10004188 <_etoa+0x3a4>)
10003e9c:	4bbb      	ldr	r3, [pc, #748]	; (1000418c <_etoa+0x3a8>)
10003e9e:	f001 f93e 	bl	1000511e <__wrap___aeabi_dmul>
10003ea2:	4abb      	ldr	r2, [pc, #748]	; (10004190 <_etoa+0x3ac>)
10003ea4:	4bbb      	ldr	r3, [pc, #748]	; (10004194 <_etoa+0x3b0>)
10003ea6:	f001 f913 	bl	100050d0 <__wrap___aeabi_dadd>
10003eaa:	0004      	movs	r4, r0
10003eac:	000d      	movs	r5, r1
10003eae:	2200      	movs	r2, #0
10003eb0:	4bb9      	ldr	r3, [pc, #740]	; (10004198 <_etoa+0x3b4>)
10003eb2:	0030      	movs	r0, r6
10003eb4:	0039      	movs	r1, r7
10003eb6:	f001 f902 	bl	100050be <__wrap___aeabi_dsub>
10003eba:	4ab8      	ldr	r2, [pc, #736]	; (1000419c <_etoa+0x3b8>)
10003ebc:	4bb8      	ldr	r3, [pc, #736]	; (100041a0 <_etoa+0x3bc>)
10003ebe:	f001 f92e 	bl	1000511e <__wrap___aeabi_dmul>
10003ec2:	0002      	movs	r2, r0
10003ec4:	000b      	movs	r3, r1
10003ec6:	0020      	movs	r0, r4
10003ec8:	0029      	movs	r1, r5
10003eca:	f001 f901 	bl	100050d0 <__wrap___aeabi_dadd>
10003ece:	f001 f9af 	bl	10005230 <__wrap___aeabi_d2iz>
10003ed2:	4681      	mov	r9, r0
10003ed4:	f001 f994 	bl	10005200 <__wrap___aeabi_i2d>
10003ed8:	0004      	movs	r4, r0
10003eda:	000d      	movs	r5, r1
10003edc:	4ab1      	ldr	r2, [pc, #708]	; (100041a4 <_etoa+0x3c0>)
10003ede:	4bb2      	ldr	r3, [pc, #712]	; (100041a8 <_etoa+0x3c4>)
10003ee0:	f001 f91d 	bl	1000511e <__wrap___aeabi_dmul>
10003ee4:	2200      	movs	r2, #0
10003ee6:	4bb1      	ldr	r3, [pc, #708]	; (100041ac <_etoa+0x3c8>)
10003ee8:	f001 f8f2 	bl	100050d0 <__wrap___aeabi_dadd>
10003eec:	f001 f9a0 	bl	10005230 <__wrap___aeabi_d2iz>
10003ef0:	0006      	movs	r6, r0
10003ef2:	4aaf      	ldr	r2, [pc, #700]	; (100041b0 <_etoa+0x3cc>)
10003ef4:	4baf      	ldr	r3, [pc, #700]	; (100041b4 <_etoa+0x3d0>)
10003ef6:	0020      	movs	r0, r4
10003ef8:	0029      	movs	r1, r5
10003efa:	f001 f910 	bl	1000511e <__wrap___aeabi_dmul>
10003efe:	0004      	movs	r4, r0
10003f00:	000d      	movs	r5, r1
10003f02:	0030      	movs	r0, r6
10003f04:	f001 f97c 	bl	10005200 <__wrap___aeabi_i2d>
10003f08:	4aab      	ldr	r2, [pc, #684]	; (100041b8 <_etoa+0x3d4>)
10003f0a:	4bac      	ldr	r3, [pc, #688]	; (100041bc <_etoa+0x3d8>)
10003f0c:	f001 f907 	bl	1000511e <__wrap___aeabi_dmul>
10003f10:	0002      	movs	r2, r0
10003f12:	000b      	movs	r3, r1
10003f14:	0020      	movs	r0, r4
10003f16:	0029      	movs	r1, r5
10003f18:	f001 f8d1 	bl	100050be <__wrap___aeabi_dsub>
10003f1c:	0004      	movs	r4, r0
10003f1e:	000d      	movs	r5, r1
10003f20:	0002      	movs	r2, r0
10003f22:	000b      	movs	r3, r1
10003f24:	f001 f8fb 	bl	1000511e <__wrap___aeabi_dmul>
10003f28:	900a      	str	r0, [sp, #40]	; 0x28
10003f2a:	910b      	str	r1, [sp, #44]	; 0x2c
10003f2c:	4ba4      	ldr	r3, [pc, #656]	; (100041c0 <_etoa+0x3dc>)
10003f2e:	18f3      	adds	r3, r6, r3
10003f30:	2600      	movs	r6, #0
10003f32:	051f      	lsls	r7, r3, #20
10003f34:	0022      	movs	r2, r4
10003f36:	002b      	movs	r3, r5
10003f38:	0020      	movs	r0, r4
10003f3a:	0029      	movs	r1, r5
10003f3c:	f001 f8c8 	bl	100050d0 <__wrap___aeabi_dadd>
10003f40:	900e      	str	r0, [sp, #56]	; 0x38
10003f42:	910f      	str	r1, [sp, #60]	; 0x3c
10003f44:	0022      	movs	r2, r4
10003f46:	002b      	movs	r3, r5
10003f48:	2000      	movs	r0, #0
10003f4a:	2180      	movs	r1, #128	; 0x80
10003f4c:	05c9      	lsls	r1, r1, #23
10003f4e:	f001 f8b6 	bl	100050be <__wrap___aeabi_dsub>
10003f52:	0004      	movs	r4, r0
10003f54:	000d      	movs	r5, r1
10003f56:	2200      	movs	r2, #0
10003f58:	4b9a      	ldr	r3, [pc, #616]	; (100041c4 <_etoa+0x3e0>)
10003f5a:	980a      	ldr	r0, [sp, #40]	; 0x28
10003f5c:	990b      	ldr	r1, [sp, #44]	; 0x2c
10003f5e:	f001 f8c0 	bl	100050e2 <__wrap___aeabi_ddiv>
10003f62:	2200      	movs	r2, #0
10003f64:	4b98      	ldr	r3, [pc, #608]	; (100041c8 <_etoa+0x3e4>)
10003f66:	f001 f8b3 	bl	100050d0 <__wrap___aeabi_dadd>
10003f6a:	0002      	movs	r2, r0
10003f6c:	000b      	movs	r3, r1
10003f6e:	980a      	ldr	r0, [sp, #40]	; 0x28
10003f70:	990b      	ldr	r1, [sp, #44]	; 0x2c
10003f72:	f001 f8b6 	bl	100050e2 <__wrap___aeabi_ddiv>
10003f76:	2200      	movs	r2, #0
10003f78:	4b94      	ldr	r3, [pc, #592]	; (100041cc <_etoa+0x3e8>)
10003f7a:	f001 f8a9 	bl	100050d0 <__wrap___aeabi_dadd>
10003f7e:	0002      	movs	r2, r0
10003f80:	000b      	movs	r3, r1
10003f82:	980a      	ldr	r0, [sp, #40]	; 0x28
10003f84:	990b      	ldr	r1, [sp, #44]	; 0x2c
10003f86:	f001 f8ac 	bl	100050e2 <__wrap___aeabi_ddiv>
10003f8a:	0002      	movs	r2, r0
10003f8c:	000b      	movs	r3, r1
10003f8e:	0020      	movs	r0, r4
10003f90:	0029      	movs	r1, r5
10003f92:	f001 f89d 	bl	100050d0 <__wrap___aeabi_dadd>
10003f96:	0002      	movs	r2, r0
10003f98:	000b      	movs	r3, r1
10003f9a:	980e      	ldr	r0, [sp, #56]	; 0x38
10003f9c:	990f      	ldr	r1, [sp, #60]	; 0x3c
10003f9e:	f001 f8a0 	bl	100050e2 <__wrap___aeabi_ddiv>
10003fa2:	2200      	movs	r2, #0
10003fa4:	4b77      	ldr	r3, [pc, #476]	; (10004184 <_etoa+0x3a0>)
10003fa6:	f001 f893 	bl	100050d0 <__wrap___aeabi_dadd>
10003faa:	0032      	movs	r2, r6
10003fac:	003b      	movs	r3, r7
10003fae:	f001 f8b6 	bl	1000511e <__wrap___aeabi_dmul>
10003fb2:	0006      	movs	r6, r0
10003fb4:	000f      	movs	r7, r1
10003fb6:	0004      	movs	r4, r0
10003fb8:	000d      	movs	r5, r1
10003fba:	9a06      	ldr	r2, [sp, #24]
10003fbc:	9b07      	ldr	r3, [sp, #28]
10003fbe:	f001 f907 	bl	100051d0 <__wrap___aeabi_dcmpgt>
10003fc2:	2800      	cmp	r0, #0
10003fc4:	d030      	beq.n	10004028 <_etoa+0x244>
10003fc6:	2301      	movs	r3, #1
10003fc8:	425b      	negs	r3, r3
10003fca:	469c      	mov	ip, r3
10003fcc:	44e1      	add	r9, ip
10003fce:	2200      	movs	r2, #0
10003fd0:	4b7d      	ldr	r3, [pc, #500]	; (100041c8 <_etoa+0x3e4>)
10003fd2:	0030      	movs	r0, r6
10003fd4:	0039      	movs	r1, r7
10003fd6:	f001 f884 	bl	100050e2 <__wrap___aeabi_ddiv>
10003fda:	0004      	movs	r4, r0
10003fdc:	000d      	movs	r5, r1
10003fde:	e023      	b.n	10004028 <_etoa+0x244>
10003fe0:	9b1e      	ldr	r3, [sp, #120]	; 0x78
10003fe2:	9304      	str	r3, [sp, #16]
10003fe4:	9b1d      	ldr	r3, [sp, #116]	; 0x74
10003fe6:	9303      	str	r3, [sp, #12]
10003fe8:	9b1c      	ldr	r3, [sp, #112]	; 0x70
10003fea:	9302      	str	r3, [sp, #8]
10003fec:	9a08      	ldr	r2, [sp, #32]
10003fee:	9b09      	ldr	r3, [sp, #36]	; 0x24
10003ff0:	9200      	str	r2, [sp, #0]
10003ff2:	9301      	str	r3, [sp, #4]
10003ff4:	4643      	mov	r3, r8
10003ff6:	9a0c      	ldr	r2, [sp, #48]	; 0x30
10003ff8:	4651      	mov	r1, sl
10003ffa:	4658      	mov	r0, fp
10003ffc:	f000 f8fc 	bl	100041f8 <_ftoa>
10004000:	b011      	add	sp, #68	; 0x44
10004002:	bcf0      	pop	{r4, r5, r6, r7}
10004004:	46bb      	mov	fp, r7
10004006:	46b2      	mov	sl, r6
10004008:	46a9      	mov	r9, r5
1000400a:	46a0      	mov	r8, r4
1000400c:	bdf0      	pop	{r4, r5, r6, r7, pc}
1000400e:	2300      	movs	r3, #0
10004010:	2400      	movs	r4, #0
10004012:	9306      	str	r3, [sp, #24]
10004014:	9407      	str	r4, [sp, #28]
10004016:	9606      	str	r6, [sp, #24]
10004018:	2380      	movs	r3, #128	; 0x80
1000401a:	061b      	lsls	r3, r3, #24
1000401c:	469c      	mov	ip, r3
1000401e:	4465      	add	r5, ip
10004020:	9507      	str	r5, [sp, #28]
10004022:	e71a      	b.n	10003e5a <_etoa+0x76>
10004024:	2300      	movs	r3, #0
10004026:	4699      	mov	r9, r3
10004028:	464b      	mov	r3, r9
1000402a:	3363      	adds	r3, #99	; 0x63
1000402c:	2bc6      	cmp	r3, #198	; 0xc6
1000402e:	d81e      	bhi.n	1000406e <_etoa+0x28a>
10004030:	2604      	movs	r6, #4
10004032:	9b1e      	ldr	r3, [sp, #120]	; 0x78
10004034:	051b      	lsls	r3, r3, #20
10004036:	d526      	bpl.n	10004086 <_etoa+0x2a2>
10004038:	002b      	movs	r3, r5
1000403a:	4323      	orrs	r3, r4
1000403c:	d00f      	beq.n	1000405e <_etoa+0x27a>
1000403e:	4a64      	ldr	r2, [pc, #400]	; (100041d0 <_etoa+0x3ec>)
10004040:	4b64      	ldr	r3, [pc, #400]	; (100041d4 <_etoa+0x3f0>)
10004042:	9806      	ldr	r0, [sp, #24]
10004044:	9907      	ldr	r1, [sp, #28]
10004046:	f001 f8bb 	bl	100051c0 <__wrap___aeabi_dcmpge>
1000404a:	2800      	cmp	r0, #0
1000404c:	d079      	beq.n	10004142 <_etoa+0x35e>
1000404e:	2200      	movs	r2, #0
10004050:	4b61      	ldr	r3, [pc, #388]	; (100041d8 <_etoa+0x3f4>)
10004052:	9806      	ldr	r0, [sp, #24]
10004054:	9907      	ldr	r1, [sp, #28]
10004056:	f001 f8a5 	bl	100051a4 <__wrap___aeabi_dcmplt>
1000405a:	2800      	cmp	r0, #0
1000405c:	d071      	beq.n	10004142 <_etoa+0x35e>
1000405e:	9b1c      	ldr	r3, [sp, #112]	; 0x70
10004060:	454b      	cmp	r3, r9
10004062:	dd06      	ble.n	10004072 <_etoa+0x28e>
10004064:	464a      	mov	r2, r9
10004066:	1a98      	subs	r0, r3, r2
10004068:	1e43      	subs	r3, r0, #1
1000406a:	931c      	str	r3, [sp, #112]	; 0x70
1000406c:	e003      	b.n	10004076 <_etoa+0x292>
1000406e:	2605      	movs	r6, #5
10004070:	e7df      	b.n	10004032 <_etoa+0x24e>
10004072:	2300      	movs	r3, #0
10004074:	931c      	str	r3, [sp, #112]	; 0x70
10004076:	2380      	movs	r3, #128	; 0x80
10004078:	00db      	lsls	r3, r3, #3
1000407a:	9a1e      	ldr	r2, [sp, #120]	; 0x78
1000407c:	431a      	orrs	r2, r3
1000407e:	921e      	str	r2, [sp, #120]	; 0x78
10004080:	2600      	movs	r6, #0
10004082:	2300      	movs	r3, #0
10004084:	4699      	mov	r9, r3
10004086:	9b1d      	ldr	r3, [sp, #116]	; 0x74
10004088:	429e      	cmp	r6, r3
1000408a:	d264      	bcs.n	10004156 <_etoa+0x372>
1000408c:	1b9f      	subs	r7, r3, r6
1000408e:	2302      	movs	r3, #2
10004090:	9a1e      	ldr	r2, [sp, #120]	; 0x78
10004092:	401a      	ands	r2, r3
10004094:	920a      	str	r2, [sp, #40]	; 0x28
10004096:	9a1e      	ldr	r2, [sp, #120]	; 0x78
10004098:	4213      	tst	r3, r2
1000409a:	d002      	beq.n	100040a2 <_etoa+0x2be>
1000409c:	2e00      	cmp	r6, #0
1000409e:	d000      	beq.n	100040a2 <_etoa+0x2be>
100040a0:	2700      	movs	r7, #0
100040a2:	464b      	mov	r3, r9
100040a4:	2b00      	cmp	r3, #0
100040a6:	d007      	beq.n	100040b8 <_etoa+0x2d4>
100040a8:	0022      	movs	r2, r4
100040aa:	002b      	movs	r3, r5
100040ac:	9806      	ldr	r0, [sp, #24]
100040ae:	9907      	ldr	r1, [sp, #28]
100040b0:	f001 f817 	bl	100050e2 <__wrap___aeabi_ddiv>
100040b4:	9006      	str	r0, [sp, #24]
100040b6:	9107      	str	r1, [sp, #28]
100040b8:	2200      	movs	r2, #0
100040ba:	2300      	movs	r3, #0
100040bc:	9808      	ldr	r0, [sp, #32]
100040be:	9909      	ldr	r1, [sp, #36]	; 0x24
100040c0:	f001 f870 	bl	100051a4 <__wrap___aeabi_dcmplt>
100040c4:	2800      	cmp	r0, #0
100040c6:	d148      	bne.n	1000415a <_etoa+0x376>
100040c8:	4b44      	ldr	r3, [pc, #272]	; (100041dc <_etoa+0x3f8>)
100040ca:	9a1e      	ldr	r2, [sp, #120]	; 0x78
100040cc:	4013      	ands	r3, r2
100040ce:	9304      	str	r3, [sp, #16]
100040d0:	9703      	str	r7, [sp, #12]
100040d2:	9b1c      	ldr	r3, [sp, #112]	; 0x70
100040d4:	9302      	str	r3, [sp, #8]
100040d6:	9b06      	ldr	r3, [sp, #24]
100040d8:	9c07      	ldr	r4, [sp, #28]
100040da:	9300      	str	r3, [sp, #0]
100040dc:	9401      	str	r4, [sp, #4]
100040de:	4643      	mov	r3, r8
100040e0:	9a0c      	ldr	r2, [sp, #48]	; 0x30
100040e2:	4651      	mov	r1, sl
100040e4:	4658      	mov	r0, fp
100040e6:	f000 f887 	bl	100041f8 <_ftoa>
100040ea:	2e00      	cmp	r6, #0
100040ec:	d100      	bne.n	100040f0 <_etoa+0x30c>
100040ee:	e787      	b.n	10004000 <_etoa+0x21c>
100040f0:	9b1e      	ldr	r3, [sp, #120]	; 0x78
100040f2:	069b      	lsls	r3, r3, #26
100040f4:	d53d      	bpl.n	10004172 <_etoa+0x38e>
100040f6:	2545      	movs	r5, #69	; 0x45
100040f8:	1c44      	adds	r4, r0, #1
100040fa:	4643      	mov	r3, r8
100040fc:	0002      	movs	r2, r0
100040fe:	4651      	mov	r1, sl
10004100:	0028      	movs	r0, r5
10004102:	47d8      	blx	fp
10004104:	464b      	mov	r3, r9
10004106:	17da      	asrs	r2, r3, #31
10004108:	189b      	adds	r3, r3, r2
1000410a:	4053      	eors	r3, r2
1000410c:	2205      	movs	r2, #5
1000410e:	9205      	str	r2, [sp, #20]
10004110:	3e01      	subs	r6, #1
10004112:	9604      	str	r6, [sp, #16]
10004114:	2200      	movs	r2, #0
10004116:	9203      	str	r2, [sp, #12]
10004118:	320a      	adds	r2, #10
1000411a:	9202      	str	r2, [sp, #8]
1000411c:	464a      	mov	r2, r9
1000411e:	0fd0      	lsrs	r0, r2, #31
10004120:	9001      	str	r0, [sp, #4]
10004122:	9300      	str	r3, [sp, #0]
10004124:	4643      	mov	r3, r8
10004126:	0022      	movs	r2, r4
10004128:	4651      	mov	r1, sl
1000412a:	4658      	mov	r0, fp
1000412c:	f7ff fd8a 	bl	10003c44 <_ntoa_long>
10004130:	9b0a      	ldr	r3, [sp, #40]	; 0x28
10004132:	2b00      	cmp	r3, #0
10004134:	d100      	bne.n	10004138 <_etoa+0x354>
10004136:	e763      	b.n	10004000 <_etoa+0x21c>
10004138:	0002      	movs	r2, r0
1000413a:	465f      	mov	r7, fp
1000413c:	9e0c      	ldr	r6, [sp, #48]	; 0x30
1000413e:	9d1d      	ldr	r5, [sp, #116]	; 0x74
10004140:	e054      	b.n	100041ec <_etoa+0x408>
10004142:	9b1c      	ldr	r3, [sp, #112]	; 0x70
10004144:	2b00      	cmp	r3, #0
10004146:	d09e      	beq.n	10004086 <_etoa+0x2a2>
10004148:	9b0d      	ldr	r3, [sp, #52]	; 0x34
1000414a:	2b00      	cmp	r3, #0
1000414c:	d09b      	beq.n	10004086 <_etoa+0x2a2>
1000414e:	9b1c      	ldr	r3, [sp, #112]	; 0x70
10004150:	3b01      	subs	r3, #1
10004152:	931c      	str	r3, [sp, #112]	; 0x70
10004154:	e797      	b.n	10004086 <_etoa+0x2a2>
10004156:	2700      	movs	r7, #0
10004158:	e799      	b.n	1000408e <_etoa+0x2aa>
1000415a:	9c06      	ldr	r4, [sp, #24]
1000415c:	9d07      	ldr	r5, [sp, #28]
1000415e:	0022      	movs	r2, r4
10004160:	0029      	movs	r1, r5
10004162:	2080      	movs	r0, #128	; 0x80
10004164:	0600      	lsls	r0, r0, #24
10004166:	4684      	mov	ip, r0
10004168:	4461      	add	r1, ip
1000416a:	000b      	movs	r3, r1
1000416c:	9206      	str	r2, [sp, #24]
1000416e:	9307      	str	r3, [sp, #28]
10004170:	e7aa      	b.n	100040c8 <_etoa+0x2e4>
10004172:	2565      	movs	r5, #101	; 0x65
10004174:	e7c0      	b.n	100040f8 <_etoa+0x314>
10004176:	46c0      	nop			; (mov r8, r8)
10004178:	7fefffff 	.word	0x7fefffff
1000417c:	ffefffff 	.word	0xffefffff
10004180:	fffffc01 	.word	0xfffffc01
10004184:	3ff00000 	.word	0x3ff00000
10004188:	509f79fb 	.word	0x509f79fb
1000418c:	3fd34413 	.word	0x3fd34413
10004190:	8b60c8b3 	.word	0x8b60c8b3
10004194:	3fc68a28 	.word	0x3fc68a28
10004198:	3ff80000 	.word	0x3ff80000
1000419c:	636f4361 	.word	0x636f4361
100041a0:	3fd287a7 	.word	0x3fd287a7
100041a4:	0979a371 	.word	0x0979a371
100041a8:	400a934f 	.word	0x400a934f
100041ac:	3fe00000 	.word	0x3fe00000
100041b0:	bbb55516 	.word	0xbbb55516
100041b4:	40026bb1 	.word	0x40026bb1
100041b8:	fefa39ef 	.word	0xfefa39ef
100041bc:	3fe62e42 	.word	0x3fe62e42
100041c0:	000003ff 	.word	0x000003ff
100041c4:	402c0000 	.word	0x402c0000
100041c8:	40240000 	.word	0x40240000
100041cc:	40180000 	.word	0x40180000
100041d0:	eb1c432d 	.word	0xeb1c432d
100041d4:	3f1a36e2 	.word	0x3f1a36e2
100041d8:	412e8480 	.word	0x412e8480
100041dc:	fffff7ff 	.word	0xfffff7ff
100041e0:	1c54      	adds	r4, r2, #1
100041e2:	4643      	mov	r3, r8
100041e4:	4651      	mov	r1, sl
100041e6:	2020      	movs	r0, #32
100041e8:	47b8      	blx	r7
100041ea:	0022      	movs	r2, r4
100041ec:	1b93      	subs	r3, r2, r6
100041ee:	42ab      	cmp	r3, r5
100041f0:	d3f6      	bcc.n	100041e0 <_etoa+0x3fc>
100041f2:	0010      	movs	r0, r2
100041f4:	e704      	b.n	10004000 <_etoa+0x21c>
100041f6:	46c0      	nop			; (mov r8, r8)

100041f8 <_ftoa>:
100041f8:	b5f0      	push	{r4, r5, r6, r7, lr}
100041fa:	46de      	mov	lr, fp
100041fc:	4657      	mov	r7, sl
100041fe:	464e      	mov	r6, r9
10004200:	4645      	mov	r5, r8
10004202:	b5e0      	push	{r5, r6, r7, lr}
10004204:	b095      	sub	sp, #84	; 0x54
10004206:	9006      	str	r0, [sp, #24]
10004208:	9107      	str	r1, [sp, #28]
1000420a:	4693      	mov	fp, r2
1000420c:	4699      	mov	r9, r3
1000420e:	9f20      	ldr	r7, [sp, #128]	; 0x80
10004210:	9a1e      	ldr	r2, [sp, #120]	; 0x78
10004212:	9b1f      	ldr	r3, [sp, #124]	; 0x7c
10004214:	0010      	movs	r0, r2
10004216:	0019      	movs	r1, r3
10004218:	f000 ffdf 	bl	100051da <__wrap___aeabi_dcmpun>
1000421c:	2800      	cmp	r0, #0
1000421e:	d131      	bne.n	10004284 <_ftoa+0x8c>
10004220:	2201      	movs	r2, #1
10004222:	4252      	negs	r2, r2
10004224:	4bbf      	ldr	r3, [pc, #764]	; (10004524 <_ftoa+0x32c>)
10004226:	981e      	ldr	r0, [sp, #120]	; 0x78
10004228:	991f      	ldr	r1, [sp, #124]	; 0x7c
1000422a:	f000 ffbb 	bl	100051a4 <__wrap___aeabi_dcmplt>
1000422e:	2800      	cmp	r0, #0
10004230:	d137      	bne.n	100042a2 <_ftoa+0xaa>
10004232:	2201      	movs	r2, #1
10004234:	4252      	negs	r2, r2
10004236:	4bbc      	ldr	r3, [pc, #752]	; (10004528 <_ftoa+0x330>)
10004238:	981e      	ldr	r0, [sp, #120]	; 0x78
1000423a:	991f      	ldr	r1, [sp, #124]	; 0x7c
1000423c:	f000 ffc8 	bl	100051d0 <__wrap___aeabi_dcmpgt>
10004240:	2800      	cmp	r0, #0
10004242:	d13d      	bne.n	100042c0 <_ftoa+0xc8>
10004244:	2200      	movs	r2, #0
10004246:	4bb9      	ldr	r3, [pc, #740]	; (1000452c <_ftoa+0x334>)
10004248:	981e      	ldr	r0, [sp, #120]	; 0x78
1000424a:	991f      	ldr	r1, [sp, #124]	; 0x7c
1000424c:	f000 ffc0 	bl	100051d0 <__wrap___aeabi_dcmpgt>
10004250:	2800      	cmp	r0, #0
10004252:	d150      	bne.n	100042f6 <_ftoa+0xfe>
10004254:	2200      	movs	r2, #0
10004256:	4bb6      	ldr	r3, [pc, #728]	; (10004530 <_ftoa+0x338>)
10004258:	981e      	ldr	r0, [sp, #120]	; 0x78
1000425a:	991f      	ldr	r1, [sp, #124]	; 0x7c
1000425c:	f000 ffa2 	bl	100051a4 <__wrap___aeabi_dcmplt>
10004260:	2800      	cmp	r0, #0
10004262:	d148      	bne.n	100042f6 <_ftoa+0xfe>
10004264:	2200      	movs	r2, #0
10004266:	2300      	movs	r3, #0
10004268:	981e      	ldr	r0, [sp, #120]	; 0x78
1000426a:	991f      	ldr	r1, [sp, #124]	; 0x7c
1000426c:	f000 ff9a 	bl	100051a4 <__wrap___aeabi_dcmplt>
10004270:	2800      	cmp	r0, #0
10004272:	d150      	bne.n	10004316 <_ftoa+0x11e>
10004274:	2300      	movs	r3, #0
10004276:	4698      	mov	r8, r3
10004278:	9b22      	ldr	r3, [sp, #136]	; 0x88
1000427a:	055b      	lsls	r3, r3, #21
1000427c:	d400      	bmi.n	10004280 <_ftoa+0x88>
1000427e:	e0b6      	b.n	100043ee <_ftoa+0x1f6>
10004280:	2400      	movs	r4, #0
10004282:	e058      	b.n	10004336 <_ftoa+0x13e>
10004284:	9b22      	ldr	r3, [sp, #136]	; 0x88
10004286:	9303      	str	r3, [sp, #12]
10004288:	9b21      	ldr	r3, [sp, #132]	; 0x84
1000428a:	9302      	str	r3, [sp, #8]
1000428c:	2303      	movs	r3, #3
1000428e:	9301      	str	r3, [sp, #4]
10004290:	4ba8      	ldr	r3, [pc, #672]	; (10004534 <_ftoa+0x33c>)
10004292:	9300      	str	r3, [sp, #0]
10004294:	464b      	mov	r3, r9
10004296:	465a      	mov	r2, fp
10004298:	9907      	ldr	r1, [sp, #28]
1000429a:	9806      	ldr	r0, [sp, #24]
1000429c:	f7ff fbf2 	bl	10003a84 <_out_rev>
100042a0:	e10e      	b.n	100044c0 <_ftoa+0x2c8>
100042a2:	9b22      	ldr	r3, [sp, #136]	; 0x88
100042a4:	9303      	str	r3, [sp, #12]
100042a6:	9b21      	ldr	r3, [sp, #132]	; 0x84
100042a8:	9302      	str	r3, [sp, #8]
100042aa:	2304      	movs	r3, #4
100042ac:	9301      	str	r3, [sp, #4]
100042ae:	4ba2      	ldr	r3, [pc, #648]	; (10004538 <_ftoa+0x340>)
100042b0:	9300      	str	r3, [sp, #0]
100042b2:	464b      	mov	r3, r9
100042b4:	465a      	mov	r2, fp
100042b6:	9907      	ldr	r1, [sp, #28]
100042b8:	9806      	ldr	r0, [sp, #24]
100042ba:	f7ff fbe3 	bl	10003a84 <_out_rev>
100042be:	e0ff      	b.n	100044c0 <_ftoa+0x2c8>
100042c0:	2304      	movs	r3, #4
100042c2:	9a22      	ldr	r2, [sp, #136]	; 0x88
100042c4:	401a      	ands	r2, r3
100042c6:	9922      	ldr	r1, [sp, #136]	; 0x88
100042c8:	420b      	tst	r3, r1
100042ca:	d010      	beq.n	100042ee <_ftoa+0xf6>
100042cc:	4b9b      	ldr	r3, [pc, #620]	; (1000453c <_ftoa+0x344>)
100042ce:	2a00      	cmp	r2, #0
100042d0:	d00f      	beq.n	100042f2 <_ftoa+0xfa>
100042d2:	2204      	movs	r2, #4
100042d4:	9922      	ldr	r1, [sp, #136]	; 0x88
100042d6:	9103      	str	r1, [sp, #12]
100042d8:	9921      	ldr	r1, [sp, #132]	; 0x84
100042da:	9102      	str	r1, [sp, #8]
100042dc:	9201      	str	r2, [sp, #4]
100042de:	9300      	str	r3, [sp, #0]
100042e0:	464b      	mov	r3, r9
100042e2:	465a      	mov	r2, fp
100042e4:	9907      	ldr	r1, [sp, #28]
100042e6:	9806      	ldr	r0, [sp, #24]
100042e8:	f7ff fbcc 	bl	10003a84 <_out_rev>
100042ec:	e0e8      	b.n	100044c0 <_ftoa+0x2c8>
100042ee:	4b94      	ldr	r3, [pc, #592]	; (10004540 <_ftoa+0x348>)
100042f0:	e7ed      	b.n	100042ce <_ftoa+0xd6>
100042f2:	2203      	movs	r2, #3
100042f4:	e7ee      	b.n	100042d4 <_ftoa+0xdc>
100042f6:	9b22      	ldr	r3, [sp, #136]	; 0x88
100042f8:	9304      	str	r3, [sp, #16]
100042fa:	9b21      	ldr	r3, [sp, #132]	; 0x84
100042fc:	9303      	str	r3, [sp, #12]
100042fe:	9702      	str	r7, [sp, #8]
10004300:	9b1e      	ldr	r3, [sp, #120]	; 0x78
10004302:	9c1f      	ldr	r4, [sp, #124]	; 0x7c
10004304:	9300      	str	r3, [sp, #0]
10004306:	9401      	str	r4, [sp, #4]
10004308:	464b      	mov	r3, r9
1000430a:	465a      	mov	r2, fp
1000430c:	9907      	ldr	r1, [sp, #28]
1000430e:	9806      	ldr	r0, [sp, #24]
10004310:	f7ff fd68 	bl	10003de4 <_etoa>
10004314:	e0d4      	b.n	100044c0 <_ftoa+0x2c8>
10004316:	9a1e      	ldr	r2, [sp, #120]	; 0x78
10004318:	9b1f      	ldr	r3, [sp, #124]	; 0x7c
1000431a:	2000      	movs	r0, #0
1000431c:	2100      	movs	r1, #0
1000431e:	f000 fece 	bl	100050be <__wrap___aeabi_dsub>
10004322:	901e      	str	r0, [sp, #120]	; 0x78
10004324:	911f      	str	r1, [sp, #124]	; 0x7c
10004326:	2301      	movs	r3, #1
10004328:	4698      	mov	r8, r3
1000432a:	e7a5      	b.n	10004278 <_ftoa+0x80>
1000432c:	ab0c      	add	r3, sp, #48	; 0x30
1000432e:	2230      	movs	r2, #48	; 0x30
10004330:	551a      	strb	r2, [r3, r4]
10004332:	3f01      	subs	r7, #1
10004334:	3401      	adds	r4, #1
10004336:	2c1f      	cmp	r4, #31
10004338:	d801      	bhi.n	1000433e <_ftoa+0x146>
1000433a:	2f09      	cmp	r7, #9
1000433c:	d8f6      	bhi.n	1000432c <_ftoa+0x134>
1000433e:	981e      	ldr	r0, [sp, #120]	; 0x78
10004340:	991f      	ldr	r1, [sp, #124]	; 0x7c
10004342:	f000 ff75 	bl	10005230 <__wrap___aeabi_d2iz>
10004346:	0005      	movs	r5, r0
10004348:	f000 ff5a 	bl	10005200 <__wrap___aeabi_i2d>
1000434c:	0002      	movs	r2, r0
1000434e:	000b      	movs	r3, r1
10004350:	981e      	ldr	r0, [sp, #120]	; 0x78
10004352:	991f      	ldr	r1, [sp, #124]	; 0x7c
10004354:	f000 feb3 	bl	100050be <__wrap___aeabi_dsub>
10004358:	00fa      	lsls	r2, r7, #3
1000435a:	4b7a      	ldr	r3, [pc, #488]	; (10004544 <_ftoa+0x34c>)
1000435c:	189b      	adds	r3, r3, r2
1000435e:	681a      	ldr	r2, [r3, #0]
10004360:	685b      	ldr	r3, [r3, #4]
10004362:	920a      	str	r2, [sp, #40]	; 0x28
10004364:	930b      	str	r3, [sp, #44]	; 0x2c
10004366:	f000 feda 	bl	1000511e <__wrap___aeabi_dmul>
1000436a:	9008      	str	r0, [sp, #32]
1000436c:	9109      	str	r1, [sp, #36]	; 0x24
1000436e:	f000 ff83 	bl	10005278 <__wrap___aeabi_d2uiz>
10004372:	0006      	movs	r6, r0
10004374:	f000 ff40 	bl	100051f8 <__wrap___aeabi_ui2d>
10004378:	0002      	movs	r2, r0
1000437a:	000b      	movs	r3, r1
1000437c:	9808      	ldr	r0, [sp, #32]
1000437e:	9909      	ldr	r1, [sp, #36]	; 0x24
10004380:	f000 fe9d 	bl	100050be <__wrap___aeabi_dsub>
10004384:	9008      	str	r0, [sp, #32]
10004386:	9109      	str	r1, [sp, #36]	; 0x24
10004388:	2200      	movs	r2, #0
1000438a:	4b6f      	ldr	r3, [pc, #444]	; (10004548 <_ftoa+0x350>)
1000438c:	f000 ff20 	bl	100051d0 <__wrap___aeabi_dcmpgt>
10004390:	2800      	cmp	r0, #0
10004392:	d02e      	beq.n	100043f2 <_ftoa+0x1fa>
10004394:	3601      	adds	r6, #1
10004396:	0030      	movs	r0, r6
10004398:	f000 ff2e 	bl	100051f8 <__wrap___aeabi_ui2d>
1000439c:	0002      	movs	r2, r0
1000439e:	000b      	movs	r3, r1
100043a0:	980a      	ldr	r0, [sp, #40]	; 0x28
100043a2:	990b      	ldr	r1, [sp, #44]	; 0x2c
100043a4:	f000 ff04 	bl	100051b0 <__wrap___aeabi_dcmple>
100043a8:	2800      	cmp	r0, #0
100043aa:	d001      	beq.n	100043b0 <_ftoa+0x1b8>
100043ac:	3501      	adds	r5, #1
100043ae:	2600      	movs	r6, #0
100043b0:	2f00      	cmp	r7, #0
100043b2:	d12c      	bne.n	1000440e <_ftoa+0x216>
100043b4:	0028      	movs	r0, r5
100043b6:	f000 ff23 	bl	10005200 <__wrap___aeabi_i2d>
100043ba:	0002      	movs	r2, r0
100043bc:	000b      	movs	r3, r1
100043be:	981e      	ldr	r0, [sp, #120]	; 0x78
100043c0:	991f      	ldr	r1, [sp, #124]	; 0x7c
100043c2:	f000 fe7c 	bl	100050be <__wrap___aeabi_dsub>
100043c6:	0006      	movs	r6, r0
100043c8:	000f      	movs	r7, r1
100043ca:	2200      	movs	r2, #0
100043cc:	4b5e      	ldr	r3, [pc, #376]	; (10004548 <_ftoa+0x350>)
100043ce:	f000 fee9 	bl	100051a4 <__wrap___aeabi_dcmplt>
100043d2:	2800      	cmp	r0, #0
100043d4:	d146      	bne.n	10004464 <_ftoa+0x26c>
100043d6:	2200      	movs	r2, #0
100043d8:	4b5b      	ldr	r3, [pc, #364]	; (10004548 <_ftoa+0x350>)
100043da:	0030      	movs	r0, r6
100043dc:	0039      	movs	r1, r7
100043de:	f000 fef7 	bl	100051d0 <__wrap___aeabi_dcmpgt>
100043e2:	2800      	cmp	r0, #0
100043e4:	d13e      	bne.n	10004464 <_ftoa+0x26c>
100043e6:	07eb      	lsls	r3, r5, #31
100043e8:	d53c      	bpl.n	10004464 <_ftoa+0x26c>
100043ea:	3501      	adds	r5, #1
100043ec:	e03a      	b.n	10004464 <_ftoa+0x26c>
100043ee:	2706      	movs	r7, #6
100043f0:	e746      	b.n	10004280 <_ftoa+0x88>
100043f2:	2200      	movs	r2, #0
100043f4:	4b54      	ldr	r3, [pc, #336]	; (10004548 <_ftoa+0x350>)
100043f6:	9808      	ldr	r0, [sp, #32]
100043f8:	9909      	ldr	r1, [sp, #36]	; 0x24
100043fa:	f000 fed3 	bl	100051a4 <__wrap___aeabi_dcmplt>
100043fe:	2800      	cmp	r0, #0
10004400:	d1d6      	bne.n	100043b0 <_ftoa+0x1b8>
10004402:	2e00      	cmp	r6, #0
10004404:	d001      	beq.n	1000440a <_ftoa+0x212>
10004406:	07f3      	lsls	r3, r6, #31
10004408:	d5d2      	bpl.n	100043b0 <_ftoa+0x1b8>
1000440a:	3601      	adds	r6, #1
1000440c:	e7d0      	b.n	100043b0 <_ftoa+0x1b8>
1000440e:	46aa      	mov	sl, r5
10004410:	2c1f      	cmp	r4, #31
10004412:	d811      	bhi.n	10004438 <_ftoa+0x240>
10004414:	3f01      	subs	r7, #1
10004416:	210a      	movs	r1, #10
10004418:	0030      	movs	r0, r6
1000441a:	f000 fc15 	bl	10004c48 <__wrap___aeabi_uidiv>
1000441e:	1c65      	adds	r5, r4, #1
10004420:	3130      	adds	r1, #48	; 0x30
10004422:	ab0c      	add	r3, sp, #48	; 0x30
10004424:	5519      	strb	r1, [r3, r4]
10004426:	210a      	movs	r1, #10
10004428:	0030      	movs	r0, r6
1000442a:	f000 fc0d 	bl	10004c48 <__wrap___aeabi_uidiv>
1000442e:	2e09      	cmp	r6, #9
10004430:	d90e      	bls.n	10004450 <_ftoa+0x258>
10004432:	0006      	movs	r6, r0
10004434:	002c      	movs	r4, r5
10004436:	e7eb      	b.n	10004410 <_ftoa+0x218>
10004438:	4655      	mov	r5, sl
1000443a:	2c1f      	cmp	r4, #31
1000443c:	d80c      	bhi.n	10004458 <_ftoa+0x260>
1000443e:	1e7b      	subs	r3, r7, #1
10004440:	2f00      	cmp	r7, #0
10004442:	d009      	beq.n	10004458 <_ftoa+0x260>
10004444:	aa0c      	add	r2, sp, #48	; 0x30
10004446:	2130      	movs	r1, #48	; 0x30
10004448:	5511      	strb	r1, [r2, r4]
1000444a:	001f      	movs	r7, r3
1000444c:	3401      	adds	r4, #1
1000444e:	e7f4      	b.n	1000443a <_ftoa+0x242>
10004450:	002b      	movs	r3, r5
10004452:	4655      	mov	r5, sl
10004454:	001c      	movs	r4, r3
10004456:	e7f0      	b.n	1000443a <_ftoa+0x242>
10004458:	2c1f      	cmp	r4, #31
1000445a:	d803      	bhi.n	10004464 <_ftoa+0x26c>
1000445c:	ab0c      	add	r3, sp, #48	; 0x30
1000445e:	222e      	movs	r2, #46	; 0x2e
10004460:	551a      	strb	r2, [r3, r4]
10004462:	3401      	adds	r4, #1
10004464:	2c1f      	cmp	r4, #31
10004466:	d810      	bhi.n	1000448a <_ftoa+0x292>
10004468:	210a      	movs	r1, #10
1000446a:	0028      	movs	r0, r5
1000446c:	f000 fbc4 	bl	10004bf8 <__wrap___aeabi_idiv>
10004470:	1c66      	adds	r6, r4, #1
10004472:	3130      	adds	r1, #48	; 0x30
10004474:	ab0c      	add	r3, sp, #48	; 0x30
10004476:	5519      	strb	r1, [r3, r4]
10004478:	210a      	movs	r1, #10
1000447a:	0028      	movs	r0, r5
1000447c:	f000 fbbc 	bl	10004bf8 <__wrap___aeabi_idiv>
10004480:	1e05      	subs	r5, r0, #0
10004482:	d001      	beq.n	10004488 <_ftoa+0x290>
10004484:	0034      	movs	r4, r6
10004486:	e7ed      	b.n	10004464 <_ftoa+0x26c>
10004488:	0034      	movs	r4, r6
1000448a:	2303      	movs	r3, #3
1000448c:	9a22      	ldr	r2, [sp, #136]	; 0x88
1000448e:	4013      	ands	r3, r2
10004490:	2b01      	cmp	r3, #1
10004492:	d01c      	beq.n	100044ce <_ftoa+0x2d6>
10004494:	2c1f      	cmp	r4, #31
10004496:	d806      	bhi.n	100044a6 <_ftoa+0x2ae>
10004498:	4643      	mov	r3, r8
1000449a:	2b00      	cmp	r3, #0
1000449c:	d032      	beq.n	10004504 <_ftoa+0x30c>
1000449e:	ab0c      	add	r3, sp, #48	; 0x30
100044a0:	222d      	movs	r2, #45	; 0x2d
100044a2:	551a      	strb	r2, [r3, r4]
100044a4:	3401      	adds	r4, #1
100044a6:	9b22      	ldr	r3, [sp, #136]	; 0x88
100044a8:	9303      	str	r3, [sp, #12]
100044aa:	9b21      	ldr	r3, [sp, #132]	; 0x84
100044ac:	9302      	str	r3, [sp, #8]
100044ae:	9401      	str	r4, [sp, #4]
100044b0:	ab0c      	add	r3, sp, #48	; 0x30
100044b2:	9300      	str	r3, [sp, #0]
100044b4:	464b      	mov	r3, r9
100044b6:	465a      	mov	r2, fp
100044b8:	9907      	ldr	r1, [sp, #28]
100044ba:	9806      	ldr	r0, [sp, #24]
100044bc:	f7ff fae2 	bl	10003a84 <_out_rev>
100044c0:	b015      	add	sp, #84	; 0x54
100044c2:	bcf0      	pop	{r4, r5, r6, r7}
100044c4:	46bb      	mov	fp, r7
100044c6:	46b2      	mov	sl, r6
100044c8:	46a9      	mov	r9, r5
100044ca:	46a0      	mov	r8, r4
100044cc:	bdf0      	pop	{r4, r5, r6, r7, pc}
100044ce:	9b21      	ldr	r3, [sp, #132]	; 0x84
100044d0:	2b00      	cmp	r3, #0
100044d2:	d013      	beq.n	100044fc <_ftoa+0x304>
100044d4:	4643      	mov	r3, r8
100044d6:	2b00      	cmp	r3, #0
100044d8:	d102      	bne.n	100044e0 <_ftoa+0x2e8>
100044da:	330c      	adds	r3, #12
100044dc:	4213      	tst	r3, r2
100044de:	d00f      	beq.n	10004500 <_ftoa+0x308>
100044e0:	9b21      	ldr	r3, [sp, #132]	; 0x84
100044e2:	3b01      	subs	r3, #1
100044e4:	9321      	str	r3, [sp, #132]	; 0x84
100044e6:	0019      	movs	r1, r3
100044e8:	e003      	b.n	100044f2 <_ftoa+0x2fa>
100044ea:	ab0c      	add	r3, sp, #48	; 0x30
100044ec:	2230      	movs	r2, #48	; 0x30
100044ee:	551a      	strb	r2, [r3, r4]
100044f0:	3401      	adds	r4, #1
100044f2:	428c      	cmp	r4, r1
100044f4:	d2ce      	bcs.n	10004494 <_ftoa+0x29c>
100044f6:	2c1f      	cmp	r4, #31
100044f8:	d9f7      	bls.n	100044ea <_ftoa+0x2f2>
100044fa:	e7cb      	b.n	10004494 <_ftoa+0x29c>
100044fc:	9921      	ldr	r1, [sp, #132]	; 0x84
100044fe:	e7f8      	b.n	100044f2 <_ftoa+0x2fa>
10004500:	9921      	ldr	r1, [sp, #132]	; 0x84
10004502:	e7f6      	b.n	100044f2 <_ftoa+0x2fa>
10004504:	9b22      	ldr	r3, [sp, #136]	; 0x88
10004506:	075b      	lsls	r3, r3, #29
10004508:	d504      	bpl.n	10004514 <_ftoa+0x31c>
1000450a:	ab0c      	add	r3, sp, #48	; 0x30
1000450c:	222b      	movs	r2, #43	; 0x2b
1000450e:	551a      	strb	r2, [r3, r4]
10004510:	3401      	adds	r4, #1
10004512:	e7c8      	b.n	100044a6 <_ftoa+0x2ae>
10004514:	9b22      	ldr	r3, [sp, #136]	; 0x88
10004516:	071b      	lsls	r3, r3, #28
10004518:	d5c5      	bpl.n	100044a6 <_ftoa+0x2ae>
1000451a:	ab0c      	add	r3, sp, #48	; 0x30
1000451c:	2220      	movs	r2, #32
1000451e:	551a      	strb	r2, [r3, r4]
10004520:	3401      	adds	r4, #1
10004522:	e7c0      	b.n	100044a6 <_ftoa+0x2ae>
10004524:	ffefffff 	.word	0xffefffff
10004528:	7fefffff 	.word	0x7fefffff
1000452c:	41cdcd65 	.word	0x41cdcd65
10004530:	c1cdcd65 	.word	0xc1cdcd65
10004534:	1000a548 	.word	0x1000a548
10004538:	1000a54c 	.word	0x1000a54c
1000453c:	1000a540 	.word	0x1000a540
10004540:	1000a53c 	.word	0x1000a53c
10004544:	1000a738 	.word	0x1000a738
10004548:	3fe00000 	.word	0x3fe00000

1000454c <_vsnprintf>:
1000454c:	b5f0      	push	{r4, r5, r6, r7, lr}
1000454e:	46de      	mov	lr, fp
10004550:	4657      	mov	r7, sl
10004552:	464e      	mov	r6, r9
10004554:	4645      	mov	r5, r8
10004556:	b5e0      	push	{r5, r6, r7, lr}
10004558:	b093      	sub	sp, #76	; 0x4c
1000455a:	4682      	mov	sl, r0
1000455c:	468b      	mov	fp, r1
1000455e:	4690      	mov	r8, r2
10004560:	9311      	str	r3, [sp, #68]	; 0x44
10004562:	2900      	cmp	r1, #0
10004564:	d100      	bne.n	10004568 <_vsnprintf+0x1c>
10004566:	e2eb      	b.n	10004b40 <_vsnprintf+0x5f4>
10004568:	2700      	movs	r7, #0
1000456a:	4655      	mov	r5, sl
1000456c:	9b11      	ldr	r3, [sp, #68]	; 0x44
1000456e:	7818      	ldrb	r0, [r3, #0]
10004570:	2800      	cmp	r0, #0
10004572:	d100      	bne.n	10004576 <_vsnprintf+0x2a>
10004574:	e2e7      	b.n	10004b46 <_vsnprintf+0x5fa>
10004576:	2825      	cmp	r0, #37	; 0x25
10004578:	d009      	beq.n	1000458e <_vsnprintf+0x42>
1000457a:	1c7c      	adds	r4, r7, #1
1000457c:	4643      	mov	r3, r8
1000457e:	003a      	movs	r2, r7
10004580:	4659      	mov	r1, fp
10004582:	47a8      	blx	r5
10004584:	9b11      	ldr	r3, [sp, #68]	; 0x44
10004586:	3301      	adds	r3, #1
10004588:	9311      	str	r3, [sp, #68]	; 0x44
1000458a:	0027      	movs	r7, r4
1000458c:	e7ee      	b.n	1000456c <_vsnprintf+0x20>
1000458e:	3301      	adds	r3, #1
10004590:	9311      	str	r3, [sp, #68]	; 0x44
10004592:	2400      	movs	r4, #0
10004594:	9a11      	ldr	r2, [sp, #68]	; 0x44
10004596:	7811      	ldrb	r1, [r2, #0]
10004598:	000b      	movs	r3, r1
1000459a:	3b20      	subs	r3, #32
1000459c:	b2d8      	uxtb	r0, r3
1000459e:	2810      	cmp	r0, #16
100045a0:	d803      	bhi.n	100045aa <_vsnprintf+0x5e>
100045a2:	0083      	lsls	r3, r0, #2
100045a4:	48d0      	ldr	r0, [pc, #832]	; (100048e8 <_vsnprintf+0x39c>)
100045a6:	58c3      	ldr	r3, [r0, r3]
100045a8:	469f      	mov	pc, r3
100045aa:	000b      	movs	r3, r1
100045ac:	3b30      	subs	r3, #48	; 0x30
100045ae:	b2db      	uxtb	r3, r3
100045b0:	2b09      	cmp	r3, #9
100045b2:	d92c      	bls.n	1000460e <_vsnprintf+0xc2>
100045b4:	292a      	cmp	r1, #42	; 0x2a
100045b6:	d02f      	beq.n	10004618 <_vsnprintf+0xcc>
100045b8:	2300      	movs	r3, #0
100045ba:	930a      	str	r3, [sp, #40]	; 0x28
100045bc:	9b11      	ldr	r3, [sp, #68]	; 0x44
100045be:	781a      	ldrb	r2, [r3, #0]
100045c0:	2a2e      	cmp	r2, #46	; 0x2e
100045c2:	d039      	beq.n	10004638 <_vsnprintf+0xec>
100045c4:	2300      	movs	r3, #0
100045c6:	469a      	mov	sl, r3
100045c8:	9a11      	ldr	r2, [sp, #68]	; 0x44
100045ca:	7813      	ldrb	r3, [r2, #0]
100045cc:	3b68      	subs	r3, #104	; 0x68
100045ce:	b2d9      	uxtb	r1, r3
100045d0:	2912      	cmp	r1, #18
100045d2:	d876      	bhi.n	100046c2 <_vsnprintf+0x176>
100045d4:	008b      	lsls	r3, r1, #2
100045d6:	49c5      	ldr	r1, [pc, #788]	; (100048ec <_vsnprintf+0x3a0>)
100045d8:	58cb      	ldr	r3, [r1, r3]
100045da:	469f      	mov	pc, r3
100045dc:	2301      	movs	r3, #1
100045de:	431c      	orrs	r4, r3
100045e0:	3201      	adds	r2, #1
100045e2:	9211      	str	r2, [sp, #68]	; 0x44
100045e4:	e7d6      	b.n	10004594 <_vsnprintf+0x48>
100045e6:	2302      	movs	r3, #2
100045e8:	431c      	orrs	r4, r3
100045ea:	3201      	adds	r2, #1
100045ec:	9211      	str	r2, [sp, #68]	; 0x44
100045ee:	e7d1      	b.n	10004594 <_vsnprintf+0x48>
100045f0:	2304      	movs	r3, #4
100045f2:	431c      	orrs	r4, r3
100045f4:	3201      	adds	r2, #1
100045f6:	9211      	str	r2, [sp, #68]	; 0x44
100045f8:	e7cc      	b.n	10004594 <_vsnprintf+0x48>
100045fa:	2308      	movs	r3, #8
100045fc:	431c      	orrs	r4, r3
100045fe:	3201      	adds	r2, #1
10004600:	9211      	str	r2, [sp, #68]	; 0x44
10004602:	e7c7      	b.n	10004594 <_vsnprintf+0x48>
10004604:	2310      	movs	r3, #16
10004606:	431c      	orrs	r4, r3
10004608:	3201      	adds	r2, #1
1000460a:	9211      	str	r2, [sp, #68]	; 0x44
1000460c:	e7c2      	b.n	10004594 <_vsnprintf+0x48>
1000460e:	a811      	add	r0, sp, #68	; 0x44
10004610:	f7ff fa26 	bl	10003a60 <_atoi>
10004614:	900a      	str	r0, [sp, #40]	; 0x28
10004616:	e7d1      	b.n	100045bc <_vsnprintf+0x70>
10004618:	9b1c      	ldr	r3, [sp, #112]	; 0x70
1000461a:	1d1a      	adds	r2, r3, #4
1000461c:	921c      	str	r2, [sp, #112]	; 0x70
1000461e:	6818      	ldr	r0, [r3, #0]
10004620:	2800      	cmp	r0, #0
10004622:	db04      	blt.n	1000462e <_vsnprintf+0xe2>
10004624:	900a      	str	r0, [sp, #40]	; 0x28
10004626:	9b11      	ldr	r3, [sp, #68]	; 0x44
10004628:	3301      	adds	r3, #1
1000462a:	9311      	str	r3, [sp, #68]	; 0x44
1000462c:	e7c6      	b.n	100045bc <_vsnprintf+0x70>
1000462e:	2302      	movs	r3, #2
10004630:	431c      	orrs	r4, r3
10004632:	4243      	negs	r3, r0
10004634:	930a      	str	r3, [sp, #40]	; 0x28
10004636:	e7f6      	b.n	10004626 <_vsnprintf+0xda>
10004638:	2280      	movs	r2, #128	; 0x80
1000463a:	00d2      	lsls	r2, r2, #3
1000463c:	4314      	orrs	r4, r2
1000463e:	1c5a      	adds	r2, r3, #1
10004640:	9211      	str	r2, [sp, #68]	; 0x44
10004642:	785a      	ldrb	r2, [r3, #1]
10004644:	0013      	movs	r3, r2
10004646:	3b30      	subs	r3, #48	; 0x30
10004648:	b2db      	uxtb	r3, r3
1000464a:	2b09      	cmp	r3, #9
1000464c:	d904      	bls.n	10004658 <_vsnprintf+0x10c>
1000464e:	2a2a      	cmp	r2, #42	; 0x2a
10004650:	d007      	beq.n	10004662 <_vsnprintf+0x116>
10004652:	2300      	movs	r3, #0
10004654:	469a      	mov	sl, r3
10004656:	e7b7      	b.n	100045c8 <_vsnprintf+0x7c>
10004658:	a811      	add	r0, sp, #68	; 0x44
1000465a:	f7ff fa01 	bl	10003a60 <_atoi>
1000465e:	4682      	mov	sl, r0
10004660:	e7b2      	b.n	100045c8 <_vsnprintf+0x7c>
10004662:	9b1c      	ldr	r3, [sp, #112]	; 0x70
10004664:	1d1a      	adds	r2, r3, #4
10004666:	921c      	str	r2, [sp, #112]	; 0x70
10004668:	6818      	ldr	r0, [r3, #0]
1000466a:	2800      	cmp	r0, #0
1000466c:	db04      	blt.n	10004678 <_vsnprintf+0x12c>
1000466e:	4682      	mov	sl, r0
10004670:	9b11      	ldr	r3, [sp, #68]	; 0x44
10004672:	3301      	adds	r3, #1
10004674:	9311      	str	r3, [sp, #68]	; 0x44
10004676:	e7a7      	b.n	100045c8 <_vsnprintf+0x7c>
10004678:	2000      	movs	r0, #0
1000467a:	e7f8      	b.n	1000466e <_vsnprintf+0x122>
1000467c:	2380      	movs	r3, #128	; 0x80
1000467e:	005b      	lsls	r3, r3, #1
10004680:	4323      	orrs	r3, r4
10004682:	1c51      	adds	r1, r2, #1
10004684:	9111      	str	r1, [sp, #68]	; 0x44
10004686:	7852      	ldrb	r2, [r2, #1]
10004688:	2a6c      	cmp	r2, #108	; 0x6c
1000468a:	d001      	beq.n	10004690 <_vsnprintf+0x144>
1000468c:	001c      	movs	r4, r3
1000468e:	e018      	b.n	100046c2 <_vsnprintf+0x176>
10004690:	23c0      	movs	r3, #192	; 0xc0
10004692:	009b      	lsls	r3, r3, #2
10004694:	431c      	orrs	r4, r3
10004696:	3101      	adds	r1, #1
10004698:	9111      	str	r1, [sp, #68]	; 0x44
1000469a:	e012      	b.n	100046c2 <_vsnprintf+0x176>
1000469c:	2380      	movs	r3, #128	; 0x80
1000469e:	4323      	orrs	r3, r4
100046a0:	1c51      	adds	r1, r2, #1
100046a2:	9111      	str	r1, [sp, #68]	; 0x44
100046a4:	7852      	ldrb	r2, [r2, #1]
100046a6:	2a68      	cmp	r2, #104	; 0x68
100046a8:	d001      	beq.n	100046ae <_vsnprintf+0x162>
100046aa:	001c      	movs	r4, r3
100046ac:	e009      	b.n	100046c2 <_vsnprintf+0x176>
100046ae:	23c0      	movs	r3, #192	; 0xc0
100046b0:	431c      	orrs	r4, r3
100046b2:	3101      	adds	r1, #1
100046b4:	9111      	str	r1, [sp, #68]	; 0x44
100046b6:	e004      	b.n	100046c2 <_vsnprintf+0x176>
100046b8:	2380      	movs	r3, #128	; 0x80
100046ba:	005b      	lsls	r3, r3, #1
100046bc:	431c      	orrs	r4, r3
100046be:	3201      	adds	r2, #1
100046c0:	9211      	str	r2, [sp, #68]	; 0x44
100046c2:	9b11      	ldr	r3, [sp, #68]	; 0x44
100046c4:	7818      	ldrb	r0, [r3, #0]
100046c6:	0003      	movs	r3, r0
100046c8:	3b25      	subs	r3, #37	; 0x25
100046ca:	b2da      	uxtb	r2, r3
100046cc:	2a53      	cmp	r2, #83	; 0x53
100046ce:	d900      	bls.n	100046d2 <_vsnprintf+0x186>
100046d0:	e22c      	b.n	10004b2c <_vsnprintf+0x5e0>
100046d2:	0093      	lsls	r3, r2, #2
100046d4:	4a86      	ldr	r2, [pc, #536]	; (100048f0 <_vsnprintf+0x3a4>)
100046d6:	58d3      	ldr	r3, [r2, r3]
100046d8:	469f      	mov	pc, r3
100046da:	2380      	movs	r3, #128	; 0x80
100046dc:	009b      	lsls	r3, r3, #2
100046de:	431c      	orrs	r4, r3
100046e0:	3201      	adds	r2, #1
100046e2:	9211      	str	r2, [sp, #68]	; 0x44
100046e4:	e7ed      	b.n	100046c2 <_vsnprintf+0x176>
100046e6:	2380      	movs	r3, #128	; 0x80
100046e8:	005b      	lsls	r3, r3, #1
100046ea:	431c      	orrs	r4, r3
100046ec:	3201      	adds	r2, #1
100046ee:	9211      	str	r2, [sp, #68]	; 0x44
100046f0:	e7e7      	b.n	100046c2 <_vsnprintf+0x176>
100046f2:	2878      	cmp	r0, #120	; 0x78
100046f4:	d009      	beq.n	1000470a <_vsnprintf+0x1be>
100046f6:	2858      	cmp	r0, #88	; 0x58
100046f8:	d038      	beq.n	1000476c <_vsnprintf+0x220>
100046fa:	286f      	cmp	r0, #111	; 0x6f
100046fc:	d038      	beq.n	10004770 <_vsnprintf+0x224>
100046fe:	2862      	cmp	r0, #98	; 0x62
10004700:	d038      	beq.n	10004774 <_vsnprintf+0x228>
10004702:	2310      	movs	r3, #16
10004704:	439c      	bics	r4, r3
10004706:	260a      	movs	r6, #10
10004708:	e000      	b.n	1000470c <_vsnprintf+0x1c0>
1000470a:	2610      	movs	r6, #16
1000470c:	2858      	cmp	r0, #88	; 0x58
1000470e:	d033      	beq.n	10004778 <_vsnprintf+0x22c>
10004710:	2869      	cmp	r0, #105	; 0x69
10004712:	d003      	beq.n	1000471c <_vsnprintf+0x1d0>
10004714:	2864      	cmp	r0, #100	; 0x64
10004716:	d001      	beq.n	1000471c <_vsnprintf+0x1d0>
10004718:	220c      	movs	r2, #12
1000471a:	4394      	bics	r4, r2
1000471c:	0563      	lsls	r3, r4, #21
1000471e:	d501      	bpl.n	10004724 <_vsnprintf+0x1d8>
10004720:	2201      	movs	r2, #1
10004722:	4394      	bics	r4, r2
10004724:	2869      	cmp	r0, #105	; 0x69
10004726:	d02a      	beq.n	1000477e <_vsnprintf+0x232>
10004728:	2864      	cmp	r0, #100	; 0x64
1000472a:	d028      	beq.n	1000477e <_vsnprintf+0x232>
1000472c:	05a3      	lsls	r3, r4, #22
1000472e:	d500      	bpl.n	10004732 <_vsnprintf+0x1e6>
10004730:	e09f      	b.n	10004872 <_vsnprintf+0x326>
10004732:	05e3      	lsls	r3, r4, #23
10004734:	d500      	bpl.n	10004738 <_vsnprintf+0x1ec>
10004736:	e0b8      	b.n	100048aa <_vsnprintf+0x35e>
10004738:	0663      	lsls	r3, r4, #25
1000473a:	d400      	bmi.n	1000473e <_vsnprintf+0x1f2>
1000473c:	e0ca      	b.n	100048d4 <_vsnprintf+0x388>
1000473e:	9a1c      	ldr	r2, [sp, #112]	; 0x70
10004740:	1d11      	adds	r1, r2, #4
10004742:	911c      	str	r1, [sp, #112]	; 0x70
10004744:	6811      	ldr	r1, [r2, #0]
10004746:	22ff      	movs	r2, #255	; 0xff
10004748:	400a      	ands	r2, r1
1000474a:	9405      	str	r4, [sp, #20]
1000474c:	9b0a      	ldr	r3, [sp, #40]	; 0x28
1000474e:	9304      	str	r3, [sp, #16]
10004750:	4653      	mov	r3, sl
10004752:	9303      	str	r3, [sp, #12]
10004754:	9602      	str	r6, [sp, #8]
10004756:	2300      	movs	r3, #0
10004758:	9301      	str	r3, [sp, #4]
1000475a:	9200      	str	r2, [sp, #0]
1000475c:	4643      	mov	r3, r8
1000475e:	003a      	movs	r2, r7
10004760:	4659      	mov	r1, fp
10004762:	0028      	movs	r0, r5
10004764:	f7ff fa6e 	bl	10003c44 <_ntoa_long>
10004768:	0007      	movs	r7, r0
1000476a:	e027      	b.n	100047bc <_vsnprintf+0x270>
1000476c:	2610      	movs	r6, #16
1000476e:	e7cd      	b.n	1000470c <_vsnprintf+0x1c0>
10004770:	2608      	movs	r6, #8
10004772:	e7cb      	b.n	1000470c <_vsnprintf+0x1c0>
10004774:	2602      	movs	r6, #2
10004776:	e7c9      	b.n	1000470c <_vsnprintf+0x1c0>
10004778:	2220      	movs	r2, #32
1000477a:	4314      	orrs	r4, r2
1000477c:	e7c8      	b.n	10004710 <_vsnprintf+0x1c4>
1000477e:	05a3      	lsls	r3, r4, #22
10004780:	d420      	bmi.n	100047c4 <_vsnprintf+0x278>
10004782:	05e3      	lsls	r3, r4, #23
10004784:	d450      	bmi.n	10004828 <_vsnprintf+0x2dc>
10004786:	0663      	lsls	r3, r4, #25
10004788:	d566      	bpl.n	10004858 <_vsnprintf+0x30c>
1000478a:	9a1c      	ldr	r2, [sp, #112]	; 0x70
1000478c:	1d11      	adds	r1, r2, #4
1000478e:	911c      	str	r1, [sp, #112]	; 0x70
10004790:	6811      	ldr	r1, [r2, #0]
10004792:	22ff      	movs	r2, #255	; 0xff
10004794:	400a      	ands	r2, r1
10004796:	17d3      	asrs	r3, r2, #31
10004798:	18d1      	adds	r1, r2, r3
1000479a:	4059      	eors	r1, r3
1000479c:	9405      	str	r4, [sp, #20]
1000479e:	9b0a      	ldr	r3, [sp, #40]	; 0x28
100047a0:	9304      	str	r3, [sp, #16]
100047a2:	4653      	mov	r3, sl
100047a4:	9303      	str	r3, [sp, #12]
100047a6:	9602      	str	r6, [sp, #8]
100047a8:	0fd2      	lsrs	r2, r2, #31
100047aa:	9201      	str	r2, [sp, #4]
100047ac:	9100      	str	r1, [sp, #0]
100047ae:	4643      	mov	r3, r8
100047b0:	003a      	movs	r2, r7
100047b2:	4659      	mov	r1, fp
100047b4:	0028      	movs	r0, r5
100047b6:	f7ff fa45 	bl	10003c44 <_ntoa_long>
100047ba:	0007      	movs	r7, r0
100047bc:	9b11      	ldr	r3, [sp, #68]	; 0x44
100047be:	3301      	adds	r3, #1
100047c0:	9311      	str	r3, [sp, #68]	; 0x44
100047c2:	e6d3      	b.n	1000456c <_vsnprintf+0x20>
100047c4:	9b1c      	ldr	r3, [sp, #112]	; 0x70
100047c6:	1dda      	adds	r2, r3, #7
100047c8:	2107      	movs	r1, #7
100047ca:	438a      	bics	r2, r1
100047cc:	0011      	movs	r1, r2
100047ce:	3108      	adds	r1, #8
100047d0:	911c      	str	r1, [sp, #112]	; 0x70
100047d2:	6811      	ldr	r1, [r2, #0]
100047d4:	6853      	ldr	r3, [r2, #4]
100047d6:	469c      	mov	ip, r3
100047d8:	17db      	asrs	r3, r3, #31
100047da:	930c      	str	r3, [sp, #48]	; 0x30
100047dc:	930d      	str	r3, [sp, #52]	; 0x34
100047de:	9a0c      	ldr	r2, [sp, #48]	; 0x30
100047e0:	9b0d      	ldr	r3, [sp, #52]	; 0x34
100047e2:	0010      	movs	r0, r2
100047e4:	4048      	eors	r0, r1
100047e6:	900e      	str	r0, [sp, #56]	; 0x38
100047e8:	4662      	mov	r2, ip
100047ea:	4053      	eors	r3, r2
100047ec:	930f      	str	r3, [sp, #60]	; 0x3c
100047ee:	980e      	ldr	r0, [sp, #56]	; 0x38
100047f0:	990f      	ldr	r1, [sp, #60]	; 0x3c
100047f2:	9a0c      	ldr	r2, [sp, #48]	; 0x30
100047f4:	9b0d      	ldr	r3, [sp, #52]	; 0x34
100047f6:	1a80      	subs	r0, r0, r2
100047f8:	4199      	sbcs	r1, r3
100047fa:	900e      	str	r0, [sp, #56]	; 0x38
100047fc:	910f      	str	r1, [sp, #60]	; 0x3c
100047fe:	9408      	str	r4, [sp, #32]
10004800:	9b0a      	ldr	r3, [sp, #40]	; 0x28
10004802:	9307      	str	r3, [sp, #28]
10004804:	4653      	mov	r3, sl
10004806:	9306      	str	r3, [sp, #24]
10004808:	9604      	str	r6, [sp, #16]
1000480a:	2300      	movs	r3, #0
1000480c:	9305      	str	r3, [sp, #20]
1000480e:	4663      	mov	r3, ip
10004810:	0fda      	lsrs	r2, r3, #31
10004812:	9202      	str	r2, [sp, #8]
10004814:	9000      	str	r0, [sp, #0]
10004816:	9101      	str	r1, [sp, #4]
10004818:	4643      	mov	r3, r8
1000481a:	003a      	movs	r2, r7
1000481c:	4659      	mov	r1, fp
1000481e:	0028      	movs	r0, r5
10004820:	f7ff fa6e 	bl	10003d00 <_ntoa_long_long>
10004824:	0007      	movs	r7, r0
10004826:	e7c9      	b.n	100047bc <_vsnprintf+0x270>
10004828:	9a1c      	ldr	r2, [sp, #112]	; 0x70
1000482a:	1d11      	adds	r1, r2, #4
1000482c:	911c      	str	r1, [sp, #112]	; 0x70
1000482e:	6812      	ldr	r2, [r2, #0]
10004830:	17d3      	asrs	r3, r2, #31
10004832:	18d1      	adds	r1, r2, r3
10004834:	4059      	eors	r1, r3
10004836:	9405      	str	r4, [sp, #20]
10004838:	9b0a      	ldr	r3, [sp, #40]	; 0x28
1000483a:	9304      	str	r3, [sp, #16]
1000483c:	4653      	mov	r3, sl
1000483e:	9303      	str	r3, [sp, #12]
10004840:	9602      	str	r6, [sp, #8]
10004842:	0fd2      	lsrs	r2, r2, #31
10004844:	9201      	str	r2, [sp, #4]
10004846:	9100      	str	r1, [sp, #0]
10004848:	4643      	mov	r3, r8
1000484a:	003a      	movs	r2, r7
1000484c:	4659      	mov	r1, fp
1000484e:	0028      	movs	r0, r5
10004850:	f7ff f9f8 	bl	10003c44 <_ntoa_long>
10004854:	0007      	movs	r7, r0
10004856:	e7b1      	b.n	100047bc <_vsnprintf+0x270>
10004858:	0623      	lsls	r3, r4, #24
1000485a:	d505      	bpl.n	10004868 <_vsnprintf+0x31c>
1000485c:	9a1c      	ldr	r2, [sp, #112]	; 0x70
1000485e:	1d11      	adds	r1, r2, #4
10004860:	911c      	str	r1, [sp, #112]	; 0x70
10004862:	2300      	movs	r3, #0
10004864:	5ed2      	ldrsh	r2, [r2, r3]
10004866:	e796      	b.n	10004796 <_vsnprintf+0x24a>
10004868:	9a1c      	ldr	r2, [sp, #112]	; 0x70
1000486a:	1d11      	adds	r1, r2, #4
1000486c:	911c      	str	r1, [sp, #112]	; 0x70
1000486e:	6812      	ldr	r2, [r2, #0]
10004870:	e791      	b.n	10004796 <_vsnprintf+0x24a>
10004872:	9b1c      	ldr	r3, [sp, #112]	; 0x70
10004874:	1dda      	adds	r2, r3, #7
10004876:	2107      	movs	r1, #7
10004878:	438a      	bics	r2, r1
1000487a:	0011      	movs	r1, r2
1000487c:	3108      	adds	r1, #8
1000487e:	911c      	str	r1, [sp, #112]	; 0x70
10004880:	9408      	str	r4, [sp, #32]
10004882:	9b0a      	ldr	r3, [sp, #40]	; 0x28
10004884:	9307      	str	r3, [sp, #28]
10004886:	4653      	mov	r3, sl
10004888:	9306      	str	r3, [sp, #24]
1000488a:	9604      	str	r6, [sp, #16]
1000488c:	2300      	movs	r3, #0
1000488e:	9305      	str	r3, [sp, #20]
10004890:	9302      	str	r3, [sp, #8]
10004892:	6813      	ldr	r3, [r2, #0]
10004894:	6854      	ldr	r4, [r2, #4]
10004896:	9300      	str	r3, [sp, #0]
10004898:	9401      	str	r4, [sp, #4]
1000489a:	4643      	mov	r3, r8
1000489c:	003a      	movs	r2, r7
1000489e:	4659      	mov	r1, fp
100048a0:	0028      	movs	r0, r5
100048a2:	f7ff fa2d 	bl	10003d00 <_ntoa_long_long>
100048a6:	0007      	movs	r7, r0
100048a8:	e788      	b.n	100047bc <_vsnprintf+0x270>
100048aa:	9a1c      	ldr	r2, [sp, #112]	; 0x70
100048ac:	1d11      	adds	r1, r2, #4
100048ae:	911c      	str	r1, [sp, #112]	; 0x70
100048b0:	9405      	str	r4, [sp, #20]
100048b2:	9b0a      	ldr	r3, [sp, #40]	; 0x28
100048b4:	9304      	str	r3, [sp, #16]
100048b6:	4653      	mov	r3, sl
100048b8:	9303      	str	r3, [sp, #12]
100048ba:	9602      	str	r6, [sp, #8]
100048bc:	2300      	movs	r3, #0
100048be:	9301      	str	r3, [sp, #4]
100048c0:	6813      	ldr	r3, [r2, #0]
100048c2:	9300      	str	r3, [sp, #0]
100048c4:	4643      	mov	r3, r8
100048c6:	003a      	movs	r2, r7
100048c8:	4659      	mov	r1, fp
100048ca:	0028      	movs	r0, r5
100048cc:	f7ff f9ba 	bl	10003c44 <_ntoa_long>
100048d0:	0007      	movs	r7, r0
100048d2:	e773      	b.n	100047bc <_vsnprintf+0x270>
100048d4:	0623      	lsls	r3, r4, #24
100048d6:	d50d      	bpl.n	100048f4 <_vsnprintf+0x3a8>
100048d8:	9a1c      	ldr	r2, [sp, #112]	; 0x70
100048da:	1d11      	adds	r1, r2, #4
100048dc:	911c      	str	r1, [sp, #112]	; 0x70
100048de:	6812      	ldr	r2, [r2, #0]
100048e0:	0412      	lsls	r2, r2, #16
100048e2:	0c12      	lsrs	r2, r2, #16
100048e4:	e731      	b.n	1000474a <_vsnprintf+0x1fe>
100048e6:	46c0      	nop			; (mov r8, r8)
100048e8:	1000a554 	.word	0x1000a554
100048ec:	1000a598 	.word	0x1000a598
100048f0:	1000a5e4 	.word	0x1000a5e4
100048f4:	9a1c      	ldr	r2, [sp, #112]	; 0x70
100048f6:	1d11      	adds	r1, r2, #4
100048f8:	911c      	str	r1, [sp, #112]	; 0x70
100048fa:	6812      	ldr	r2, [r2, #0]
100048fc:	e725      	b.n	1000474a <_vsnprintf+0x1fe>
100048fe:	2846      	cmp	r0, #70	; 0x46
10004900:	d01a      	beq.n	10004938 <_vsnprintf+0x3ec>
10004902:	9b1c      	ldr	r3, [sp, #112]	; 0x70
10004904:	3307      	adds	r3, #7
10004906:	2207      	movs	r2, #7
10004908:	4393      	bics	r3, r2
1000490a:	001a      	movs	r2, r3
1000490c:	3208      	adds	r2, #8
1000490e:	921c      	str	r2, [sp, #112]	; 0x70
10004910:	9404      	str	r4, [sp, #16]
10004912:	9a0a      	ldr	r2, [sp, #40]	; 0x28
10004914:	9203      	str	r2, [sp, #12]
10004916:	4652      	mov	r2, sl
10004918:	9202      	str	r2, [sp, #8]
1000491a:	685c      	ldr	r4, [r3, #4]
1000491c:	681b      	ldr	r3, [r3, #0]
1000491e:	9300      	str	r3, [sp, #0]
10004920:	9401      	str	r4, [sp, #4]
10004922:	4643      	mov	r3, r8
10004924:	003a      	movs	r2, r7
10004926:	4659      	mov	r1, fp
10004928:	0028      	movs	r0, r5
1000492a:	f7ff fc65 	bl	100041f8 <_ftoa>
1000492e:	0007      	movs	r7, r0
10004930:	9b11      	ldr	r3, [sp, #68]	; 0x44
10004932:	3301      	adds	r3, #1
10004934:	9311      	str	r3, [sp, #68]	; 0x44
10004936:	e619      	b.n	1000456c <_vsnprintf+0x20>
10004938:	2320      	movs	r3, #32
1000493a:	431c      	orrs	r4, r3
1000493c:	e7e1      	b.n	10004902 <_vsnprintf+0x3b6>
1000493e:	2867      	cmp	r0, #103	; 0x67
10004940:	d001      	beq.n	10004946 <_vsnprintf+0x3fa>
10004942:	2847      	cmp	r0, #71	; 0x47
10004944:	d102      	bne.n	1000494c <_vsnprintf+0x400>
10004946:	2380      	movs	r3, #128	; 0x80
10004948:	011b      	lsls	r3, r3, #4
1000494a:	431c      	orrs	r4, r3
1000494c:	2845      	cmp	r0, #69	; 0x45
1000494e:	d001      	beq.n	10004954 <_vsnprintf+0x408>
10004950:	2847      	cmp	r0, #71	; 0x47
10004952:	d101      	bne.n	10004958 <_vsnprintf+0x40c>
10004954:	2320      	movs	r3, #32
10004956:	431c      	orrs	r4, r3
10004958:	9b1c      	ldr	r3, [sp, #112]	; 0x70
1000495a:	3307      	adds	r3, #7
1000495c:	2207      	movs	r2, #7
1000495e:	4393      	bics	r3, r2
10004960:	001a      	movs	r2, r3
10004962:	3208      	adds	r2, #8
10004964:	921c      	str	r2, [sp, #112]	; 0x70
10004966:	9404      	str	r4, [sp, #16]
10004968:	9a0a      	ldr	r2, [sp, #40]	; 0x28
1000496a:	9203      	str	r2, [sp, #12]
1000496c:	4652      	mov	r2, sl
1000496e:	9202      	str	r2, [sp, #8]
10004970:	685c      	ldr	r4, [r3, #4]
10004972:	681b      	ldr	r3, [r3, #0]
10004974:	9300      	str	r3, [sp, #0]
10004976:	9401      	str	r4, [sp, #4]
10004978:	4643      	mov	r3, r8
1000497a:	003a      	movs	r2, r7
1000497c:	4659      	mov	r1, fp
1000497e:	0028      	movs	r0, r5
10004980:	f7ff fa30 	bl	10003de4 <_etoa>
10004984:	0007      	movs	r7, r0
10004986:	9b11      	ldr	r3, [sp, #68]	; 0x44
10004988:	3301      	adds	r3, #1
1000498a:	9311      	str	r3, [sp, #68]	; 0x44
1000498c:	e5ee      	b.n	1000456c <_vsnprintf+0x20>
1000498e:	2302      	movs	r3, #2
10004990:	001a      	movs	r2, r3
10004992:	4022      	ands	r2, r4
10004994:	4692      	mov	sl, r2
10004996:	4223      	tst	r3, r4
10004998:	d01f      	beq.n	100049da <_vsnprintf+0x48e>
1000499a:	2401      	movs	r4, #1
1000499c:	9b1c      	ldr	r3, [sp, #112]	; 0x70
1000499e:	1d1a      	adds	r2, r3, #4
100049a0:	921c      	str	r2, [sp, #112]	; 0x70
100049a2:	1c7a      	adds	r2, r7, #1
100049a4:	4691      	mov	r9, r2
100049a6:	7818      	ldrb	r0, [r3, #0]
100049a8:	4643      	mov	r3, r8
100049aa:	003a      	movs	r2, r7
100049ac:	4659      	mov	r1, fp
100049ae:	47a8      	blx	r5
100049b0:	4653      	mov	r3, sl
100049b2:	2b00      	cmp	r3, #0
100049b4:	d116      	bne.n	100049e4 <_vsnprintf+0x498>
100049b6:	9b11      	ldr	r3, [sp, #68]	; 0x44
100049b8:	3301      	adds	r3, #1
100049ba:	9311      	str	r3, [sp, #68]	; 0x44
100049bc:	464f      	mov	r7, r9
100049be:	e5d5      	b.n	1000456c <_vsnprintf+0x20>
100049c0:	1c56      	adds	r6, r2, #1
100049c2:	4643      	mov	r3, r8
100049c4:	4659      	mov	r1, fp
100049c6:	2020      	movs	r0, #32
100049c8:	47b8      	blx	r7
100049ca:	0023      	movs	r3, r4
100049cc:	0032      	movs	r2, r6
100049ce:	1c5c      	adds	r4, r3, #1
100049d0:	429d      	cmp	r5, r3
100049d2:	d8f5      	bhi.n	100049c0 <_vsnprintf+0x474>
100049d4:	003d      	movs	r5, r7
100049d6:	0017      	movs	r7, r2
100049d8:	e7e0      	b.n	1000499c <_vsnprintf+0x450>
100049da:	2301      	movs	r3, #1
100049dc:	003a      	movs	r2, r7
100049de:	002f      	movs	r7, r5
100049e0:	9d0a      	ldr	r5, [sp, #40]	; 0x28
100049e2:	e7f4      	b.n	100049ce <_vsnprintf+0x482>
100049e4:	464a      	mov	r2, r9
100049e6:	46a9      	mov	r9, r5
100049e8:	9d0a      	ldr	r5, [sp, #40]	; 0x28
100049ea:	e006      	b.n	100049fa <_vsnprintf+0x4ae>
100049ec:	1c57      	adds	r7, r2, #1
100049ee:	4643      	mov	r3, r8
100049f0:	4659      	mov	r1, fp
100049f2:	2020      	movs	r0, #32
100049f4:	47c8      	blx	r9
100049f6:	0034      	movs	r4, r6
100049f8:	003a      	movs	r2, r7
100049fa:	1c66      	adds	r6, r4, #1
100049fc:	42a5      	cmp	r5, r4
100049fe:	d8f5      	bhi.n	100049ec <_vsnprintf+0x4a0>
10004a00:	464d      	mov	r5, r9
10004a02:	4691      	mov	r9, r2
10004a04:	e7d7      	b.n	100049b6 <_vsnprintf+0x46a>
10004a06:	9b1c      	ldr	r3, [sp, #112]	; 0x70
10004a08:	1d1a      	adds	r2, r3, #4
10004a0a:	921c      	str	r2, [sp, #112]	; 0x70
10004a0c:	681b      	ldr	r3, [r3, #0]
10004a0e:	4699      	mov	r9, r3
10004a10:	4653      	mov	r3, sl
10004a12:	2b00      	cmp	r3, #0
10004a14:	d100      	bne.n	10004a18 <_vsnprintf+0x4cc>
10004a16:	3b01      	subs	r3, #1
10004a18:	464e      	mov	r6, r9
10004a1a:	e001      	b.n	10004a20 <_vsnprintf+0x4d4>
10004a1c:	3601      	adds	r6, #1
10004a1e:	0013      	movs	r3, r2
10004a20:	7832      	ldrb	r2, [r6, #0]
10004a22:	2a00      	cmp	r2, #0
10004a24:	d002      	beq.n	10004a2c <_vsnprintf+0x4e0>
10004a26:	1e5a      	subs	r2, r3, #1
10004a28:	2b00      	cmp	r3, #0
10004a2a:	d1f7      	bne.n	10004a1c <_vsnprintf+0x4d0>
10004a2c:	464b      	mov	r3, r9
10004a2e:	1af2      	subs	r2, r6, r3
10004a30:	9210      	str	r2, [sp, #64]	; 0x40
10004a32:	2380      	movs	r3, #128	; 0x80
10004a34:	00db      	lsls	r3, r3, #3
10004a36:	0026      	movs	r6, r4
10004a38:	401e      	ands	r6, r3
10004a3a:	421c      	tst	r4, r3
10004a3c:	d003      	beq.n	10004a46 <_vsnprintf+0x4fa>
10004a3e:	4552      	cmp	r2, sl
10004a40:	d901      	bls.n	10004a46 <_vsnprintf+0x4fa>
10004a42:	4653      	mov	r3, sl
10004a44:	9310      	str	r3, [sp, #64]	; 0x40
10004a46:	2302      	movs	r3, #2
10004a48:	001a      	movs	r2, r3
10004a4a:	4022      	ands	r2, r4
10004a4c:	920b      	str	r2, [sp, #44]	; 0x2c
10004a4e:	4223      	tst	r3, r4
10004a50:	d005      	beq.n	10004a5e <_vsnprintf+0x512>
10004a52:	003a      	movs	r2, r7
10004a54:	0037      	movs	r7, r6
10004a56:	464c      	mov	r4, r9
10004a58:	46a9      	mov	r9, r5
10004a5a:	4655      	mov	r5, sl
10004a5c:	e020      	b.n	10004aa0 <_vsnprintf+0x554>
10004a5e:	003a      	movs	r2, r7
10004a60:	9b10      	ldr	r3, [sp, #64]	; 0x40
10004a62:	465f      	mov	r7, fp
10004a64:	46b3      	mov	fp, r6
10004a66:	002e      	movs	r6, r5
10004a68:	e006      	b.n	10004a78 <_vsnprintf+0x52c>
10004a6a:	1c55      	adds	r5, r2, #1
10004a6c:	4643      	mov	r3, r8
10004a6e:	0039      	movs	r1, r7
10004a70:	2020      	movs	r0, #32
10004a72:	47b0      	blx	r6
10004a74:	0023      	movs	r3, r4
10004a76:	002a      	movs	r2, r5
10004a78:	1c5c      	adds	r4, r3, #1
10004a7a:	990a      	ldr	r1, [sp, #40]	; 0x28
10004a7c:	4299      	cmp	r1, r3
10004a7e:	d8f4      	bhi.n	10004a6a <_vsnprintf+0x51e>
10004a80:	0035      	movs	r5, r6
10004a82:	465e      	mov	r6, fp
10004a84:	46bb      	mov	fp, r7
10004a86:	9410      	str	r4, [sp, #64]	; 0x40
10004a88:	0037      	movs	r7, r6
10004a8a:	464c      	mov	r4, r9
10004a8c:	46a9      	mov	r9, r5
10004a8e:	4655      	mov	r5, sl
10004a90:	e006      	b.n	10004aa0 <_vsnprintf+0x554>
10004a92:	001d      	movs	r5, r3
10004a94:	3401      	adds	r4, #1
10004a96:	1c56      	adds	r6, r2, #1
10004a98:	4643      	mov	r3, r8
10004a9a:	4659      	mov	r1, fp
10004a9c:	47c8      	blx	r9
10004a9e:	0032      	movs	r2, r6
10004aa0:	7820      	ldrb	r0, [r4, #0]
10004aa2:	2800      	cmp	r0, #0
10004aa4:	d004      	beq.n	10004ab0 <_vsnprintf+0x564>
10004aa6:	2f00      	cmp	r7, #0
10004aa8:	d0f4      	beq.n	10004a94 <_vsnprintf+0x548>
10004aaa:	1e6b      	subs	r3, r5, #1
10004aac:	2d00      	cmp	r5, #0
10004aae:	d1f0      	bne.n	10004a92 <_vsnprintf+0x546>
10004ab0:	0017      	movs	r7, r2
10004ab2:	464d      	mov	r5, r9
10004ab4:	9b0b      	ldr	r3, [sp, #44]	; 0x2c
10004ab6:	2b00      	cmp	r3, #0
10004ab8:	d103      	bne.n	10004ac2 <_vsnprintf+0x576>
10004aba:	9b11      	ldr	r3, [sp, #68]	; 0x44
10004abc:	3301      	adds	r3, #1
10004abe:	9311      	str	r3, [sp, #68]	; 0x44
10004ac0:	e554      	b.n	1000456c <_vsnprintf+0x20>
10004ac2:	9f0a      	ldr	r7, [sp, #40]	; 0x28
10004ac4:	9b10      	ldr	r3, [sp, #64]	; 0x40
10004ac6:	e006      	b.n	10004ad6 <_vsnprintf+0x58a>
10004ac8:	1c56      	adds	r6, r2, #1
10004aca:	4643      	mov	r3, r8
10004acc:	4659      	mov	r1, fp
10004ace:	2020      	movs	r0, #32
10004ad0:	47a8      	blx	r5
10004ad2:	0023      	movs	r3, r4
10004ad4:	0032      	movs	r2, r6
10004ad6:	1c5c      	adds	r4, r3, #1
10004ad8:	429f      	cmp	r7, r3
10004ada:	d8f5      	bhi.n	10004ac8 <_vsnprintf+0x57c>
10004adc:	0017      	movs	r7, r2
10004ade:	e7ec      	b.n	10004aba <_vsnprintf+0x56e>
10004ae0:	2321      	movs	r3, #33	; 0x21
10004ae2:	431c      	orrs	r4, r3
10004ae4:	9b1c      	ldr	r3, [sp, #112]	; 0x70
10004ae6:	1d1a      	adds	r2, r3, #4
10004ae8:	921c      	str	r2, [sp, #112]	; 0x70
10004aea:	681b      	ldr	r3, [r3, #0]
10004aec:	9300      	str	r3, [sp, #0]
10004aee:	9405      	str	r4, [sp, #20]
10004af0:	2308      	movs	r3, #8
10004af2:	9304      	str	r3, [sp, #16]
10004af4:	4653      	mov	r3, sl
10004af6:	9303      	str	r3, [sp, #12]
10004af8:	2310      	movs	r3, #16
10004afa:	9302      	str	r3, [sp, #8]
10004afc:	2300      	movs	r3, #0
10004afe:	9301      	str	r3, [sp, #4]
10004b00:	4643      	mov	r3, r8
10004b02:	003a      	movs	r2, r7
10004b04:	4659      	mov	r1, fp
10004b06:	0028      	movs	r0, r5
10004b08:	f7ff f89c 	bl	10003c44 <_ntoa_long>
10004b0c:	0007      	movs	r7, r0
10004b0e:	9b11      	ldr	r3, [sp, #68]	; 0x44
10004b10:	3301      	adds	r3, #1
10004b12:	9311      	str	r3, [sp, #68]	; 0x44
10004b14:	e52a      	b.n	1000456c <_vsnprintf+0x20>
10004b16:	1c7c      	adds	r4, r7, #1
10004b18:	4643      	mov	r3, r8
10004b1a:	003a      	movs	r2, r7
10004b1c:	4659      	mov	r1, fp
10004b1e:	2025      	movs	r0, #37	; 0x25
10004b20:	47a8      	blx	r5
10004b22:	9b11      	ldr	r3, [sp, #68]	; 0x44
10004b24:	3301      	adds	r3, #1
10004b26:	9311      	str	r3, [sp, #68]	; 0x44
10004b28:	0027      	movs	r7, r4
10004b2a:	e51f      	b.n	1000456c <_vsnprintf+0x20>
10004b2c:	1c7c      	adds	r4, r7, #1
10004b2e:	4643      	mov	r3, r8
10004b30:	003a      	movs	r2, r7
10004b32:	4659      	mov	r1, fp
10004b34:	47a8      	blx	r5
10004b36:	9b11      	ldr	r3, [sp, #68]	; 0x44
10004b38:	3301      	adds	r3, #1
10004b3a:	9311      	str	r3, [sp, #68]	; 0x44
10004b3c:	0027      	movs	r7, r4
10004b3e:	e515      	b.n	1000456c <_vsnprintf+0x20>
10004b40:	4b0a      	ldr	r3, [pc, #40]	; (10004b6c <_vsnprintf+0x620>)
10004b42:	469a      	mov	sl, r3
10004b44:	e510      	b.n	10004568 <_vsnprintf+0x1c>
10004b46:	46aa      	mov	sl, r5
10004b48:	4547      	cmp	r7, r8
10004b4a:	d302      	bcc.n	10004b52 <_vsnprintf+0x606>
10004b4c:	4643      	mov	r3, r8
10004b4e:	1e5a      	subs	r2, r3, #1
10004b50:	e000      	b.n	10004b54 <_vsnprintf+0x608>
10004b52:	003a      	movs	r2, r7
10004b54:	4643      	mov	r3, r8
10004b56:	4659      	mov	r1, fp
10004b58:	2000      	movs	r0, #0
10004b5a:	47d0      	blx	sl
10004b5c:	0038      	movs	r0, r7
10004b5e:	b013      	add	sp, #76	; 0x4c
10004b60:	bcf0      	pop	{r4, r5, r6, r7}
10004b62:	46bb      	mov	fp, r7
10004b64:	46b2      	mov	sl, r6
10004b66:	46a9      	mov	r9, r5
10004b68:	46a0      	mov	r8, r4
10004b6a:	bdf0      	pop	{r4, r5, r6, r7, pc}
10004b6c:	10003a51 	.word	0x10003a51

10004b70 <vfctprintf>:
10004b70:	b500      	push	{lr}
10004b72:	b085      	sub	sp, #20
10004b74:	9002      	str	r0, [sp, #8]
10004b76:	9103      	str	r1, [sp, #12]
10004b78:	2101      	movs	r1, #1
10004b7a:	9300      	str	r3, [sp, #0]
10004b7c:	0013      	movs	r3, r2
10004b7e:	424a      	negs	r2, r1
10004b80:	a902      	add	r1, sp, #8
10004b82:	4802      	ldr	r0, [pc, #8]	; (10004b8c <vfctprintf+0x1c>)
10004b84:	f7ff fce2 	bl	1000454c <_vsnprintf>
10004b88:	b005      	add	sp, #20
10004b8a:	bd00      	pop	{pc}
10004b8c:	10003a53 	.word	0x10003a53

10004b90 <__aeabi_bits_init>:
10004b90:	4801      	ldr	r0, [pc, #4]	; (10004b98 <__aeabi_bits_init+0x8>)
10004b92:	2104      	movs	r1, #4
10004b94:	4b01      	ldr	r3, [pc, #4]	; (10004b9c <__aeabi_bits_init+0xc>)
10004b96:	4718      	bx	r3
10004b98:	20000d70 	.word	0x20000d70
10004b9c:	10004bc1 	.word	0x10004bc1

10004ba0 <rom_func_lookup>:
10004ba0:	b510      	push	{r4, lr}
10004ba2:	0001      	movs	r1, r0
10004ba4:	2318      	movs	r3, #24
10004ba6:	881b      	ldrh	r3, [r3, #0]
10004ba8:	2214      	movs	r2, #20
10004baa:	8810      	ldrh	r0, [r2, #0]
10004bac:	4798      	blx	r3
10004bae:	bd10      	pop	{r4, pc}

10004bb0 <rom_data_lookup>:
10004bb0:	b510      	push	{r4, lr}
10004bb2:	0001      	movs	r1, r0
10004bb4:	2318      	movs	r3, #24
10004bb6:	881b      	ldrh	r3, [r3, #0]
10004bb8:	2216      	movs	r2, #22
10004bba:	8810      	ldrh	r0, [r2, #0]
10004bbc:	4798      	blx	r3
10004bbe:	bd10      	pop	{r4, pc}

10004bc0 <rom_funcs_lookup>:
10004bc0:	b5f0      	push	{r4, r5, r6, r7, lr}
10004bc2:	46c6      	mov	lr, r8
10004bc4:	b500      	push	{lr}
10004bc6:	0007      	movs	r7, r0
10004bc8:	000e      	movs	r6, r1
10004bca:	2500      	movs	r5, #0
10004bcc:	2301      	movs	r3, #1
10004bce:	4698      	mov	r8, r3
10004bd0:	e000      	b.n	10004bd4 <rom_funcs_lookup+0x14>
10004bd2:	3501      	adds	r5, #1
10004bd4:	42b5      	cmp	r5, r6
10004bd6:	d20a      	bcs.n	10004bee <rom_funcs_lookup+0x2e>
10004bd8:	00ac      	lsls	r4, r5, #2
10004bda:	193c      	adds	r4, r7, r4
10004bdc:	6820      	ldr	r0, [r4, #0]
10004bde:	f7ff ffdf 	bl	10004ba0 <rom_func_lookup>
10004be2:	6020      	str	r0, [r4, #0]
10004be4:	2800      	cmp	r0, #0
10004be6:	d1f4      	bne.n	10004bd2 <rom_funcs_lookup+0x12>
10004be8:	2300      	movs	r3, #0
10004bea:	4698      	mov	r8, r3
10004bec:	e7f1      	b.n	10004bd2 <rom_funcs_lookup+0x12>
10004bee:	4640      	mov	r0, r8
10004bf0:	bc80      	pop	{r7}
10004bf2:	46b8      	mov	r8, r7
10004bf4:	bdf0      	pop	{r4, r5, r6, r7, pc}
	...

10004bf8 <__wrap___aeabi_idiv>:
10004bf8:	4a12      	ldr	r2, [pc, #72]	; (10004c44 <divmod_s32s32_savestate+0x18>)
10004bfa:	6f93      	ldr	r3, [r2, #120]	; 0x78
10004bfc:	089b      	lsrs	r3, r3, #2
10004bfe:	d215      	bcs.n	10004c2c <divmod_s32s32_savestate>

10004c00 <divmod_s32s32_unsafe>:
10004c00:	6690      	str	r0, [r2, #104]	; 0x68
10004c02:	66d1      	str	r1, [r2, #108]	; 0x6c
10004c04:	2900      	cmp	r1, #0
10004c06:	d005      	beq.n	10004c14 <divmod_s32s32_unsafe+0x14>
10004c08:	e7ff      	b.n	10004c0a <divmod_s32s32_unsafe+0xa>
10004c0a:	e7ff      	b.n	10004c0c <divmod_s32s32_unsafe+0xc>
10004c0c:	e7ff      	b.n	10004c0e <divmod_s32s32_unsafe+0xe>
10004c0e:	6f51      	ldr	r1, [r2, #116]	; 0x74
10004c10:	6f10      	ldr	r0, [r2, #112]	; 0x70
10004c12:	4770      	bx	lr
10004c14:	b504      	push	{r2, lr}
10004c16:	2180      	movs	r1, #128	; 0x80
10004c18:	0609      	lsls	r1, r1, #24
10004c1a:	17c2      	asrs	r2, r0, #31
10004c1c:	4051      	eors	r1, r2
10004c1e:	2800      	cmp	r0, #0
10004c20:	d000      	beq.n	10004c24 <divmod_s32s32_unsafe+0x24>
10004c22:	43c8      	mvns	r0, r1
10004c24:	f004 fd3c 	bl	100096a0 <____aeabi_idiv0_veneer>
10004c28:	2100      	movs	r1, #0
10004c2a:	bd04      	pop	{r2, pc}

10004c2c <divmod_s32s32_savestate>:
10004c2c:	b5f0      	push	{r4, r5, r6, r7, lr}
10004c2e:	6e14      	ldr	r4, [r2, #96]	; 0x60
10004c30:	6e55      	ldr	r5, [r2, #100]	; 0x64
10004c32:	6f57      	ldr	r7, [r2, #116]	; 0x74
10004c34:	6f16      	ldr	r6, [r2, #112]	; 0x70
10004c36:	f7ff ffe3 	bl	10004c00 <divmod_s32s32_unsafe>
10004c3a:	6614      	str	r4, [r2, #96]	; 0x60
10004c3c:	6655      	str	r5, [r2, #100]	; 0x64
10004c3e:	6757      	str	r7, [r2, #116]	; 0x74
10004c40:	6716      	str	r6, [r2, #112]	; 0x70
10004c42:	bdf0      	pop	{r4, r5, r6, r7, pc}
10004c44:	d0000000 	.word	0xd0000000

10004c48 <__wrap___aeabi_uidiv>:
10004c48:	4a11      	ldr	r2, [pc, #68]	; (10004c90 <divmod_u32u32_savestate+0x18>)
10004c4a:	6f93      	ldr	r3, [r2, #120]	; 0x78
10004c4c:	089b      	lsrs	r3, r3, #2
10004c4e:	d213      	bcs.n	10004c78 <divmod_u32u32_savestate>

10004c50 <divmod_u32u32_unsafe>:
10004c50:	6610      	str	r0, [r2, #96]	; 0x60
10004c52:	6651      	str	r1, [r2, #100]	; 0x64
10004c54:	2900      	cmp	r1, #0
10004c56:	d005      	beq.n	10004c64 <divmod_u32u32_unsafe+0x14>
10004c58:	e7ff      	b.n	10004c5a <divmod_u32u32_unsafe+0xa>
10004c5a:	e7ff      	b.n	10004c5c <divmod_u32u32_unsafe+0xc>
10004c5c:	e7ff      	b.n	10004c5e <divmod_u32u32_unsafe+0xe>
10004c5e:	6f51      	ldr	r1, [r2, #116]	; 0x74
10004c60:	6f10      	ldr	r0, [r2, #112]	; 0x70
10004c62:	4770      	bx	lr
10004c64:	b504      	push	{r2, lr}
10004c66:	2800      	cmp	r0, #0
10004c68:	d001      	beq.n	10004c6e <divmod_u32u32_unsafe+0x1e>
10004c6a:	2000      	movs	r0, #0
10004c6c:	43c0      	mvns	r0, r0
10004c6e:	f004 fd17 	bl	100096a0 <____aeabi_idiv0_veneer>
10004c72:	2100      	movs	r1, #0
10004c74:	bd04      	pop	{r2, pc}
10004c76:	46c0      	nop			; (mov r8, r8)

10004c78 <divmod_u32u32_savestate>:
10004c78:	b5f0      	push	{r4, r5, r6, r7, lr}
10004c7a:	6e14      	ldr	r4, [r2, #96]	; 0x60
10004c7c:	6e55      	ldr	r5, [r2, #100]	; 0x64
10004c7e:	6f57      	ldr	r7, [r2, #116]	; 0x74
10004c80:	6f16      	ldr	r6, [r2, #112]	; 0x70
10004c82:	f7ff ffe5 	bl	10004c50 <divmod_u32u32_unsafe>
10004c86:	6614      	str	r4, [r2, #96]	; 0x60
10004c88:	6655      	str	r5, [r2, #100]	; 0x64
10004c8a:	6757      	str	r7, [r2, #116]	; 0x74
10004c8c:	6716      	str	r6, [r2, #112]	; 0x70
10004c8e:	bdf0      	pop	{r4, r5, r6, r7, pc}
10004c90:	d0000000 	.word	0xd0000000

10004c94 <__wrap___aeabi_ldivmod>:
10004c94:	4694      	mov	ip, r2
10004c96:	4a4a      	ldr	r2, [pc, #296]	; (10004dc0 <udiv0+0x1a>)
10004c98:	6f92      	ldr	r2, [r2, #120]	; 0x78
10004c9a:	0892      	lsrs	r2, r2, #2
10004c9c:	4662      	mov	r2, ip
10004c9e:	d201      	bcs.n	10004ca4 <divmod_s64s64_savestate>
10004ca0:	e028      	b.n	10004cf4 <divmod_s64s64_unsafe>
10004ca2:	46c0      	nop			; (mov r8, r8)

10004ca4 <divmod_s64s64_savestate>:
10004ca4:	b5f0      	push	{r4, r5, r6, r7, lr}
10004ca6:	4e46      	ldr	r6, [pc, #280]	; (10004dc0 <udiv0+0x1a>)
10004ca8:	6e34      	ldr	r4, [r6, #96]	; 0x60
10004caa:	6e75      	ldr	r5, [r6, #100]	; 0x64
10004cac:	6f77      	ldr	r7, [r6, #116]	; 0x74
10004cae:	6f36      	ldr	r6, [r6, #112]	; 0x70
10004cb0:	f000 f820 	bl	10004cf4 <divmod_s64s64_unsafe>
10004cb4:	4694      	mov	ip, r2
10004cb6:	4a42      	ldr	r2, [pc, #264]	; (10004dc0 <udiv0+0x1a>)
10004cb8:	6614      	str	r4, [r2, #96]	; 0x60
10004cba:	6655      	str	r5, [r2, #100]	; 0x64
10004cbc:	6757      	str	r7, [r2, #116]	; 0x74
10004cbe:	6716      	str	r6, [r2, #112]	; 0x70
10004cc0:	4662      	mov	r2, ip
10004cc2:	bdf0      	pop	{r4, r5, r6, r7, pc}

10004cc4 <__wrap___aeabi_uldivmod>:
10004cc4:	4694      	mov	ip, r2
10004cc6:	4a3e      	ldr	r2, [pc, #248]	; (10004dc0 <udiv0+0x1a>)
10004cc8:	6f92      	ldr	r2, [r2, #120]	; 0x78
10004cca:	0892      	lsrs	r2, r2, #2
10004ccc:	4662      	mov	r2, ip
10004cce:	d201      	bcs.n	10004cd4 <divmod_u64u64_savestate>
10004cd0:	e054      	b.n	10004d7c <divmod_u64u64_unsafe>
10004cd2:	46c0      	nop			; (mov r8, r8)

10004cd4 <divmod_u64u64_savestate>:
10004cd4:	b5f0      	push	{r4, r5, r6, r7, lr}
10004cd6:	4e3a      	ldr	r6, [pc, #232]	; (10004dc0 <udiv0+0x1a>)
10004cd8:	6e34      	ldr	r4, [r6, #96]	; 0x60
10004cda:	6e75      	ldr	r5, [r6, #100]	; 0x64
10004cdc:	6f77      	ldr	r7, [r6, #116]	; 0x74
10004cde:	6f36      	ldr	r6, [r6, #112]	; 0x70
10004ce0:	f000 f84c 	bl	10004d7c <divmod_u64u64_unsafe>
10004ce4:	4694      	mov	ip, r2
10004ce6:	4a36      	ldr	r2, [pc, #216]	; (10004dc0 <udiv0+0x1a>)
10004ce8:	6614      	str	r4, [r2, #96]	; 0x60
10004cea:	6655      	str	r5, [r2, #100]	; 0x64
10004cec:	6757      	str	r7, [r2, #116]	; 0x74
10004cee:	6716      	str	r6, [r2, #112]	; 0x70
10004cf0:	4662      	mov	r2, ip
10004cf2:	bdf0      	pop	{r4, r5, r6, r7, pc}

10004cf4 <divmod_s64s64_unsafe>:
10004cf4:	2b00      	cmp	r3, #0
10004cf6:	db24      	blt.n	10004d42 <l42_1+0x26>
10004cf8:	d011      	beq.n	10004d1e <l42_1+0x2>
10004cfa:	2900      	cmp	r1, #0
10004cfc:	da3e      	bge.n	10004d7c <divmod_u64u64_unsafe>
10004cfe:	b500      	push	{lr}
10004d00:	43c9      	mvns	r1, r1
10004d02:	4240      	negs	r0, r0
10004d04:	d100      	bne.n	10004d08 <l40_1>
10004d06:	3101      	adds	r1, #1

10004d08 <l40_1>:
10004d08:	f000 f838 	bl	10004d7c <divmod_u64u64_unsafe>
10004d0c:	43c9      	mvns	r1, r1
10004d0e:	4240      	negs	r0, r0
10004d10:	d100      	bne.n	10004d14 <l41_1>
10004d12:	3101      	adds	r1, #1

10004d14 <l41_1>:
10004d14:	43db      	mvns	r3, r3
10004d16:	4252      	negs	r2, r2
10004d18:	d100      	bne.n	10004d1c <l42_1>
10004d1a:	3301      	adds	r3, #1

10004d1c <l42_1>:
10004d1c:	bd00      	pop	{pc}
10004d1e:	2a00      	cmp	r2, #0
10004d20:	d1eb      	bne.n	10004cfa <divmod_s64s64_unsafe+0x6>
10004d22:	2800      	cmp	r0, #0
10004d24:	d101      	bne.n	10004d2a <l42_1+0xe>
10004d26:	2900      	cmp	r1, #0
10004d28:	d005      	beq.n	10004d36 <l42_1+0x1a>
10004d2a:	2000      	movs	r0, #0
10004d2c:	0fc9      	lsrs	r1, r1, #31
10004d2e:	07c9      	lsls	r1, r1, #31
10004d30:	d101      	bne.n	10004d36 <l42_1+0x1a>
10004d32:	43c0      	mvns	r0, r0
10004d34:	0841      	lsrs	r1, r0, #1
10004d36:	b500      	push	{lr}
10004d38:	f004 fca2 	bl	10009680 <____aeabi_ldiv0_veneer>
10004d3c:	2200      	movs	r2, #0
10004d3e:	2300      	movs	r3, #0
10004d40:	bd00      	pop	{pc}
10004d42:	b500      	push	{lr}
10004d44:	2900      	cmp	r1, #0
10004d46:	db0a      	blt.n	10004d5e <l44_1+0x2>
10004d48:	43db      	mvns	r3, r3
10004d4a:	4252      	negs	r2, r2
10004d4c:	d100      	bne.n	10004d50 <l43_1>
10004d4e:	3301      	adds	r3, #1

10004d50 <l43_1>:
10004d50:	f000 f814 	bl	10004d7c <divmod_u64u64_unsafe>
10004d54:	43c9      	mvns	r1, r1
10004d56:	4240      	negs	r0, r0
10004d58:	d100      	bne.n	10004d5c <l44_1>
10004d5a:	3101      	adds	r1, #1

10004d5c <l44_1>:
10004d5c:	bd00      	pop	{pc}
10004d5e:	43c9      	mvns	r1, r1
10004d60:	4240      	negs	r0, r0
10004d62:	d100      	bne.n	10004d66 <l45_1>
10004d64:	3101      	adds	r1, #1

10004d66 <l45_1>:
10004d66:	43db      	mvns	r3, r3
10004d68:	4252      	negs	r2, r2
10004d6a:	d100      	bne.n	10004d6e <l46_1>
10004d6c:	3301      	adds	r3, #1

10004d6e <l46_1>:
10004d6e:	f000 f805 	bl	10004d7c <divmod_u64u64_unsafe>
10004d72:	43db      	mvns	r3, r3
10004d74:	4252      	negs	r2, r2
10004d76:	d100      	bne.n	10004d7a <l47_1>
10004d78:	3301      	adds	r3, #1

10004d7a <l47_1>:
10004d7a:	bd00      	pop	{pc}

10004d7c <divmod_u64u64_unsafe>:
10004d7c:	2900      	cmp	r1, #0
10004d7e:	d123      	bne.n	10004dc8 <y64>
10004d80:	2b00      	cmp	r3, #0
10004d82:	d118      	bne.n	10004db6 <udiv0+0x10>
10004d84:	2a00      	cmp	r2, #0
10004d86:	d00c      	beq.n	10004da2 <divmod_u64u64_unsafe+0x26>
10004d88:	46bc      	mov	ip, r7
10004d8a:	4f0d      	ldr	r7, [pc, #52]	; (10004dc0 <udiv0+0x1a>)
10004d8c:	6638      	str	r0, [r7, #96]	; 0x60
10004d8e:	667a      	str	r2, [r7, #100]	; 0x64
10004d90:	2100      	movs	r1, #0
10004d92:	2300      	movs	r3, #0
10004d94:	e7ff      	b.n	10004d96 <divmod_u64u64_unsafe+0x1a>
10004d96:	e7ff      	b.n	10004d98 <divmod_u64u64_unsafe+0x1c>
10004d98:	e7ff      	b.n	10004d9a <divmod_u64u64_unsafe+0x1e>
10004d9a:	6f7a      	ldr	r2, [r7, #116]	; 0x74
10004d9c:	6f38      	ldr	r0, [r7, #112]	; 0x70
10004d9e:	4667      	mov	r7, ip
10004da0:	4770      	bx	lr
10004da2:	2800      	cmp	r0, #0
10004da4:	d001      	beq.n	10004daa <udiv0+0x4>

10004da6 <udiv0>:
10004da6:	4807      	ldr	r0, [pc, #28]	; (10004dc4 <udiv0+0x1e>)
10004da8:	0001      	movs	r1, r0
10004daa:	b500      	push	{lr}
10004dac:	f004 fc68 	bl	10009680 <____aeabi_ldiv0_veneer>
10004db0:	2200      	movs	r2, #0
10004db2:	2300      	movs	r3, #0
10004db4:	bd00      	pop	{pc}
10004db6:	0002      	movs	r2, r0
10004db8:	000b      	movs	r3, r1
10004dba:	2000      	movs	r0, #0
10004dbc:	2100      	movs	r1, #0
10004dbe:	4770      	bx	lr
10004dc0:	d0000000 	.word	0xd0000000
10004dc4:	ffffffff 	.word	0xffffffff

10004dc8 <y64>:
10004dc8:	2b00      	cmp	r3, #0
10004dca:	d000      	beq.n	10004dce <y64+0x6>
10004dcc:	e0bf      	b.n	10004f4e <y64_x48>
10004dce:	0c13      	lsrs	r3, r2, #16
10004dd0:	d128      	bne.n	10004e24 <y64_x32>
10004dd2:	2a00      	cmp	r2, #0
10004dd4:	d0e7      	beq.n	10004da6 <udiv0>
10004dd6:	b480      	push	{r7}
10004dd8:	4f11      	ldr	r7, [pc, #68]	; (10004e20 <y64+0x58>)
10004dda:	6639      	str	r1, [r7, #96]	; 0x60
10004ddc:	667a      	str	r2, [r7, #100]	; 0x64
10004dde:	e7ff      	b.n	10004de0 <y64+0x18>
10004de0:	e7ff      	b.n	10004de2 <y64+0x1a>
10004de2:	b430      	push	{r4, r5}
10004de4:	0c04      	lsrs	r4, r0, #16
10004de6:	6f7b      	ldr	r3, [r7, #116]	; 0x74
10004de8:	6f39      	ldr	r1, [r7, #112]	; 0x70
10004dea:	041b      	lsls	r3, r3, #16
10004dec:	4323      	orrs	r3, r4
10004dee:	663b      	str	r3, [r7, #96]	; 0x60
10004df0:	667a      	str	r2, [r7, #100]	; 0x64
10004df2:	e7ff      	b.n	10004df4 <y64+0x2c>
10004df4:	e7ff      	b.n	10004df6 <y64+0x2e>
10004df6:	e7ff      	b.n	10004df8 <y64+0x30>
10004df8:	46c0      	nop			; (mov r8, r8)
10004dfa:	b284      	uxth	r4, r0
10004dfc:	6f7b      	ldr	r3, [r7, #116]	; 0x74
10004dfe:	6f3d      	ldr	r5, [r7, #112]	; 0x70
10004e00:	041b      	lsls	r3, r3, #16
10004e02:	4323      	orrs	r3, r4
10004e04:	663b      	str	r3, [r7, #96]	; 0x60
10004e06:	667a      	str	r2, [r7, #100]	; 0x64
10004e08:	e7ff      	b.n	10004e0a <y64+0x42>
10004e0a:	e7ff      	b.n	10004e0c <y64+0x44>
10004e0c:	46c0      	nop			; (mov r8, r8)
10004e0e:	2300      	movs	r3, #0
10004e10:	042c      	lsls	r4, r5, #16
10004e12:	0c2d      	lsrs	r5, r5, #16
10004e14:	6f7a      	ldr	r2, [r7, #116]	; 0x74
10004e16:	6f38      	ldr	r0, [r7, #112]	; 0x70
10004e18:	1900      	adds	r0, r0, r4
10004e1a:	4169      	adcs	r1, r5
10004e1c:	bcb0      	pop	{r4, r5, r7}
10004e1e:	4770      	bx	lr
10004e20:	d0000000 	.word	0xd0000000

10004e24 <y64_x32>:
10004e24:	b5f0      	push	{r4, r5, r6, r7, lr}
10004e26:	4694      	mov	ip, r2
10004e28:	2500      	movs	r5, #0
10004e2a:	0e14      	lsrs	r4, r2, #24
10004e2c:	d101      	bne.n	10004e32 <y64_x32+0xe>
10004e2e:	0212      	lsls	r2, r2, #8
10004e30:	3508      	adds	r5, #8
10004e32:	0f14      	lsrs	r4, r2, #28
10004e34:	d101      	bne.n	10004e3a <y64_x32+0x16>
10004e36:	0112      	lsls	r2, r2, #4
10004e38:	3504      	adds	r5, #4
10004e3a:	0f94      	lsrs	r4, r2, #30
10004e3c:	d101      	bne.n	10004e42 <y64_x32+0x1e>
10004e3e:	0092      	lsls	r2, r2, #2
10004e40:	3502      	adds	r5, #2
10004e42:	0fd4      	lsrs	r4, r2, #31
10004e44:	d101      	bne.n	10004e4a <y64_x32+0x26>
10004e46:	0052      	lsls	r2, r2, #1
10004e48:	3501      	adds	r5, #1
10004e4a:	0bd4      	lsrs	r4, r2, #15
10004e4c:	3401      	adds	r4, #1
10004e4e:	4f25      	ldr	r7, [pc, #148]	; (10004ee4 <y64_x32+0xc0>)
10004e50:	667c      	str	r4, [r7, #100]	; 0x64
10004e52:	4c25      	ldr	r4, [pc, #148]	; (10004ee8 <y64_x32+0xc4>)
10004e54:	663c      	str	r4, [r7, #96]	; 0x60
10004e56:	0c0e      	lsrs	r6, r1, #16
10004e58:	b293      	uxth	r3, r2
10004e5a:	e7ff      	b.n	10004e5c <y64_x32+0x38>
10004e5c:	e7ff      	b.n	10004e5e <y64_x32+0x3a>
10004e5e:	e7ff      	b.n	10004e60 <y64_x32+0x3c>
10004e60:	6f3c      	ldr	r4, [r7, #112]	; 0x70
10004e62:	4366      	muls	r6, r4
10004e64:	0c36      	lsrs	r6, r6, #16
10004e66:	0377      	lsls	r7, r6, #13
10004e68:	46be      	mov	lr, r7
10004e6a:	4373      	muls	r3, r6
10004e6c:	0bdf      	lsrs	r7, r3, #15
10004e6e:	045b      	lsls	r3, r3, #17
10004e70:	1ac0      	subs	r0, r0, r3
10004e72:	41b9      	sbcs	r1, r7
10004e74:	0c13      	lsrs	r3, r2, #16
10004e76:	4373      	muls	r3, r6
10004e78:	18db      	adds	r3, r3, r3
10004e7a:	1ac9      	subs	r1, r1, r3
10004e7c:	08ce      	lsrs	r6, r1, #3
10004e7e:	4366      	muls	r6, r4
10004e80:	0c36      	lsrs	r6, r6, #16
10004e82:	44b6      	add	lr, r6
10004e84:	b293      	uxth	r3, r2
10004e86:	4373      	muls	r3, r6
10004e88:	0f1f      	lsrs	r7, r3, #28
10004e8a:	011b      	lsls	r3, r3, #4
10004e8c:	1ac0      	subs	r0, r0, r3
10004e8e:	41b9      	sbcs	r1, r7
10004e90:	0c13      	lsrs	r3, r2, #16
10004e92:	4373      	muls	r3, r6
10004e94:	0b1f      	lsrs	r7, r3, #12
10004e96:	051b      	lsls	r3, r3, #20
10004e98:	1ac0      	subs	r0, r0, r3
10004e9a:	41b9      	sbcs	r1, r7
10004e9c:	0d86      	lsrs	r6, r0, #22
10004e9e:	028f      	lsls	r7, r1, #10
10004ea0:	433e      	orrs	r6, r7
10004ea2:	4366      	muls	r6, r4
10004ea4:	0c36      	lsrs	r6, r6, #16
10004ea6:	2d09      	cmp	r5, #9
10004ea8:	db24      	blt.n	10004ef4 <last0>
10004eaa:	0a52      	lsrs	r2, r2, #9
10004eac:	4372      	muls	r2, r6
10004eae:	1a80      	subs	r0, r0, r2
10004eb0:	0377      	lsls	r7, r6, #13
10004eb2:	0a46      	lsrs	r6, r0, #9
10004eb4:	4366      	muls	r6, r4
10004eb6:	0c36      	lsrs	r6, r6, #16
10004eb8:	2316      	movs	r3, #22
10004eba:	1b5b      	subs	r3, r3, r5
10004ebc:	40de      	lsrs	r6, r3
10004ebe:	40df      	lsrs	r7, r3
10004ec0:	19bf      	adds	r7, r7, r6
10004ec2:	4664      	mov	r4, ip
10004ec4:	4366      	muls	r6, r4
10004ec6:	1b82      	subs	r2, r0, r6
10004ec8:	4670      	mov	r0, lr
10004eca:	3504      	adds	r5, #4
10004ecc:	3306      	adds	r3, #6
10004ece:	0001      	movs	r1, r0
10004ed0:	40d9      	lsrs	r1, r3
10004ed2:	40a8      	lsls	r0, r5
10004ed4:	19c0      	adds	r0, r0, r7
10004ed6:	d300      	bcc.n	10004eda <y64_x32+0xb6>
10004ed8:	3101      	adds	r1, #1
10004eda:	42a2      	cmp	r2, r4
10004edc:	d206      	bcs.n	10004eec <y64_x32+0xc8>
10004ede:	2300      	movs	r3, #0
10004ee0:	bdf0      	pop	{r4, r5, r6, r7, pc}
10004ee2:	0000      	.short	0x0000
10004ee4:	d0000000 	.word	0xd0000000
10004ee8:	ffffffff 	.word	0xffffffff
10004eec:	1b12      	subs	r2, r2, r4
10004eee:	3001      	adds	r0, #1
10004ef0:	d3f3      	bcc.n	10004eda <y64_x32+0xb6>
10004ef2:	e7f1      	b.n	10004ed8 <y64_x32+0xb4>

10004ef4 <last0>:
10004ef4:	2709      	movs	r7, #9
10004ef6:	1b7f      	subs	r7, r7, r5
10004ef8:	40fe      	lsrs	r6, r7
10004efa:	4664      	mov	r4, ip
10004efc:	b2a2      	uxth	r2, r4
10004efe:	4372      	muls	r2, r6
10004f00:	1a80      	subs	r0, r0, r2
10004f02:	d200      	bcs.n	10004f06 <last0+0x12>
10004f04:	3901      	subs	r1, #1
10004f06:	0c22      	lsrs	r2, r4, #16
10004f08:	4372      	muls	r2, r6
10004f0a:	0c13      	lsrs	r3, r2, #16
10004f0c:	0412      	lsls	r2, r2, #16
10004f0e:	1a82      	subs	r2, r0, r2
10004f10:	4199      	sbcs	r1, r3
10004f12:	000b      	movs	r3, r1
10004f14:	4670      	mov	r0, lr
10004f16:	3504      	adds	r5, #4
10004f18:	3713      	adds	r7, #19
10004f1a:	0001      	movs	r1, r0
10004f1c:	40f9      	lsrs	r1, r7
10004f1e:	40a8      	lsls	r0, r5
10004f20:	1980      	adds	r0, r0, r6
10004f22:	d300      	bcc.n	10004f26 <last0+0x32>
10004f24:	3101      	adds	r1, #1
10004f26:	2b00      	cmp	r3, #0
10004f28:	d102      	bne.n	10004f30 <last0+0x3c>
10004f2a:	42a2      	cmp	r2, r4
10004f2c:	d20a      	bcs.n	10004f44 <last0+0x50>
10004f2e:	bdf0      	pop	{r4, r5, r6, r7, pc}
10004f30:	3001      	adds	r0, #1
10004f32:	d300      	bcc.n	10004f36 <last0+0x42>
10004f34:	3101      	adds	r1, #1
10004f36:	1b12      	subs	r2, r2, r4
10004f38:	d2fa      	bcs.n	10004f30 <last0+0x3c>
10004f3a:	3b01      	subs	r3, #1
10004f3c:	d1f8      	bne.n	10004f30 <last0+0x3c>
10004f3e:	42a2      	cmp	r2, r4
10004f40:	d200      	bcs.n	10004f44 <last0+0x50>
10004f42:	bdf0      	pop	{r4, r5, r6, r7, pc}
10004f44:	3001      	adds	r0, #1
10004f46:	d300      	bcc.n	10004f4a <last0+0x56>
10004f48:	3101      	adds	r1, #1
10004f4a:	1b12      	subs	r2, r2, r4
10004f4c:	e7f7      	b.n	10004f3e <last0+0x4a>

10004f4e <y64_x48>:
10004f4e:	b5f0      	push	{r4, r5, r6, r7, lr}
10004f50:	0c1c      	lsrs	r4, r3, #16
10004f52:	d000      	beq.n	10004f56 <y64_x48+0x8>
10004f54:	e080      	b.n	10005058 <y64_x64>
10004f56:	b40c      	push	{r2, r3}
10004f58:	2500      	movs	r5, #0
10004f5a:	0a1c      	lsrs	r4, r3, #8
10004f5c:	d104      	bne.n	10004f68 <y64_x48+0x1a>
10004f5e:	021b      	lsls	r3, r3, #8
10004f60:	0e16      	lsrs	r6, r2, #24
10004f62:	4333      	orrs	r3, r6
10004f64:	0212      	lsls	r2, r2, #8
10004f66:	3508      	adds	r5, #8
10004f68:	0b1c      	lsrs	r4, r3, #12
10004f6a:	d104      	bne.n	10004f76 <y64_x48+0x28>
10004f6c:	011b      	lsls	r3, r3, #4
10004f6e:	0f16      	lsrs	r6, r2, #28
10004f70:	4333      	orrs	r3, r6
10004f72:	0112      	lsls	r2, r2, #4
10004f74:	3504      	adds	r5, #4
10004f76:	0b9c      	lsrs	r4, r3, #14
10004f78:	d104      	bne.n	10004f84 <y64_x48+0x36>
10004f7a:	009b      	lsls	r3, r3, #2
10004f7c:	0f96      	lsrs	r6, r2, #30
10004f7e:	4333      	orrs	r3, r6
10004f80:	0092      	lsls	r2, r2, #2
10004f82:	3502      	adds	r5, #2
10004f84:	0bdc      	lsrs	r4, r3, #15
10004f86:	d102      	bne.n	10004f8e <y64_x48+0x40>
10004f88:	1892      	adds	r2, r2, r2
10004f8a:	415b      	adcs	r3, r3
10004f8c:	3501      	adds	r5, #1
10004f8e:	001c      	movs	r4, r3
10004f90:	1897      	adds	r7, r2, r2
10004f92:	4164      	adcs	r4, r4
10004f94:	3401      	adds	r4, #1
10004f96:	4f46      	ldr	r7, [pc, #280]	; (100050b0 <y64_x64+0x58>)
10004f98:	667c      	str	r4, [r7, #100]	; 0x64
10004f9a:	4c46      	ldr	r4, [pc, #280]	; (100050b4 <y64_x64+0x5c>)
10004f9c:	663c      	str	r4, [r7, #96]	; 0x60
10004f9e:	0c0e      	lsrs	r6, r1, #16
10004fa0:	e7ff      	b.n	10004fa2 <y64_x48+0x54>
10004fa2:	e7ff      	b.n	10004fa4 <y64_x48+0x56>
10004fa4:	e7ff      	b.n	10004fa6 <y64_x48+0x58>
10004fa6:	46c0      	nop			; (mov r8, r8)
10004fa8:	6f3c      	ldr	r4, [r7, #112]	; 0x70
10004faa:	4366      	muls	r6, r4
10004fac:	0c36      	lsrs	r6, r6, #16
10004fae:	0377      	lsls	r7, r6, #13
10004fb0:	46be      	mov	lr, r7
10004fb2:	b297      	uxth	r7, r2
10004fb4:	4377      	muls	r7, r6
10004fb6:	1bc0      	subs	r0, r0, r7
10004fb8:	d200      	bcs.n	10004fbc <y64_x48+0x6e>
10004fba:	3901      	subs	r1, #1
10004fbc:	1bc0      	subs	r0, r0, r7
10004fbe:	d200      	bcs.n	10004fc2 <y64_x48+0x74>
10004fc0:	3901      	subs	r1, #1
10004fc2:	b29f      	uxth	r7, r3
10004fc4:	4377      	muls	r7, r6
10004fc6:	1bc9      	subs	r1, r1, r7
10004fc8:	1bc9      	subs	r1, r1, r7
10004fca:	0c17      	lsrs	r7, r2, #16
10004fcc:	4377      	muls	r7, r6
10004fce:	047e      	lsls	r6, r7, #17
10004fd0:	0bff      	lsrs	r7, r7, #15
10004fd2:	1b80      	subs	r0, r0, r6
10004fd4:	41b9      	sbcs	r1, r7
10004fd6:	08ce      	lsrs	r6, r1, #3
10004fd8:	4366      	muls	r6, r4
10004fda:	0c36      	lsrs	r6, r6, #16
10004fdc:	2d0c      	cmp	r5, #12
10004fde:	db33      	blt.n	10005048 <last1>
10004fe0:	44b6      	add	lr, r6
10004fe2:	0b12      	lsrs	r2, r2, #12
10004fe4:	051f      	lsls	r7, r3, #20
10004fe6:	433a      	orrs	r2, r7
10004fe8:	0b1b      	lsrs	r3, r3, #12
10004fea:	b297      	uxth	r7, r2
10004fec:	4377      	muls	r7, r6
10004fee:	1bc0      	subs	r0, r0, r7
10004ff0:	d200      	bcs.n	10004ff4 <y64_x48+0xa6>
10004ff2:	3901      	subs	r1, #1
10004ff4:	b29f      	uxth	r7, r3
10004ff6:	4377      	muls	r7, r6
10004ff8:	1bc9      	subs	r1, r1, r7
10004ffa:	0c17      	lsrs	r7, r2, #16
10004ffc:	4377      	muls	r7, r6
10004ffe:	043e      	lsls	r6, r7, #16
10005000:	0c3f      	lsrs	r7, r7, #16
10005002:	1b80      	subs	r0, r0, r6
10005004:	41b9      	sbcs	r1, r7
10005006:	0d86      	lsrs	r6, r0, #22
10005008:	028f      	lsls	r7, r1, #10
1000500a:	433e      	orrs	r6, r7
1000500c:	4366      	muls	r6, r4
1000500e:	2729      	movs	r7, #41	; 0x29
10005010:	1b7f      	subs	r7, r7, r5
10005012:	40fe      	lsrs	r6, r7
10005014:	3d0c      	subs	r5, #12
10005016:	4677      	mov	r7, lr
10005018:	40af      	lsls	r7, r5
1000501a:	19bf      	adds	r7, r7, r6
1000501c:	bc30      	pop	{r4, r5}
1000501e:	b2a2      	uxth	r2, r4
10005020:	b2ab      	uxth	r3, r5
10005022:	4372      	muls	r2, r6
10005024:	4373      	muls	r3, r6
10005026:	1a80      	subs	r0, r0, r2
10005028:	4199      	sbcs	r1, r3
1000502a:	0c22      	lsrs	r2, r4, #16
1000502c:	4372      	muls	r2, r6
1000502e:	0c13      	lsrs	r3, r2, #16
10005030:	0412      	lsls	r2, r2, #16
10005032:	1a80      	subs	r0, r0, r2
10005034:	4199      	sbcs	r1, r3
10005036:	0002      	movs	r2, r0
10005038:	000b      	movs	r3, r1
1000503a:	3701      	adds	r7, #1
1000503c:	1b00      	subs	r0, r0, r4
1000503e:	41a9      	sbcs	r1, r5
10005040:	d2f9      	bcs.n	10005036 <y64_x48+0xe8>
10005042:	1e78      	subs	r0, r7, #1
10005044:	2100      	movs	r1, #0
10005046:	bdf0      	pop	{r4, r5, r6, r7, pc}

10005048 <last1>:
10005048:	270c      	movs	r7, #12
1000504a:	1b7f      	subs	r7, r7, r5
1000504c:	40fe      	lsrs	r6, r7
1000504e:	4677      	mov	r7, lr
10005050:	0b7f      	lsrs	r7, r7, #13
10005052:	40af      	lsls	r7, r5
10005054:	19ff      	adds	r7, r7, r7
10005056:	e7e0      	b.n	1000501a <y64_x48+0xcc>

10005058 <y64_x64>:
10005058:	2400      	movs	r4, #0
1000505a:	1c5d      	adds	r5, r3, #1
1000505c:	d007      	beq.n	1000506e <y64_x64+0x16>
1000505e:	4f14      	ldr	r7, [pc, #80]	; (100050b0 <y64_x64+0x58>)
10005060:	667d      	str	r5, [r7, #100]	; 0x64
10005062:	6639      	str	r1, [r7, #96]	; 0x60
10005064:	e7ff      	b.n	10005066 <y64_x64+0xe>
10005066:	e7ff      	b.n	10005068 <y64_x64+0x10>
10005068:	e7ff      	b.n	1000506a <y64_x64+0x12>
1000506a:	e7ff      	b.n	1000506c <y64_x64+0x14>
1000506c:	6f3c      	ldr	r4, [r7, #112]	; 0x70
1000506e:	b295      	uxth	r5, r2
10005070:	b29e      	uxth	r6, r3
10005072:	4365      	muls	r5, r4
10005074:	4366      	muls	r6, r4
10005076:	1b40      	subs	r0, r0, r5
10005078:	41b1      	sbcs	r1, r6
1000507a:	0c15      	lsrs	r5, r2, #16
1000507c:	0c1e      	lsrs	r6, r3, #16
1000507e:	4365      	muls	r5, r4
10005080:	4366      	muls	r6, r4
10005082:	0436      	lsls	r6, r6, #16
10005084:	0c2f      	lsrs	r7, r5, #16
10005086:	433e      	orrs	r6, r7
10005088:	042d      	lsls	r5, r5, #16
1000508a:	1b40      	subs	r0, r0, r5
1000508c:	41b1      	sbcs	r1, r6
1000508e:	4299      	cmp	r1, r3
10005090:	d204      	bcs.n	1000509c <y64_x64+0x44>
10005092:	0002      	movs	r2, r0
10005094:	000b      	movs	r3, r1
10005096:	0020      	movs	r0, r4
10005098:	2100      	movs	r1, #0
1000509a:	bdf0      	pop	{r4, r5, r6, r7, pc}
1000509c:	d101      	bne.n	100050a2 <y64_x64+0x4a>
1000509e:	4290      	cmp	r0, r2
100050a0:	d3f7      	bcc.n	10005092 <y64_x64+0x3a>
100050a2:	1a80      	subs	r0, r0, r2
100050a4:	4199      	sbcs	r1, r3
100050a6:	3401      	adds	r4, #1
100050a8:	4299      	cmp	r1, r3
100050aa:	d3f2      	bcc.n	10005092 <y64_x64+0x3a>
100050ac:	e7f6      	b.n	1000509c <y64_x64+0x44>
100050ae:	0000      	.short	0x0000
100050b0:	d0000000 	.word	0xd0000000
100050b4:	ffffffff 	.word	0xffffffff

100050b8 <__wrap___aeabi_drsub>:
100050b8:	4048      	eors	r0, r1
100050ba:	4041      	eors	r1, r0
100050bc:	4048      	eors	r0, r1

100050be <__wrap___aeabi_dsub>:
100050be:	b418      	push	{r3, r4}
100050c0:	4b1b      	ldr	r3, [pc, #108]	; (10005130 <__wrap___aeabi_dmul+0x12>)
100050c2:	685b      	ldr	r3, [r3, #4]
100050c4:	46fc      	mov	ip, pc
100050c6:	9301      	str	r3, [sp, #4]
100050c8:	bd08      	pop	{r3, pc}
100050ca:	df04      	.short	0xdf04
100050cc:	100053ab 	.word	0x100053ab

100050d0 <__wrap___aeabi_dadd>:
100050d0:	b418      	push	{r3, r4}
100050d2:	4b17      	ldr	r3, [pc, #92]	; (10005130 <__wrap___aeabi_dmul+0x12>)
100050d4:	681b      	ldr	r3, [r3, #0]
100050d6:	46fc      	mov	ip, pc
100050d8:	9301      	str	r3, [sp, #4]
100050da:	bd08      	pop	{r3, pc}
100050dc:	53b5df00 	.word	0x53b5df00
100050e0:	1000      	.short	0x1000

100050e2 <__wrap___aeabi_ddiv>:
100050e2:	4694      	mov	ip, r2
100050e4:	4a13      	ldr	r2, [pc, #76]	; (10005134 <__wrap___aeabi_dmul+0x16>)
100050e6:	6f92      	ldr	r2, [r2, #120]	; 0x78
100050e8:	0892      	lsrs	r2, r2, #2
100050ea:	d209      	bcs.n	10005100 <ddiv_save_state>
100050ec:	4662      	mov	r2, ip

100050ee <ddiv_shim_call>:
100050ee:	b418      	push	{r3, r4}
100050f0:	4b0f      	ldr	r3, [pc, #60]	; (10005130 <__wrap___aeabi_dmul+0x12>)
100050f2:	68db      	ldr	r3, [r3, #12]
100050f4:	46fc      	mov	ip, pc
100050f6:	9301      	str	r3, [sp, #4]
100050f8:	bd08      	pop	{r3, pc}
100050fa:	df0c      	.short	0xdf0c
100050fc:	1000566d 	.word	0x1000566d

10005100 <ddiv_save_state>:
10005100:	4a0c      	ldr	r2, [pc, #48]	; (10005134 <__wrap___aeabi_dmul+0x16>)
10005102:	b5f0      	push	{r4, r5, r6, r7, lr}
10005104:	6e14      	ldr	r4, [r2, #96]	; 0x60
10005106:	6e55      	ldr	r5, [r2, #100]	; 0x64
10005108:	6f57      	ldr	r7, [r2, #116]	; 0x74
1000510a:	6f16      	ldr	r6, [r2, #112]	; 0x70
1000510c:	4662      	mov	r2, ip
1000510e:	f7ff ffee 	bl	100050ee <ddiv_shim_call>
10005112:	4a08      	ldr	r2, [pc, #32]	; (10005134 <__wrap___aeabi_dmul+0x16>)
10005114:	6614      	str	r4, [r2, #96]	; 0x60
10005116:	6655      	str	r5, [r2, #100]	; 0x64
10005118:	6757      	str	r7, [r2, #116]	; 0x74
1000511a:	6716      	str	r6, [r2, #112]	; 0x70
1000511c:	bdf0      	pop	{r4, r5, r6, r7, pc}

1000511e <__wrap___aeabi_dmul>:
1000511e:	b418      	push	{r3, r4}
10005120:	4b03      	ldr	r3, [pc, #12]	; (10005130 <__wrap___aeabi_dmul+0x12>)
10005122:	689b      	ldr	r3, [r3, #8]
10005124:	46fc      	mov	ip, pc
10005126:	9301      	str	r3, [sp, #4]
10005128:	bd08      	pop	{r3, pc}
1000512a:	df08      	.short	0xdf08
1000512c:	10005511 	.word	0x10005511
10005130:	20002340 	.word	0x20002340
10005134:	d0000000 	.word	0xd0000000

10005138 <__wrap___aeabi_cdrcmple>:
10005138:	b5ff      	push	{r0, r1, r2, r3, r4, r5, r6, r7, lr}
1000513a:	4050      	eors	r0, r2
1000513c:	4042      	eors	r2, r0
1000513e:	4050      	eors	r0, r2
10005140:	4059      	eors	r1, r3
10005142:	404b      	eors	r3, r1
10005144:	4059      	eors	r1, r3
10005146:	e000      	b.n	1000514a <__aeabi_dfcmple_guts>

10005148 <__wrap___aeabi_cdcmpeq>:
10005148:	b5ff      	push	{r0, r1, r2, r3, r4, r5, r6, r7, lr}

1000514a <__aeabi_dfcmple_guts>:
1000514a:	4f15      	ldr	r7, [pc, #84]	; (100051a0 <__aeabi_dfcmple_guts+0x56>)
1000514c:	004c      	lsls	r4, r1, #1
1000514e:	0d64      	lsrs	r4, r4, #21
10005150:	d003      	beq.n	1000515a <__aeabi_dfcmple_guts+0x10>
10005152:	42bc      	cmp	r4, r7
10005154:	d104      	bne.n	10005160 <__aeabi_dfcmple_guts+0x16>
10005156:	030c      	lsls	r4, r1, #12
10005158:	d814      	bhi.n	10005184 <__aeabi_dfcmple_guts+0x3a>
1000515a:	2000      	movs	r0, #0
1000515c:	0d09      	lsrs	r1, r1, #20
1000515e:	0509      	lsls	r1, r1, #20
10005160:	005c      	lsls	r4, r3, #1
10005162:	0d64      	lsrs	r4, r4, #21
10005164:	d003      	beq.n	1000516e <__aeabi_dfcmple_guts+0x24>
10005166:	42bc      	cmp	r4, r7
10005168:	d104      	bne.n	10005174 <__aeabi_dfcmple_guts+0x2a>
1000516a:	031c      	lsls	r4, r3, #12
1000516c:	d80a      	bhi.n	10005184 <__aeabi_dfcmple_guts+0x3a>
1000516e:	2200      	movs	r2, #0
10005170:	0d1b      	lsrs	r3, r3, #20
10005172:	051b      	lsls	r3, r3, #20
10005174:	2601      	movs	r6, #1
10005176:	404b      	eors	r3, r1
10005178:	d409      	bmi.n	1000518e <__aeabi_dfcmple_guts+0x44>
1000517a:	404b      	eors	r3, r1
1000517c:	d503      	bpl.n	10005186 <__aeabi_dfcmple_guts+0x3c>
1000517e:	428b      	cmp	r3, r1
10005180:	d100      	bne.n	10005184 <__aeabi_dfcmple_guts+0x3a>
10005182:	4282      	cmp	r2, r0
10005184:	bdff      	pop	{r0, r1, r2, r3, r4, r5, r6, r7, pc}
10005186:	4299      	cmp	r1, r3
10005188:	d1fc      	bne.n	10005184 <__aeabi_dfcmple_guts+0x3a>
1000518a:	4290      	cmp	r0, r2
1000518c:	bdff      	pop	{r0, r1, r2, r3, r4, r5, r6, r7, pc}
1000518e:	430b      	orrs	r3, r1
10005190:	18db      	adds	r3, r3, r3
10005192:	4303      	orrs	r3, r0
10005194:	4313      	orrs	r3, r2
10005196:	d0f5      	beq.n	10005184 <__aeabi_dfcmple_guts+0x3a>
10005198:	43c9      	mvns	r1, r1
1000519a:	1849      	adds	r1, r1, r1
1000519c:	bdff      	pop	{r0, r1, r2, r3, r4, r5, r6, r7, pc}
1000519e:	0000      	.short	0x0000
100051a0:	000007ff 	.word	0x000007ff

100051a4 <__wrap___aeabi_dcmplt>:
100051a4:	b500      	push	{lr}
100051a6:	f7ff ffcf 	bl	10005148 <__wrap___aeabi_cdcmpeq>
100051aa:	4180      	sbcs	r0, r0
100051ac:	bd00      	pop	{pc}
100051ae:	46c0      	nop			; (mov r8, r8)

100051b0 <__wrap___aeabi_dcmple>:
100051b0:	b500      	push	{lr}
100051b2:	f7ff ffc9 	bl	10005148 <__wrap___aeabi_cdcmpeq>
100051b6:	d901      	bls.n	100051bc <__wrap___aeabi_dcmple+0xc>
100051b8:	2000      	movs	r0, #0
100051ba:	bd00      	pop	{pc}
100051bc:	2001      	movs	r0, #1
100051be:	bd00      	pop	{pc}

100051c0 <__wrap___aeabi_dcmpge>:
100051c0:	b500      	push	{lr}
100051c2:	f7ff ffb9 	bl	10005138 <__wrap___aeabi_cdrcmple>
100051c6:	d901      	bls.n	100051cc <__wrap___aeabi_dcmpge+0xc>
100051c8:	2000      	movs	r0, #0
100051ca:	bd00      	pop	{pc}
100051cc:	2001      	movs	r0, #1
100051ce:	bd00      	pop	{pc}

100051d0 <__wrap___aeabi_dcmpgt>:
100051d0:	b500      	push	{lr}
100051d2:	f7ff ffb1 	bl	10005138 <__wrap___aeabi_cdrcmple>
100051d6:	4180      	sbcs	r0, r0
100051d8:	bd00      	pop	{pc}

100051da <__wrap___aeabi_dcmpun>:
100051da:	2001      	movs	r0, #1
100051dc:	0540      	lsls	r0, r0, #21
100051de:	004a      	lsls	r2, r1, #1
100051e0:	1812      	adds	r2, r2, r0
100051e2:	d804      	bhi.n	100051ee <__wrap___aeabi_dcmpun+0x14>
100051e4:	005a      	lsls	r2, r3, #1
100051e6:	1812      	adds	r2, r2, r0
100051e8:	d801      	bhi.n	100051ee <__wrap___aeabi_dcmpun+0x14>
100051ea:	2000      	movs	r0, #0
100051ec:	4770      	bx	lr
100051ee:	2001      	movs	r0, #1
100051f0:	4770      	bx	lr
100051f2:	2000      	movs	r0, #0
100051f4:	4770      	bx	lr
	...

100051f8 <__wrap___aeabi_ui2d>:
100051f8:	2100      	movs	r1, #0
100051fa:	2800      	cmp	r0, #0
100051fc:	d105      	bne.n	1000520a <__wrap___aeabi_i2d+0xa>
100051fe:	4770      	bx	lr

10005200 <__wrap___aeabi_i2d>:
10005200:	17c1      	asrs	r1, r0, #31
10005202:	4048      	eors	r0, r1
10005204:	1a40      	subs	r0, r0, r1
10005206:	d0fa      	beq.n	100051fe <__wrap___aeabi_ui2d+0x6>
10005208:	07c9      	lsls	r1, r1, #31
1000520a:	b513      	push	{r0, r1, r4, lr}
1000520c:	4b06      	ldr	r3, [pc, #24]	; (10005228 <__wrap___aeabi_i2d+0x28>)
1000520e:	681b      	ldr	r3, [r3, #0]
10005210:	4798      	blx	r3
10005212:	bc0c      	pop	{r2, r3}
10005214:	1c44      	adds	r4, r0, #1
10005216:	40a2      	lsls	r2, r4
10005218:	0510      	lsls	r0, r2, #20
1000521a:	0b12      	lsrs	r2, r2, #12
1000521c:	4903      	ldr	r1, [pc, #12]	; (1000522c <__wrap___aeabi_i2d+0x2c>)
1000521e:	1b09      	subs	r1, r1, r4
10005220:	0509      	lsls	r1, r1, #20
10005222:	4319      	orrs	r1, r3
10005224:	4311      	orrs	r1, r2
10005226:	bd10      	pop	{r4, pc}
10005228:	20002450 	.word	0x20002450
1000522c:	0000041f 	.word	0x0000041f

10005230 <__wrap___aeabi_d2iz>:
10005230:	b510      	push	{r4, lr}
10005232:	004c      	lsls	r4, r1, #1
10005234:	0d62      	lsrs	r2, r4, #21
10005236:	2380      	movs	r3, #128	; 0x80
10005238:	18d2      	adds	r2, r2, r3
1000523a:	00db      	lsls	r3, r3, #3
1000523c:	1ad2      	subs	r2, r2, r3
1000523e:	055b      	lsls	r3, r3, #21
10005240:	2a7e      	cmp	r2, #126	; 0x7e
10005242:	dd10      	ble.n	10005266 <__wrap___aeabi_d2iz+0x36>
10005244:	3a9e      	subs	r2, #158	; 0x9e
10005246:	da13      	bge.n	10005270 <__wrap___aeabi_d2iz+0x40>
10005248:	17cc      	asrs	r4, r1, #31
1000524a:	0309      	lsls	r1, r1, #12
1000524c:	0849      	lsrs	r1, r1, #1
1000524e:	4319      	orrs	r1, r3
10005250:	4252      	negs	r2, r2
10005252:	40d1      	lsrs	r1, r2
10005254:	0064      	lsls	r4, r4, #1
10005256:	3401      	adds	r4, #1
10005258:	3215      	adds	r2, #21
1000525a:	2a20      	cmp	r2, #32
1000525c:	da05      	bge.n	1000526a <__wrap___aeabi_d2iz+0x3a>
1000525e:	40d0      	lsrs	r0, r2
10005260:	4308      	orrs	r0, r1
10005262:	4360      	muls	r0, r4
10005264:	bd10      	pop	{r4, pc}
10005266:	2000      	movs	r0, #0
10005268:	bd10      	pop	{r4, pc}
1000526a:	4608      	mov	r0, r1
1000526c:	4360      	muls	r0, r4
1000526e:	bd10      	pop	{r4, pc}
10005270:	0fc8      	lsrs	r0, r1, #31
10005272:	18c0      	adds	r0, r0, r3
10005274:	3801      	subs	r0, #1
10005276:	bd10      	pop	{r4, pc}

10005278 <__wrap___aeabi_d2uiz>:
10005278:	b418      	push	{r3, r4}
1000527a:	4b04      	ldr	r3, [pc, #16]	; (1000528c <__wrap___aeabi_d2uiz+0x14>)
1000527c:	6a5b      	ldr	r3, [r3, #36]	; 0x24
1000527e:	46fc      	mov	ip, pc
10005280:	9301      	str	r3, [sp, #4]
10005282:	bd08      	pop	{r3, pc}
10005284:	581ddf24 	.word	0x581ddf24
10005288:	00001000 	.word	0x00001000
1000528c:	20002340 	.word	0x20002340

10005290 <__wrap___aeabi_d2f>:
10005290:	b418      	push	{r3, r4}
10005292:	4b04      	ldr	r3, [pc, #16]	; (100052a4 <__wrap___aeabi_d2f+0x14>)
10005294:	6fdb      	ldr	r3, [r3, #124]	; 0x7c
10005296:	46fc      	mov	ip, pc
10005298:	9301      	str	r3, [sp, #4]
1000529a:	bd08      	pop	{r3, pc}
1000529c:	589ddf7c 	.word	0x589ddf7c
100052a0:	00001000 	.word	0x00001000
100052a4:	20002340 	.word	0x20002340

100052a8 <__aeabi_double_init>:
100052a8:	b570      	push	{r4, r5, r6, lr}
100052aa:	2313      	movs	r3, #19
100052ac:	781c      	ldrb	r4, [r3, #0]
100052ae:	2c01      	cmp	r4, #1
100052b0:	d014      	beq.n	100052dc <__aeabi_double_init+0x34>
100052b2:	2c01      	cmp	r4, #1
100052b4:	dc14      	bgt.n	100052e0 <__aeabi_double_init+0x38>
100052b6:	2c02      	cmp	r4, #2
100052b8:	dc02      	bgt.n	100052c0 <__aeabi_double_init+0x18>
100052ba:	4a1f      	ldr	r2, [pc, #124]	; (10005338 <__aeabi_double_init+0x90>)
100052bc:	4b1f      	ldr	r3, [pc, #124]	; (1000533c <__aeabi_double_init+0x94>)
100052be:	649a      	str	r2, [r3, #72]	; 0x48
100052c0:	481f      	ldr	r0, [pc, #124]	; (10005340 <__aeabi_double_init+0x98>)
100052c2:	f7ff fc6d 	bl	10004ba0 <rom_func_lookup>
100052c6:	4b1f      	ldr	r3, [pc, #124]	; (10005344 <__aeabi_double_init+0x9c>)
100052c8:	6018      	str	r0, [r3, #0]
100052ca:	bd70      	pop	{r4, r5, r6, pc}
100052cc:	0099      	lsls	r1, r3, #2
100052ce:	481a      	ldr	r0, [pc, #104]	; (10005338 <__aeabi_double_init+0x90>)
100052d0:	4a1a      	ldr	r2, [pc, #104]	; (1000533c <__aeabi_double_init+0x94>)
100052d2:	5088      	str	r0, [r1, r2]
100052d4:	3301      	adds	r3, #1
100052d6:	2b1f      	cmp	r3, #31
100052d8:	d9f8      	bls.n	100052cc <__aeabi_double_init+0x24>
100052da:	e7ea      	b.n	100052b2 <__aeabi_double_init+0xa>
100052dc:	2300      	movs	r3, #0
100052de:	e7fa      	b.n	100052d6 <__aeabi_double_init+0x2e>
100052e0:	4819      	ldr	r0, [pc, #100]	; (10005348 <__aeabi_double_init+0xa0>)
100052e2:	f7ff fc65 	bl	10004bb0 <rom_data_lookup>
100052e6:	0005      	movs	r5, r0
100052e8:	4818      	ldr	r0, [pc, #96]	; (1000534c <__aeabi_double_init+0xa4>)
100052ea:	f7ff fc61 	bl	10004bb0 <rom_data_lookup>
100052ee:	3802      	subs	r0, #2
100052f0:	7803      	ldrb	r3, [r0, #0]
100052f2:	009b      	lsls	r3, r3, #2
100052f4:	2b7f      	cmp	r3, #127	; 0x7f
100052f6:	dd19      	ble.n	1000532c <__aeabi_double_init+0x84>
100052f8:	2280      	movs	r2, #128	; 0x80
100052fa:	0029      	movs	r1, r5
100052fc:	480f      	ldr	r0, [pc, #60]	; (1000533c <__aeabi_double_init+0x94>)
100052fe:	f000 fd6b 	bl	10005dd8 <__wrap___aeabi_memcpy>
10005302:	2c02      	cmp	r4, #2
10005304:	d1d7      	bne.n	100052b6 <__aeabi_double_init+0xe>
10005306:	4b12      	ldr	r3, [pc, #72]	; (10005350 <__aeabi_double_init+0xa8>)
10005308:	881a      	ldrh	r2, [r3, #0]
1000530a:	23b5      	movs	r3, #181	; 0xb5
1000530c:	021b      	lsls	r3, r3, #8
1000530e:	429a      	cmp	r2, r3
10005310:	d109      	bne.n	10005326 <__aeabi_double_init+0x7e>
10005312:	4b10      	ldr	r3, [pc, #64]	; (10005354 <__aeabi_double_init+0xac>)
10005314:	881a      	ldrh	r2, [r3, #0]
10005316:	4b10      	ldr	r3, [pc, #64]	; (10005358 <__aeabi_double_init+0xb0>)
10005318:	429a      	cmp	r2, r3
1000531a:	d104      	bne.n	10005326 <__aeabi_double_init+0x7e>
1000531c:	4b0f      	ldr	r3, [pc, #60]	; (1000535c <__aeabi_double_init+0xb4>)
1000531e:	881a      	ldrh	r2, [r3, #0]
10005320:	4b0f      	ldr	r3, [pc, #60]	; (10005360 <__aeabi_double_init+0xb8>)
10005322:	429a      	cmp	r2, r3
10005324:	d0c7      	beq.n	100052b6 <__aeabi_double_init+0xe>
10005326:	2000      	movs	r0, #0
10005328:	f7fe fb7a 	bl	10003a20 <panic>
1000532c:	4b0d      	ldr	r3, [pc, #52]	; (10005364 <__aeabi_double_init+0xbc>)
1000532e:	4a0e      	ldr	r2, [pc, #56]	; (10005368 <__aeabi_double_init+0xc0>)
10005330:	2132      	movs	r1, #50	; 0x32
10005332:	480e      	ldr	r0, [pc, #56]	; (1000536c <__aeabi_double_init+0xc4>)
10005334:	f7fe fada 	bl	100038ec <__assert_func>
10005338:	10005371 	.word	0x10005371
1000533c:	20002340 	.word	0x20002340
10005340:	0000334c 	.word	0x0000334c
10005344:	20002450 	.word	0x20002450
10005348:	00004453 	.word	0x00004453
1000534c:	00004653 	.word	0x00004653
10005350:	00003854 	.word	0x00003854
10005354:	000038d8 	.word	0x000038d8
10005358:	00004649 	.word	0x00004649
1000535c:	0000389c 	.word	0x0000389c
10005360:	00004659 	.word	0x00004659
10005364:	1000a788 	.word	0x1000a788
10005368:	1000a840 	.word	0x1000a840
1000536c:	1000a7dc 	.word	0x1000a7dc

10005370 <double_table_shim_on_use_helper>:
10005370:	b507      	push	{r0, r1, r2, lr}
10005372:	4660      	mov	r0, ip
10005374:	2800      	cmp	r0, #0
10005376:	d100      	bne.n	1000537a <double_table_shim_on_use_helper+0xa>
10005378:	be00      	bkpt	0x0000
1000537a:	8801      	ldrh	r1, [r0, #0]
1000537c:	0a0a      	lsrs	r2, r1, #8
1000537e:	3002      	adds	r0, #2
10005380:	2adf      	cmp	r2, #223	; 0xdf
10005382:	d1fa      	bne.n	1000537a <double_table_shim_on_use_helper+0xa>
10005384:	b2c9      	uxtb	r1, r1
10005386:	0882      	lsrs	r2, r0, #2
10005388:	d304      	bcc.n	10005394 <double_table_shim_on_use_helper+0x24>
1000538a:	8802      	ldrh	r2, [r0, #0]
1000538c:	8840      	ldrh	r0, [r0, #2]
1000538e:	0400      	lsls	r0, r0, #16
10005390:	4310      	orrs	r0, r2
10005392:	e000      	b.n	10005396 <double_table_shim_on_use_helper+0x26>
10005394:	6800      	ldr	r0, [r0, #0]
10005396:	4a02      	ldr	r2, [pc, #8]	; (100053a0 <double_table_shim_on_use_helper+0x30>)
10005398:	5050      	str	r0, [r2, r1]
1000539a:	9003      	str	r0, [sp, #12]
1000539c:	bd07      	pop	{r0, r1, r2, pc}
1000539e:	0000      	.short	0x0000
100053a0:	20002340 	.word	0x20002340

100053a4 <drsub_shim>:
100053a4:	b40f      	push	{r0, r1, r2, r3}
100053a6:	bc03      	pop	{r0, r1}
100053a8:	bc0c      	pop	{r2, r3}

100053aa <dsub_shim>:
100053aa:	b5f0      	push	{r4, r5, r6, r7, lr}
100053ac:	2401      	movs	r4, #1
100053ae:	07e4      	lsls	r4, r4, #31
100053b0:	4063      	eors	r3, r4
100053b2:	e000      	b.n	100053b6 <da_entry>

100053b4 <dadd_shim>:
100053b4:	b5f0      	push	{r4, r5, r6, r7, lr}

100053b6 <da_entry>:
100053b6:	0d0c      	lsrs	r4, r1, #20
100053b8:	0fcf      	lsrs	r7, r1, #31
100053ba:	1e66      	subs	r6, r4, #1
100053bc:	0536      	lsls	r6, r6, #20
100053be:	1b89      	subs	r1, r1, r6
100053c0:	0564      	lsls	r4, r4, #21
100053c2:	d303      	bcc.n	100053cc <l8_1>
100053c4:	43c9      	mvns	r1, r1
100053c6:	4240      	negs	r0, r0
100053c8:	d300      	bcc.n	100053cc <l8_1>
100053ca:	3101      	adds	r1, #1

100053cc <l8_1>:
100053cc:	0d64      	lsrs	r4, r4, #21
100053ce:	d003      	beq.n	100053d8 <l8_2>
100053d0:	1c66      	adds	r6, r4, #1
100053d2:	0af6      	lsrs	r6, r6, #11
100053d4:	d007      	beq.n	100053e6 <l8_3>
100053d6:	1be4      	subs	r4, r4, r7

100053d8 <l8_2>:
100053d8:	2000      	movs	r0, #0
100053da:	007f      	lsls	r7, r7, #1
100053dc:	1c79      	adds	r1, r7, #1
100053de:	0789      	lsls	r1, r1, #30
100053e0:	1289      	asrs	r1, r1, #10
100053e2:	3c80      	subs	r4, #128	; 0x80
100053e4:	0324      	lsls	r4, r4, #12

100053e6 <l8_3>:
100053e6:	0d1d      	lsrs	r5, r3, #20
100053e8:	0fdf      	lsrs	r7, r3, #31
100053ea:	1e6e      	subs	r6, r5, #1
100053ec:	0536      	lsls	r6, r6, #20
100053ee:	1b9b      	subs	r3, r3, r6
100053f0:	056d      	lsls	r5, r5, #21
100053f2:	d303      	bcc.n	100053fc <l9_1>
100053f4:	43db      	mvns	r3, r3
100053f6:	4252      	negs	r2, r2
100053f8:	d300      	bcc.n	100053fc <l9_1>
100053fa:	3301      	adds	r3, #1

100053fc <l9_1>:
100053fc:	0d6d      	lsrs	r5, r5, #21
100053fe:	d003      	beq.n	10005408 <l9_2>
10005400:	1c6e      	adds	r6, r5, #1
10005402:	0af6      	lsrs	r6, r6, #11
10005404:	d007      	beq.n	10005416 <l9_3>
10005406:	1bed      	subs	r5, r5, r7

10005408 <l9_2>:
10005408:	2200      	movs	r2, #0
1000540a:	007f      	lsls	r7, r7, #1
1000540c:	1c7b      	adds	r3, r7, #1
1000540e:	079b      	lsls	r3, r3, #30
10005410:	129b      	asrs	r3, r3, #10
10005412:	3d80      	subs	r5, #128	; 0x80
10005414:	032d      	lsls	r5, r5, #12

10005416 <l9_3>:
10005416:	1b2f      	subs	r7, r5, r4
10005418:	1b66      	subs	r6, r4, r5
1000541a:	d458      	bmi.n	100054ce <da_ygtx>
1000541c:	46a4      	mov	ip, r4
1000541e:	2e20      	cmp	r6, #32
10005420:	da46      	bge.n	100054b0 <da_xrgty>
10005422:	3720      	adds	r7, #32
10005424:	0014      	movs	r4, r2
10005426:	40bc      	lsls	r4, r7

10005428 <da_xgty0>:
10005428:	001d      	movs	r5, r3
1000542a:	40bd      	lsls	r5, r7
1000542c:	40f2      	lsrs	r2, r6
1000542e:	4133      	asrs	r3, r6
10005430:	432a      	orrs	r2, r5

10005432 <da_add>:
10005432:	1880      	adds	r0, r0, r2
10005434:	4159      	adcs	r1, r3

10005436 <da_pack>:
10005436:	0fcb      	lsrs	r3, r1, #31
10005438:	d005      	beq.n	10005446 <da_pack+0x10>
1000543a:	43c9      	mvns	r1, r1
1000543c:	43c0      	mvns	r0, r0
1000543e:	2200      	movs	r2, #0
10005440:	4264      	negs	r4, r4
10005442:	4150      	adcs	r0, r2
10005444:	4151      	adcs	r1, r2
10005446:	4662      	mov	r2, ip
10005448:	0d4d      	lsrs	r5, r1, #21
1000544a:	d128      	bne.n	1000549e <da_0>
1000544c:	0d0d      	lsrs	r5, r1, #20
1000544e:	d107      	bne.n	10005460 <da_1>
10005450:	2800      	cmp	r0, #0
10005452:	d01f      	beq.n	10005494 <da_5>

10005454 <da_2>:
10005454:	1924      	adds	r4, r4, r4
10005456:	4140      	adcs	r0, r0
10005458:	4149      	adcs	r1, r1
1000545a:	3a01      	subs	r2, #1
1000545c:	0d0d      	lsrs	r5, r1, #20
1000545e:	d0f9      	beq.n	10005454 <da_2>

10005460 <da_1>:
10005460:	0064      	lsls	r4, r4, #1
10005462:	d306      	bcc.n	10005472 <da_3>

10005464 <da_4>:
10005464:	3001      	adds	r0, #1
10005466:	d300      	bcc.n	1000546a <da_4+0x6>
10005468:	3101      	adds	r1, #1
1000546a:	2c00      	cmp	r4, #0
1000546c:	d101      	bne.n	10005472 <da_3>
1000546e:	0840      	lsrs	r0, r0, #1
10005470:	0040      	lsls	r0, r0, #1

10005472 <da_3>:
10005472:	3a01      	subs	r2, #1
10005474:	d40b      	bmi.n	1000548e <da_6>
10005476:	1c94      	adds	r4, r2, #2
10005478:	0ae4      	lsrs	r4, r4, #11
1000547a:	d104      	bne.n	10005486 <da_7>
1000547c:	0512      	lsls	r2, r2, #20
1000547e:	4411      	add	r1, r2
10005480:	07db      	lsls	r3, r3, #31
10005482:	4419      	add	r1, r3
10005484:	bdf0      	pop	{r4, r5, r6, r7, pc}

10005486 <da_7>:
10005486:	07d9      	lsls	r1, r3, #31
10005488:	4b20      	ldr	r3, [pc, #128]	; (1000550c <da_xmgty+0x4>)
1000548a:	4319      	orrs	r1, r3
1000548c:	e000      	b.n	10005490 <da_6+0x2>

1000548e <da_6>:
1000548e:	07d9      	lsls	r1, r3, #31
10005490:	2000      	movs	r0, #0
10005492:	bdf0      	pop	{r4, r5, r6, r7, pc}

10005494 <da_5>:
10005494:	2900      	cmp	r1, #0
10005496:	d1dd      	bne.n	10005454 <da_2>
10005498:	2c00      	cmp	r4, #0
1000549a:	d1db      	bne.n	10005454 <da_2>
1000549c:	bdf0      	pop	{r4, r5, r6, r7, pc}

1000549e <da_0>:
1000549e:	3201      	adds	r2, #1
100054a0:	07c6      	lsls	r6, r0, #31
100054a2:	0840      	lsrs	r0, r0, #1
100054a4:	07cd      	lsls	r5, r1, #31
100054a6:	4328      	orrs	r0, r5
100054a8:	0849      	lsrs	r1, r1, #1
100054aa:	2e00      	cmp	r6, #0
100054ac:	d0e1      	beq.n	10005472 <da_3>
100054ae:	e7d9      	b.n	10005464 <da_4>

100054b0 <da_xrgty>:
100054b0:	2e3c      	cmp	r6, #60	; 0x3c
100054b2:	da29      	bge.n	10005508 <da_xmgty>
100054b4:	3e20      	subs	r6, #32
100054b6:	3740      	adds	r7, #64	; 0x40
100054b8:	0014      	movs	r4, r2
100054ba:	40bc      	lsls	r4, r7
100054bc:	d000      	beq.n	100054c0 <da_xrgty+0x10>
100054be:	2401      	movs	r4, #1
100054c0:	40f2      	lsrs	r2, r6
100054c2:	4314      	orrs	r4, r2
100054c4:	001a      	movs	r2, r3
100054c6:	40bb      	lsls	r3, r7
100054c8:	431c      	orrs	r4, r3
100054ca:	17d3      	asrs	r3, r2, #31
100054cc:	e7ac      	b.n	10005428 <da_xgty0>

100054ce <da_ygtx>:
100054ce:	46ac      	mov	ip, r5
100054d0:	2f20      	cmp	r7, #32
100054d2:	da08      	bge.n	100054e6 <da_yrgtx>
100054d4:	3620      	adds	r6, #32
100054d6:	0004      	movs	r4, r0
100054d8:	40b4      	lsls	r4, r6

100054da <da_ygtx0>:
100054da:	000d      	movs	r5, r1
100054dc:	40b5      	lsls	r5, r6
100054de:	40f8      	lsrs	r0, r7
100054e0:	4139      	asrs	r1, r7
100054e2:	4328      	orrs	r0, r5
100054e4:	e7a5      	b.n	10005432 <da_add>

100054e6 <da_yrgtx>:
100054e6:	2f3c      	cmp	r7, #60	; 0x3c
100054e8:	da0c      	bge.n	10005504 <da_ymgtx>
100054ea:	3f20      	subs	r7, #32
100054ec:	3640      	adds	r6, #64	; 0x40
100054ee:	0004      	movs	r4, r0
100054f0:	40b4      	lsls	r4, r6
100054f2:	d000      	beq.n	100054f6 <da_yrgtx+0x10>
100054f4:	2401      	movs	r4, #1
100054f6:	40f8      	lsrs	r0, r7
100054f8:	4304      	orrs	r4, r0
100054fa:	0008      	movs	r0, r1
100054fc:	40b1      	lsls	r1, r6
100054fe:	430c      	orrs	r4, r1
10005500:	17c1      	asrs	r1, r0, #31
10005502:	e7ea      	b.n	100054da <da_ygtx0>

10005504 <da_ymgtx>:
10005504:	0010      	movs	r0, r2
10005506:	0019      	movs	r1, r3

10005508 <da_xmgty>:
10005508:	2400      	movs	r4, #0
1000550a:	e794      	b.n	10005436 <da_pack>
1000550c:	7ff00000 	.word	0x7ff00000

10005510 <dmul_shim>:
10005510:	b5f0      	push	{r4, r5, r6, r7, lr}
10005512:	0d0c      	lsrs	r4, r1, #20
10005514:	1e66      	subs	r6, r4, #1
10005516:	0536      	lsls	r6, r6, #20
10005518:	1b89      	subs	r1, r1, r6
1000551a:	0ae6      	lsrs	r6, r4, #11
1000551c:	0564      	lsls	r4, r4, #21
1000551e:	0d64      	lsrs	r4, r4, #21
10005520:	d002      	beq.n	10005528 <l12_1>
10005522:	1c65      	adds	r5, r4, #1
10005524:	0aed      	lsrs	r5, r5, #11
10005526:	d004      	beq.n	10005532 <l12_2>

10005528 <l12_1>:
10005528:	2000      	movs	r0, #0
1000552a:	2101      	movs	r1, #1
1000552c:	0509      	lsls	r1, r1, #20
1000552e:	3c80      	subs	r4, #128	; 0x80
10005530:	0324      	lsls	r4, r4, #12

10005532 <l12_2>:
10005532:	46a4      	mov	ip, r4
10005534:	0d1c      	lsrs	r4, r3, #20
10005536:	1e67      	subs	r7, r4, #1
10005538:	053f      	lsls	r7, r7, #20
1000553a:	1bdb      	subs	r3, r3, r7
1000553c:	0ae7      	lsrs	r7, r4, #11
1000553e:	0564      	lsls	r4, r4, #21
10005540:	0d64      	lsrs	r4, r4, #21
10005542:	d002      	beq.n	1000554a <l13_1>
10005544:	1c65      	adds	r5, r4, #1
10005546:	0aed      	lsrs	r5, r5, #11
10005548:	d004      	beq.n	10005554 <l13_2>

1000554a <l13_1>:
1000554a:	2200      	movs	r2, #0
1000554c:	2301      	movs	r3, #1
1000554e:	051b      	lsls	r3, r3, #20
10005550:	3c80      	subs	r4, #128	; 0x80
10005552:	0324      	lsls	r4, r4, #12

10005554 <l13_2>:
10005554:	4077      	eors	r7, r6
10005556:	4464      	add	r4, ip
10005558:	b497      	push	{r0, r1, r2, r4, r7}
1000555a:	b284      	uxth	r4, r0
1000555c:	b296      	uxth	r6, r2
1000555e:	4374      	muls	r4, r6
10005560:	0c07      	lsrs	r7, r0, #16
10005562:	437e      	muls	r6, r7
10005564:	0c15      	lsrs	r5, r2, #16
10005566:	436f      	muls	r7, r5
10005568:	b280      	uxth	r0, r0
1000556a:	4368      	muls	r0, r5
1000556c:	1836      	adds	r6, r6, r0
1000556e:	d302      	bcc.n	10005576 <l14_1>
10005570:	2001      	movs	r0, #1
10005572:	0400      	lsls	r0, r0, #16
10005574:	183f      	adds	r7, r7, r0

10005576 <l14_1>:
10005576:	0430      	lsls	r0, r6, #16
10005578:	0c35      	lsrs	r5, r6, #16
1000557a:	1900      	adds	r0, r0, r4
1000557c:	417d      	adcs	r5, r7
1000557e:	4684      	mov	ip, r0
10005580:	b288      	uxth	r0, r1
10005582:	b29a      	uxth	r2, r3
10005584:	4350      	muls	r0, r2
10005586:	0c0c      	lsrs	r4, r1, #16
10005588:	4362      	muls	r2, r4
1000558a:	0c1f      	lsrs	r7, r3, #16
1000558c:	437c      	muls	r4, r7
1000558e:	b28e      	uxth	r6, r1
10005590:	437e      	muls	r6, r7
10005592:	1992      	adds	r2, r2, r6
10005594:	d302      	bcc.n	1000559c <l15_1>
10005596:	2601      	movs	r6, #1
10005598:	0436      	lsls	r6, r6, #16
1000559a:	19a4      	adds	r4, r4, r6

1000559c <l15_1>:
1000559c:	0416      	lsls	r6, r2, #16
1000559e:	0c17      	lsrs	r7, r2, #16
100055a0:	1836      	adds	r6, r6, r0
100055a2:	4167      	adcs	r7, r4
100055a4:	bc01      	pop	{r0}
100055a6:	b281      	uxth	r1, r0
100055a8:	b29a      	uxth	r2, r3
100055aa:	4351      	muls	r1, r2
100055ac:	0c04      	lsrs	r4, r0, #16
100055ae:	4362      	muls	r2, r4
100055b0:	0c1b      	lsrs	r3, r3, #16
100055b2:	435c      	muls	r4, r3
100055b4:	b280      	uxth	r0, r0
100055b6:	4358      	muls	r0, r3
100055b8:	1812      	adds	r2, r2, r0
100055ba:	d302      	bcc.n	100055c2 <l16_1>
100055bc:	2001      	movs	r0, #1
100055be:	0400      	lsls	r0, r0, #16
100055c0:	1824      	adds	r4, r4, r0

100055c2 <l16_1>:
100055c2:	0410      	lsls	r0, r2, #16
100055c4:	0c13      	lsrs	r3, r2, #16
100055c6:	1840      	adds	r0, r0, r1
100055c8:	4163      	adcs	r3, r4
100055ca:	182d      	adds	r5, r5, r0
100055cc:	415e      	adcs	r6, r3
100055ce:	2000      	movs	r0, #0
100055d0:	4147      	adcs	r7, r0
100055d2:	bc06      	pop	{r1, r2}
100055d4:	b288      	uxth	r0, r1
100055d6:	b293      	uxth	r3, r2
100055d8:	4358      	muls	r0, r3
100055da:	0c0c      	lsrs	r4, r1, #16
100055dc:	4363      	muls	r3, r4
100055de:	0c12      	lsrs	r2, r2, #16
100055e0:	4354      	muls	r4, r2
100055e2:	b289      	uxth	r1, r1
100055e4:	4351      	muls	r1, r2
100055e6:	185b      	adds	r3, r3, r1
100055e8:	d302      	bcc.n	100055f0 <l17_1>
100055ea:	2101      	movs	r1, #1
100055ec:	0409      	lsls	r1, r1, #16
100055ee:	1864      	adds	r4, r4, r1

100055f0 <l17_1>:
100055f0:	0419      	lsls	r1, r3, #16
100055f2:	0c1a      	lsrs	r2, r3, #16
100055f4:	1809      	adds	r1, r1, r0
100055f6:	4162      	adcs	r2, r4
100055f8:	186d      	adds	r5, r5, r1
100055fa:	4156      	adcs	r6, r2
100055fc:	2000      	movs	r0, #0
100055fe:	4147      	adcs	r7, r0
10005600:	bc18      	pop	{r3, r4}
10005602:	02f9      	lsls	r1, r7, #11
10005604:	0d72      	lsrs	r2, r6, #21
10005606:	4311      	orrs	r1, r2
10005608:	02f0      	lsls	r0, r6, #11
1000560a:	0d6a      	lsrs	r2, r5, #21
1000560c:	4310      	orrs	r0, r2
1000560e:	02ed      	lsls	r5, r5, #11
10005610:	0d0a      	lsrs	r2, r1, #20
10005612:	d103      	bne.n	1000561c <l17_1+0x2c>
10005614:	196d      	adds	r5, r5, r5
10005616:	4140      	adcs	r0, r0
10005618:	4149      	adcs	r1, r1
1000561a:	3b01      	subs	r3, #1
1000561c:	4e12      	ldr	r6, [pc, #72]	; (10005668 <dm_1+0xa>)
1000561e:	1b9b      	subs	r3, r3, r6
10005620:	0076      	lsls	r6, r6, #1
10005622:	42b3      	cmp	r3, r6
10005624:	d20e      	bcs.n	10005644 <dm_0>
10005626:	006d      	lsls	r5, r5, #1
10005628:	d307      	bcc.n	1000563a <l17_1+0x4a>
1000562a:	3001      	adds	r0, #1
1000562c:	2600      	movs	r6, #0
1000562e:	4171      	adcs	r1, r6
10005630:	4666      	mov	r6, ip
10005632:	4335      	orrs	r5, r6
10005634:	d101      	bne.n	1000563a <l17_1+0x4a>
10005636:	0840      	lsrs	r0, r0, #1
10005638:	0040      	lsls	r0, r0, #1
1000563a:	051b      	lsls	r3, r3, #20
1000563c:	18c9      	adds	r1, r1, r3

1000563e <dm_2>:
1000563e:	07e4      	lsls	r4, r4, #31
10005640:	4421      	add	r1, r4
10005642:	bdf0      	pop	{r4, r5, r6, r7, pc}

10005644 <dm_0>:
10005644:	da0b      	bge.n	1000565e <dm_1>
10005646:	3301      	adds	r3, #1
10005648:	d106      	bne.n	10005658 <dm_0+0x14>
1000564a:	3001      	adds	r0, #1
1000564c:	d104      	bne.n	10005658 <dm_0+0x14>
1000564e:	3101      	adds	r1, #1
10005650:	0d4f      	lsrs	r7, r1, #21
10005652:	d001      	beq.n	10005658 <dm_0+0x14>
10005654:	0849      	lsrs	r1, r1, #1
10005656:	e7f2      	b.n	1000563e <dm_2>
10005658:	07e1      	lsls	r1, r4, #31
1000565a:	2000      	movs	r0, #0
1000565c:	bdf0      	pop	{r4, r5, r6, r7, pc}

1000565e <dm_1>:
1000565e:	3601      	adds	r6, #1
10005660:	0531      	lsls	r1, r6, #20
10005662:	2000      	movs	r0, #0
10005664:	e7eb      	b.n	1000563e <dm_2>
10005666:	0000      	.short	0x0000
10005668:	000003ff 	.word	0x000003ff

1000566c <ddiv_shim>:
1000566c:	b5f0      	push	{r4, r5, r6, r7, lr}

1000566e <ddiv0>:
1000566e:	0d1c      	lsrs	r4, r3, #20
10005670:	1e67      	subs	r7, r4, #1
10005672:	053f      	lsls	r7, r7, #20
10005674:	1bdb      	subs	r3, r3, r7
10005676:	0ae7      	lsrs	r7, r4, #11
10005678:	0564      	lsls	r4, r4, #21
1000567a:	0d64      	lsrs	r4, r4, #21
1000567c:	d002      	beq.n	10005684 <l20_1>
1000567e:	1c66      	adds	r6, r4, #1
10005680:	0af6      	lsrs	r6, r6, #11
10005682:	d004      	beq.n	1000568e <l20_2>

10005684 <l20_1>:
10005684:	2200      	movs	r2, #0
10005686:	2301      	movs	r3, #1
10005688:	051b      	lsls	r3, r3, #20
1000568a:	3c80      	subs	r4, #128	; 0x80
1000568c:	0324      	lsls	r4, r4, #12

1000568e <l20_2>:
1000568e:	25d0      	movs	r5, #208	; 0xd0
10005690:	062d      	lsls	r5, r5, #24
10005692:	2600      	movs	r6, #0
10005694:	43f6      	mvns	r6, r6
10005696:	662e      	str	r6, [r5, #96]	; 0x60
10005698:	091e      	lsrs	r6, r3, #4
1000569a:	666e      	str	r6, [r5, #100]	; 0x64
1000569c:	0fce      	lsrs	r6, r1, #31
1000569e:	19f6      	adds	r6, r6, r7
100056a0:	46b4      	mov	ip, r6
100056a2:	0049      	lsls	r1, r1, #1
100056a4:	0d4f      	lsrs	r7, r1, #21
100056a6:	d002      	beq.n	100056ae <l20_2+0x20>
100056a8:	1c7e      	adds	r6, r7, #1
100056aa:	0af6      	lsrs	r6, r6, #11
100056ac:	d003      	beq.n	100056b6 <l20_2+0x28>
100056ae:	2000      	movs	r0, #0
100056b0:	2100      	movs	r1, #0
100056b2:	3f40      	subs	r7, #64	; 0x40
100056b4:	033f      	lsls	r7, r7, #12
100056b6:	1b3e      	subs	r6, r7, r4
100056b8:	00b6      	lsls	r6, r6, #2
100056ba:	44b4      	add	ip, r6
100056bc:	3f01      	subs	r7, #1
100056be:	057f      	lsls	r7, r7, #21
100056c0:	1bc9      	subs	r1, r1, r7
100056c2:	0849      	lsrs	r1, r1, #1
100056c4:	6f2e      	ldr	r6, [r5, #112]	; 0x70
100056c6:	3601      	adds	r6, #1
100056c8:	0876      	lsrs	r6, r6, #1
100056ca:	029c      	lsls	r4, r3, #10
100056cc:	0d95      	lsrs	r5, r2, #22
100056ce:	4325      	orrs	r5, r4
100056d0:	4375      	muls	r5, r6
100056d2:	13ed      	asrs	r5, r5, #15
100056d4:	4375      	muls	r5, r6
100056d6:	13ad      	asrs	r5, r5, #14
100056d8:	3501      	adds	r5, #1
100056da:	106d      	asrs	r5, r5, #1
100056dc:	03f6      	lsls	r6, r6, #15
100056de:	1b76      	subs	r6, r6, r5
100056e0:	b40c      	push	{r2, r3}
100056e2:	02cc      	lsls	r4, r1, #11
100056e4:	0d45      	lsrs	r5, r0, #21
100056e6:	432c      	orrs	r4, r5
100056e8:	b2a2      	uxth	r2, r4
100056ea:	b2b3      	uxth	r3, r6
100056ec:	435a      	muls	r2, r3
100056ee:	0c27      	lsrs	r7, r4, #16
100056f0:	437b      	muls	r3, r7
100056f2:	0c35      	lsrs	r5, r6, #16
100056f4:	436f      	muls	r7, r5
100056f6:	b2a4      	uxth	r4, r4
100056f8:	436c      	muls	r4, r5
100056fa:	191b      	adds	r3, r3, r4
100056fc:	d302      	bcc.n	10005704 <l21_1>
100056fe:	2401      	movs	r4, #1
10005700:	0424      	lsls	r4, r4, #16
10005702:	193f      	adds	r7, r7, r4

10005704 <l21_1>:
10005704:	041c      	lsls	r4, r3, #16
10005706:	0c1d      	lsrs	r5, r3, #16
10005708:	18a4      	adds	r4, r4, r2
1000570a:	417d      	adcs	r5, r7
1000570c:	1924      	adds	r4, r4, r4
1000570e:	416d      	adcs	r5, r5
10005710:	9a00      	ldr	r2, [sp, #0]
10005712:	b291      	uxth	r1, r2
10005714:	b2ac      	uxth	r4, r5
10005716:	4361      	muls	r1, r4
10005718:	0c17      	lsrs	r7, r2, #16
1000571a:	437c      	muls	r4, r7
1000571c:	0c2b      	lsrs	r3, r5, #16
1000571e:	435f      	muls	r7, r3
10005720:	b292      	uxth	r2, r2
10005722:	435a      	muls	r2, r3
10005724:	18a4      	adds	r4, r4, r2
10005726:	d302      	bcc.n	1000572e <l22_1>
10005728:	2201      	movs	r2, #1
1000572a:	0412      	lsls	r2, r2, #16
1000572c:	18bf      	adds	r7, r7, r2

1000572e <l22_1>:
1000572e:	0422      	lsls	r2, r4, #16
10005730:	0c23      	lsrs	r3, r4, #16
10005732:	1852      	adds	r2, r2, r1
10005734:	417b      	adcs	r3, r7
10005736:	9c01      	ldr	r4, [sp, #4]
10005738:	436c      	muls	r4, r5
1000573a:	191b      	adds	r3, r3, r4
1000573c:	0e52      	lsrs	r2, r2, #25
1000573e:	01d9      	lsls	r1, r3, #7
10005740:	430a      	orrs	r2, r1
10005742:	0144      	lsls	r4, r0, #5
10005744:	1aa0      	subs	r0, r4, r2
10005746:	b281      	uxth	r1, r0
10005748:	b2b2      	uxth	r2, r6
1000574a:	4351      	muls	r1, r2
1000574c:	1403      	asrs	r3, r0, #16
1000574e:	435a      	muls	r2, r3
10005750:	0c36      	lsrs	r6, r6, #16
10005752:	4373      	muls	r3, r6
10005754:	b287      	uxth	r7, r0
10005756:	4377      	muls	r7, r6
10005758:	17d6      	asrs	r6, r2, #31
1000575a:	19d2      	adds	r2, r2, r7
1000575c:	2700      	movs	r7, #0
1000575e:	417e      	adcs	r6, r7
10005760:	0436      	lsls	r6, r6, #16
10005762:	199b      	adds	r3, r3, r6
10005764:	0417      	lsls	r7, r2, #16
10005766:	0c16      	lsrs	r6, r2, #16
10005768:	187f      	adds	r7, r7, r1
1000576a:	415e      	adcs	r6, r3
1000576c:	1673      	asrs	r3, r6, #25
1000576e:	18ed      	adds	r5, r5, r3
10005770:	01f3      	lsls	r3, r6, #7
10005772:	2600      	movs	r6, #0
10005774:	3380      	adds	r3, #128	; 0x80
10005776:	4175      	adcs	r5, r6
10005778:	0fa9      	lsrs	r1, r5, #30
1000577a:	d106      	bne.n	1000578a <dd_0>
1000577c:	0064      	lsls	r4, r4, #1
1000577e:	0a69      	lsrs	r1, r5, #9
10005780:	05e8      	lsls	r0, r5, #23
10005782:	0a5b      	lsrs	r3, r3, #9
10005784:	4318      	orrs	r0, r3
10005786:	d209      	bcs.n	1000579c <dd_1>
10005788:	e02f      	b.n	100057ea <dd_2>

1000578a <dd_0>:
1000578a:	2204      	movs	r2, #4
1000578c:	4494      	add	ip, r2
1000578e:	3380      	adds	r3, #128	; 0x80
10005790:	4175      	adcs	r5, r6
10005792:	0aa9      	lsrs	r1, r5, #10
10005794:	05a8      	lsls	r0, r5, #22
10005796:	0a9b      	lsrs	r3, r3, #10
10005798:	4318      	orrs	r0, r3
1000579a:	d326      	bcc.n	100057ea <dd_2>

1000579c <dd_1>:
1000579c:	4140      	adcs	r0, r0
1000579e:	4149      	adcs	r1, r1
100057a0:	0424      	lsls	r4, r4, #16
100057a2:	9a00      	ldr	r2, [sp, #0]
100057a4:	9b01      	ldr	r3, [sp, #4]
100057a6:	000d      	movs	r5, r1
100057a8:	4355      	muls	r5, r2
100057aa:	1b64      	subs	r4, r4, r5
100057ac:	4343      	muls	r3, r0
100057ae:	1ae4      	subs	r4, r4, r3
100057b0:	b295      	uxth	r5, r2
100057b2:	b286      	uxth	r6, r0
100057b4:	4375      	muls	r5, r6
100057b6:	0c17      	lsrs	r7, r2, #16
100057b8:	437e      	muls	r6, r7
100057ba:	0c03      	lsrs	r3, r0, #16
100057bc:	435f      	muls	r7, r3
100057be:	b292      	uxth	r2, r2
100057c0:	435a      	muls	r2, r3
100057c2:	18b6      	adds	r6, r6, r2
100057c4:	d302      	bcc.n	100057cc <l24_1>
100057c6:	2201      	movs	r2, #1
100057c8:	0412      	lsls	r2, r2, #16
100057ca:	18bf      	adds	r7, r7, r2

100057cc <l24_1>:
100057cc:	0432      	lsls	r2, r6, #16
100057ce:	0c33      	lsrs	r3, r6, #16
100057d0:	1952      	adds	r2, r2, r5
100057d2:	417b      	adcs	r3, r7
100057d4:	4252      	negs	r2, r2
100057d6:	419c      	sbcs	r4, r3
100057d8:	2c00      	cmp	r4, #0
100057da:	d402      	bmi.n	100057e2 <l24_1+0x16>
100057dc:	2200      	movs	r2, #0
100057de:	3001      	adds	r0, #1
100057e0:	4151      	adcs	r1, r2
100057e2:	0840      	lsrs	r0, r0, #1
100057e4:	07ca      	lsls	r2, r1, #31
100057e6:	4310      	orrs	r0, r2
100057e8:	0849      	lsrs	r1, r1, #1

100057ea <dd_2>:
100057ea:	b002      	add	sp, #8
100057ec:	4662      	mov	r2, ip
100057ee:	07d7      	lsls	r7, r2, #31
100057f0:	1092      	asrs	r2, r2, #2
100057f2:	4b08      	ldr	r3, [pc, #32]	; (10005814 <dd_4+0x6>)
100057f4:	18d2      	adds	r2, r2, r3
100057f6:	4b08      	ldr	r3, [pc, #32]	; (10005818 <dd_4+0xa>)
100057f8:	429a      	cmp	r2, r3
100057fa:	d203      	bcs.n	10005804 <dd_3>
100057fc:	0512      	lsls	r2, r2, #20
100057fe:	1889      	adds	r1, r1, r2

10005800 <dd_5>:
10005800:	19c9      	adds	r1, r1, r7
10005802:	bdf0      	pop	{r4, r5, r6, r7, pc}

10005804 <dd_3>:
10005804:	2000      	movs	r0, #0
10005806:	2a00      	cmp	r2, #0
10005808:	dc01      	bgt.n	1000580e <dd_4>
1000580a:	0039      	movs	r1, r7
1000580c:	bdf0      	pop	{r4, r5, r6, r7, pc}

1000580e <dd_4>:
1000580e:	3301      	adds	r3, #1
10005810:	0519      	lsls	r1, r3, #20
10005812:	e7f5      	b.n	10005800 <dd_5>
10005814:	000003fd 	.word	0x000003fd
10005818:	000007fe 	.word	0x000007fe

1000581c <double2uint_shim>:
1000581c:	2200      	movs	r2, #0

1000581e <double2ufix_shim>:
1000581e:	b500      	push	{lr}
10005820:	3220      	adds	r2, #32
10005822:	f000 f804 	bl	1000582e <double2ufix64_shim>
10005826:	0008      	movs	r0, r1
10005828:	bd00      	pop	{pc}
	...

1000582c <double2uint64_shim>:
1000582c:	2200      	movs	r2, #0

1000582e <double2ufix64_shim>:
1000582e:	150b      	asrs	r3, r1, #20
10005830:	d40a      	bmi.n	10005848 <ret_dzero>

10005832 <d2fix>:
10005832:	b510      	push	{r4, lr}
10005834:	4694      	mov	ip, r2
10005836:	f000 f85f 	bl	100058f8 <dunpacks>
1000583a:	1414      	asrs	r4, r2, #16
1000583c:	3401      	adds	r4, #1
1000583e:	da00      	bge.n	10005842 <d2fix+0x10>
10005840:	2100      	movs	r1, #0
10005842:	17cb      	asrs	r3, r1, #31
10005844:	4c14      	ldr	r4, [pc, #80]	; (10005898 <d2fix_a+0x4a>)
10005846:	4720      	bx	r4

10005848 <ret_dzero>:
10005848:	2000      	movs	r0, #0
1000584a:	2100      	movs	r1, #0
1000584c:	4770      	bx	lr

1000584e <d2fix_a>:
1000584e:	4462      	add	r2, ip
10005850:	3a34      	subs	r2, #52	; 0x34
10005852:	d40c      	bmi.n	1000586e <d2fix_a+0x20>
10005854:	2a0c      	cmp	r2, #12
10005856:	da07      	bge.n	10005868 <d2fix_a+0x1a>
10005858:	0004      	movs	r4, r0
1000585a:	4091      	lsls	r1, r2
1000585c:	4090      	lsls	r0, r2
1000585e:	4252      	negs	r2, r2
10005860:	3220      	adds	r2, #32
10005862:	40d4      	lsrs	r4, r2
10005864:	4321      	orrs	r1, r4
10005866:	bd10      	pop	{r4, pc}
10005868:	43d8      	mvns	r0, r3
1000586a:	43d9      	mvns	r1, r3
1000586c:	bd10      	pop	{r4, pc}
1000586e:	3220      	adds	r2, #32
10005870:	d407      	bmi.n	10005882 <d2fix_a+0x34>
10005872:	460c      	mov	r4, r1
10005874:	4094      	lsls	r4, r2
10005876:	4252      	negs	r2, r2
10005878:	3220      	adds	r2, #32
1000587a:	4111      	asrs	r1, r2
1000587c:	40d0      	lsrs	r0, r2
1000587e:	4320      	orrs	r0, r4
10005880:	bd10      	pop	{r4, pc}
10005882:	0008      	movs	r0, r1
10005884:	17c9      	asrs	r1, r1, #31
10005886:	3220      	adds	r2, #32
10005888:	d403      	bmi.n	10005892 <d2fix_a+0x44>
1000588a:	4252      	negs	r2, r2
1000588c:	3220      	adds	r2, #32
1000588e:	4110      	asrs	r0, r2
10005890:	bd10      	pop	{r4, pc}
10005892:	0018      	movs	r0, r3
10005894:	0019      	movs	r1, r3
10005896:	bd10      	pop	{r4, pc}
10005898:	1000584f 	.word	0x1000584f

1000589c <double2float_shim>:
1000589c:	004a      	lsls	r2, r1, #1
1000589e:	0d52      	lsrs	r2, r2, #21
100058a0:	4b14      	ldr	r3, [pc, #80]	; (100058f4 <double2float_shim+0x58>)
100058a2:	1ad2      	subs	r2, r2, r3
100058a4:	dd13      	ble.n	100058ce <double2float_shim+0x32>
100058a6:	2aff      	cmp	r2, #255	; 0xff
100058a8:	da1e      	bge.n	100058e8 <double2float_shim+0x4c>
100058aa:	05d2      	lsls	r2, r2, #23
100058ac:	0fcb      	lsrs	r3, r1, #31
100058ae:	07db      	lsls	r3, r3, #31
100058b0:	431a      	orrs	r2, r3
100058b2:	00c3      	lsls	r3, r0, #3
100058b4:	0f40      	lsrs	r0, r0, #29
100058b6:	0309      	lsls	r1, r1, #12
100058b8:	0a49      	lsrs	r1, r1, #9
100058ba:	4308      	orrs	r0, r1
100058bc:	4310      	orrs	r0, r2
100058be:	005b      	lsls	r3, r3, #1
100058c0:	d301      	bcc.n	100058c6 <double2float_shim+0x2a>
100058c2:	d001      	beq.n	100058c8 <double2float_shim+0x2c>
100058c4:	3001      	adds	r0, #1
100058c6:	4770      	bx	lr
100058c8:	0843      	lsrs	r3, r0, #1
100058ca:	d2fb      	bcs.n	100058c4 <double2float_shim+0x28>
100058cc:	4770      	bx	lr
100058ce:	d002      	beq.n	100058d6 <double2float_shim+0x3a>
100058d0:	0fc8      	lsrs	r0, r1, #31
100058d2:	07c0      	lsls	r0, r0, #31
100058d4:	4770      	bx	lr
100058d6:	030a      	lsls	r2, r1, #12
100058d8:	1312      	asrs	r2, r2, #12
100058da:	3201      	adds	r2, #1
100058dc:	d1f8      	bne.n	100058d0 <double2float_shim+0x34>
100058de:	0f42      	lsrs	r2, r0, #29
100058e0:	2a07      	cmp	r2, #7
100058e2:	d1f5      	bne.n	100058d0 <double2float_shim+0x34>
100058e4:	2201      	movs	r2, #1
100058e6:	e000      	b.n	100058ea <double2float_shim+0x4e>
100058e8:	22ff      	movs	r2, #255	; 0xff
100058ea:	0fc8      	lsrs	r0, r1, #31
100058ec:	0200      	lsls	r0, r0, #8
100058ee:	1880      	adds	r0, r0, r2
100058f0:	05c0      	lsls	r0, r0, #23
100058f2:	4770      	bx	lr
100058f4:	00000380 	.word	0x00000380

100058f8 <dunpacks>:
100058f8:	0d0a      	lsrs	r2, r1, #20
100058fa:	0fcc      	lsrs	r4, r1, #31
100058fc:	1e53      	subs	r3, r2, #1
100058fe:	051b      	lsls	r3, r3, #20
10005900:	1ac9      	subs	r1, r1, r3
10005902:	0552      	lsls	r2, r2, #21
10005904:	d303      	bcc.n	1000590e <l60_1>
10005906:	43c9      	mvns	r1, r1
10005908:	4240      	negs	r0, r0
1000590a:	d300      	bcc.n	1000590e <l60_1>
1000590c:	3101      	adds	r1, #1

1000590e <l60_1>:
1000590e:	0d52      	lsrs	r2, r2, #21
10005910:	d003      	beq.n	1000591a <l60_2>
10005912:	1c53      	adds	r3, r2, #1
10005914:	0adb      	lsrs	r3, r3, #11
10005916:	d007      	beq.n	10005928 <l60_3>
10005918:	1b12      	subs	r2, r2, r4

1000591a <l60_2>:
1000591a:	2000      	movs	r0, #0
1000591c:	0064      	lsls	r4, r4, #1
1000591e:	1c61      	adds	r1, r4, #1
10005920:	0789      	lsls	r1, r1, #30
10005922:	1289      	asrs	r1, r1, #10
10005924:	3a80      	subs	r2, #128	; 0x80
10005926:	0312      	lsls	r2, r2, #12

10005928 <l60_3>:
10005928:	4b01      	ldr	r3, [pc, #4]	; (10005930 <l60_3+0x8>)
1000592a:	1ad2      	subs	r2, r2, r3
1000592c:	4770      	bx	lr
1000592e:	0000      	.short	0x0000
10005930:	000003ff 	.word	0x000003ff

10005934 <__wrap___aeabi_lmul>:
10005934:	4351      	muls	r1, r2
10005936:	4343      	muls	r3, r0
10005938:	18c9      	adds	r1, r1, r3
1000593a:	468c      	mov	ip, r1
1000593c:	0c11      	lsrs	r1, r2, #16
1000593e:	b283      	uxth	r3, r0
10005940:	434b      	muls	r3, r1
10005942:	b410      	push	{r4}
10005944:	0c04      	lsrs	r4, r0, #16
10005946:	4361      	muls	r1, r4
10005948:	b292      	uxth	r2, r2
1000594a:	b280      	uxth	r0, r0
1000594c:	4350      	muls	r0, r2
1000594e:	4362      	muls	r2, r4
10005950:	041c      	lsls	r4, r3, #16
10005952:	0c1b      	lsrs	r3, r3, #16
10005954:	1900      	adds	r0, r0, r4
10005956:	bc10      	pop	{r4}
10005958:	4159      	adcs	r1, r3
1000595a:	0413      	lsls	r3, r2, #16
1000595c:	0c12      	lsrs	r2, r2, #16
1000595e:	18c0      	adds	r0, r0, r3
10005960:	4151      	adcs	r1, r2
10005962:	4461      	add	r1, ip
10005964:	4770      	bx	lr
	...

10005968 <__wrap___aeabi_frsub>:
10005968:	4048      	eors	r0, r1
1000596a:	4041      	eors	r1, r0
1000596c:	4048      	eors	r0, r1

1000596e <__wrap___aeabi_fsub>:
1000596e:	2300      	movs	r3, #0
10005970:	469c      	mov	ip, r3
10005972:	4b11      	ldr	r3, [pc, #68]	; (100059b8 <__wrap___aeabi_fmul+0xa>)
10005974:	685b      	ldr	r3, [r3, #4]
10005976:	4718      	bx	r3

10005978 <__wrap___aeabi_fadd>:
10005978:	2300      	movs	r3, #0
1000597a:	469c      	mov	ip, r3
1000597c:	4b0e      	ldr	r3, [pc, #56]	; (100059b8 <__wrap___aeabi_fmul+0xa>)
1000597e:	681b      	ldr	r3, [r3, #0]
10005980:	4718      	bx	r3

10005982 <__wrap___aeabi_fdiv>:
10005982:	4a0e      	ldr	r2, [pc, #56]	; (100059bc <__wrap___aeabi_fmul+0xe>)
10005984:	6f93      	ldr	r3, [r2, #120]	; 0x78
10005986:	089b      	lsrs	r3, r3, #2
10005988:	d204      	bcs.n	10005994 <fdiv_save_state>

1000598a <fdiv_shim_call>:
1000598a:	2300      	movs	r3, #0
1000598c:	469c      	mov	ip, r3
1000598e:	4b0a      	ldr	r3, [pc, #40]	; (100059b8 <__wrap___aeabi_fmul+0xa>)
10005990:	68db      	ldr	r3, [r3, #12]
10005992:	4718      	bx	r3

10005994 <fdiv_save_state>:
10005994:	b5f0      	push	{r4, r5, r6, r7, lr}
10005996:	6e14      	ldr	r4, [r2, #96]	; 0x60
10005998:	6e55      	ldr	r5, [r2, #100]	; 0x64
1000599a:	6f57      	ldr	r7, [r2, #116]	; 0x74
1000599c:	6f16      	ldr	r6, [r2, #112]	; 0x70
1000599e:	f7ff fff4 	bl	1000598a <fdiv_shim_call>
100059a2:	4a06      	ldr	r2, [pc, #24]	; (100059bc <__wrap___aeabi_fmul+0xe>)
100059a4:	6614      	str	r4, [r2, #96]	; 0x60
100059a6:	6655      	str	r5, [r2, #100]	; 0x64
100059a8:	6757      	str	r7, [r2, #116]	; 0x74
100059aa:	6716      	str	r6, [r2, #112]	; 0x70
100059ac:	bdf0      	pop	{r4, r5, r6, r7, pc}

100059ae <__wrap___aeabi_fmul>:
100059ae:	2300      	movs	r3, #0
100059b0:	469c      	mov	ip, r3
100059b2:	4b01      	ldr	r3, [pc, #4]	; (100059b8 <__wrap___aeabi_fmul+0xa>)
100059b4:	689b      	ldr	r3, [r3, #8]
100059b6:	4718      	bx	r3
100059b8:	20002454 	.word	0x20002454
100059bc:	d0000000 	.word	0xd0000000

100059c0 <__wrap___aeabi_cfrcmple>:
100059c0:	b507      	push	{r0, r1, r2, lr}
100059c2:	4048      	eors	r0, r1
100059c4:	4041      	eors	r1, r0
100059c6:	4048      	eors	r0, r1
100059c8:	e001      	b.n	100059ce <__aeabi_cfcmple_guts>
100059ca:	46c0      	nop			; (mov r8, r8)

100059cc <__wrap___aeabi_cfcmpeq>:
100059cc:	b507      	push	{r0, r1, r2, lr}

100059ce <__aeabi_cfcmple_guts>:
100059ce:	0042      	lsls	r2, r0, #1
100059d0:	0e12      	lsrs	r2, r2, #24
100059d2:	d003      	beq.n	100059dc <__aeabi_cfcmple_guts+0xe>
100059d4:	2aff      	cmp	r2, #255	; 0xff
100059d6:	d103      	bne.n	100059e0 <__aeabi_cfcmple_guts+0x12>
100059d8:	0242      	lsls	r2, r0, #9
100059da:	d818      	bhi.n	10005a0e <__aeabi_cfcmple_guts+0x40>
100059dc:	0dc0      	lsrs	r0, r0, #23
100059de:	05c0      	lsls	r0, r0, #23
100059e0:	004a      	lsls	r2, r1, #1
100059e2:	0e12      	lsrs	r2, r2, #24
100059e4:	d003      	beq.n	100059ee <__aeabi_cfcmple_guts+0x20>
100059e6:	2aff      	cmp	r2, #255	; 0xff
100059e8:	d103      	bne.n	100059f2 <__aeabi_cfcmple_guts+0x24>
100059ea:	024a      	lsls	r2, r1, #9
100059ec:	d80f      	bhi.n	10005a0e <__aeabi_cfcmple_guts+0x40>
100059ee:	0dc9      	lsrs	r1, r1, #23
100059f0:	05c9      	lsls	r1, r1, #23
100059f2:	2201      	movs	r2, #1
100059f4:	4041      	eors	r1, r0
100059f6:	d405      	bmi.n	10005a04 <__aeabi_cfcmple_guts+0x36>
100059f8:	4041      	eors	r1, r0
100059fa:	d501      	bpl.n	10005a00 <__aeabi_cfcmple_guts+0x32>
100059fc:	4281      	cmp	r1, r0
100059fe:	bd07      	pop	{r0, r1, r2, pc}
10005a00:	4288      	cmp	r0, r1
10005a02:	bd07      	pop	{r0, r1, r2, pc}
10005a04:	4301      	orrs	r1, r0
10005a06:	1849      	adds	r1, r1, r1
10005a08:	d001      	beq.n	10005a0e <__aeabi_cfcmple_guts+0x40>
10005a0a:	43c0      	mvns	r0, r0
10005a0c:	1800      	adds	r0, r0, r0
10005a0e:	bd07      	pop	{r0, r1, r2, pc}

10005a10 <__wrap___aeabi_fcmplt>:
10005a10:	b500      	push	{lr}
10005a12:	f7ff ffdb 	bl	100059cc <__wrap___aeabi_cfcmpeq>
10005a16:	4180      	sbcs	r0, r0
10005a18:	bd00      	pop	{pc}
10005a1a:	46c0      	nop			; (mov r8, r8)

10005a1c <__wrap___aeabi_fcmpgt>:
10005a1c:	b500      	push	{lr}
10005a1e:	f7ff ffcf 	bl	100059c0 <__wrap___aeabi_cfrcmple>
10005a22:	4180      	sbcs	r0, r0
10005a24:	bd00      	pop	{pc}
	...

10005a28 <fix2float>:
10005a28:	2300      	movs	r3, #0
10005a2a:	469c      	mov	ip, r3
10005a2c:	4b01      	ldr	r3, [pc, #4]	; (10005a34 <fix2float+0xc>)
10005a2e:	6b1b      	ldr	r3, [r3, #48]	; 0x30
10005a30:	4718      	bx	r3
10005a32:	0000      	.short	0x0000
10005a34:	20002454 	.word	0x20002454

10005a38 <__wrap___aeabi_f2d>:
10005a38:	4b03      	ldr	r3, [pc, #12]	; (10005a48 <__wrap___aeabi_f2d+0x10>)
10005a3a:	6fdb      	ldr	r3, [r3, #124]	; 0x7c
10005a3c:	46fc      	mov	ip, pc
10005a3e:	4718      	bx	r3
10005a40:	5d31df7c 	.word	0x5d31df7c
10005a44:	00001000 	.word	0x00001000
10005a48:	20002454 	.word	0x20002454

10005a4c <__wrap_cosf>:
10005a4c:	0041      	lsls	r1, r0, #1
10005a4e:	0e09      	lsrs	r1, r1, #24
10005a50:	2986      	cmp	r1, #134	; 0x86
10005a52:	da04      	bge.n	10005a5e <__wrap_cosf+0x12>
10005a54:	2300      	movs	r3, #0
10005a56:	469c      	mov	ip, r3
10005a58:	4b04      	ldr	r3, [pc, #16]	; (10005a6c <__wrap_cosf+0x20>)
10005a5a:	6bdb      	ldr	r3, [r3, #60]	; 0x3c
10005a5c:	4718      	bx	r3
10005a5e:	4904      	ldr	r1, [pc, #16]	; (10005a70 <__wrap_cosf+0x24>)
10005a60:	b500      	push	{lr}
10005a62:	f000 f946 	bl	10005cf2 <__wrap_remainderf>
10005a66:	bc02      	pop	{r1}
10005a68:	468e      	mov	lr, r1
10005a6a:	e7f3      	b.n	10005a54 <__wrap_cosf+0x8>
10005a6c:	20002454 	.word	0x20002454
10005a70:	40c90fdb 	.word	0x40c90fdb

10005a74 <__wrap_sinf>:
10005a74:	0041      	lsls	r1, r0, #1
10005a76:	0e09      	lsrs	r1, r1, #24
10005a78:	2986      	cmp	r1, #134	; 0x86
10005a7a:	da04      	bge.n	10005a86 <__wrap_sinf+0x12>
10005a7c:	2300      	movs	r3, #0
10005a7e:	469c      	mov	ip, r3
10005a80:	4b04      	ldr	r3, [pc, #16]	; (10005a94 <__wrap_sinf+0x20>)
10005a82:	6c1b      	ldr	r3, [r3, #64]	; 0x40
10005a84:	4718      	bx	r3
10005a86:	4904      	ldr	r1, [pc, #16]	; (10005a98 <__wrap_sinf+0x24>)
10005a88:	b500      	push	{lr}
10005a8a:	f000 f932 	bl	10005cf2 <__wrap_remainderf>
10005a8e:	bc02      	pop	{r1}
10005a90:	468e      	mov	lr, r1
10005a92:	e7f3      	b.n	10005a7c <__wrap_sinf+0x8>
10005a94:	20002454 	.word	0x20002454
10005a98:	40c90fdb 	.word	0x40c90fdb

10005a9c <__aeabi_float_init>:
10005a9c:	b570      	push	{r4, r5, r6, lr}
10005a9e:	2313      	movs	r3, #19
10005aa0:	781d      	ldrb	r5, [r3, #0]
10005aa2:	482a      	ldr	r0, [pc, #168]	; (10005b4c <__aeabi_float_init+0xb0>)
10005aa4:	f7ff f884 	bl	10004bb0 <rom_data_lookup>
10005aa8:	0004      	movs	r4, r0
10005aaa:	2d01      	cmp	r5, #1
10005aac:	d011      	beq.n	10005ad2 <__aeabi_float_init+0x36>
10005aae:	2d01      	cmp	r5, #1
10005ab0:	dd09      	ble.n	10005ac6 <__aeabi_float_init+0x2a>
10005ab2:	1ea3      	subs	r3, r4, #2
10005ab4:	781b      	ldrb	r3, [r3, #0]
10005ab6:	009b      	lsls	r3, r3, #2
10005ab8:	2b7f      	cmp	r3, #127	; 0x7f
10005aba:	dd40      	ble.n	10005b3e <__aeabi_float_init+0xa2>
10005abc:	2280      	movs	r2, #128	; 0x80
10005abe:	0021      	movs	r1, r4
10005ac0:	4823      	ldr	r0, [pc, #140]	; (10005b50 <__aeabi_float_init+0xb4>)
10005ac2:	f000 f989 	bl	10005dd8 <__wrap___aeabi_memcpy>
10005ac6:	4823      	ldr	r0, [pc, #140]	; (10005b54 <__aeabi_float_init+0xb8>)
10005ac8:	f7ff f86a 	bl	10004ba0 <rom_func_lookup>
10005acc:	4b22      	ldr	r3, [pc, #136]	; (10005b58 <__aeabi_float_init+0xbc>)
10005ace:	6018      	str	r0, [r3, #0]
10005ad0:	bd70      	pop	{r4, r5, r6, pc}
10005ad2:	2254      	movs	r2, #84	; 0x54
10005ad4:	0001      	movs	r1, r0
10005ad6:	481e      	ldr	r0, [pc, #120]	; (10005b50 <__aeabi_float_init+0xb4>)
10005ad8:	f000 f97e 	bl	10005dd8 <__wrap___aeabi_memcpy>
10005adc:	4b1f      	ldr	r3, [pc, #124]	; (10005b5c <__aeabi_float_init+0xc0>)
10005ade:	881a      	ldrh	r2, [r3, #0]
10005ae0:	4b1f      	ldr	r3, [pc, #124]	; (10005b60 <__aeabi_float_init+0xc4>)
10005ae2:	429a      	cmp	r2, r3
10005ae4:	d11c      	bne.n	10005b20 <__aeabi_float_init+0x84>
10005ae6:	23a7      	movs	r3, #167	; 0xa7
10005ae8:	019b      	lsls	r3, r3, #6
10005aea:	881a      	ldrh	r2, [r3, #0]
10005aec:	4b1d      	ldr	r3, [pc, #116]	; (10005b64 <__aeabi_float_init+0xc8>)
10005aee:	429a      	cmp	r2, r3
10005af0:	d116      	bne.n	10005b20 <__aeabi_float_init+0x84>
10005af2:	4b1d      	ldr	r3, [pc, #116]	; (10005b68 <__aeabi_float_init+0xcc>)
10005af4:	881a      	ldrh	r2, [r3, #0]
10005af6:	4b1d      	ldr	r3, [pc, #116]	; (10005b6c <__aeabi_float_init+0xd0>)
10005af8:	429a      	cmp	r2, r3
10005afa:	d111      	bne.n	10005b20 <__aeabi_float_init+0x84>
10005afc:	4b1c      	ldr	r3, [pc, #112]	; (10005b70 <__aeabi_float_init+0xd4>)
10005afe:	881a      	ldrh	r2, [r3, #0]
10005b00:	2394      	movs	r3, #148	; 0x94
10005b02:	019b      	lsls	r3, r3, #6
10005b04:	429a      	cmp	r2, r3
10005b06:	d10b      	bne.n	10005b20 <__aeabi_float_init+0x84>
10005b08:	4b1a      	ldr	r3, [pc, #104]	; (10005b74 <__aeabi_float_init+0xd8>)
10005b0a:	881a      	ldrh	r2, [r3, #0]
10005b0c:	4b1a      	ldr	r3, [pc, #104]	; (10005b78 <__aeabi_float_init+0xdc>)
10005b0e:	429a      	cmp	r2, r3
10005b10:	d106      	bne.n	10005b20 <__aeabi_float_init+0x84>
10005b12:	4b1a      	ldr	r3, [pc, #104]	; (10005b7c <__aeabi_float_init+0xe0>)
10005b14:	681a      	ldr	r2, [r3, #0]
10005b16:	4b1a      	ldr	r3, [pc, #104]	; (10005b80 <__aeabi_float_init+0xe4>)
10005b18:	429a      	cmp	r2, r3
10005b1a:	d101      	bne.n	10005b20 <__aeabi_float_init+0x84>
10005b1c:	2315      	movs	r3, #21
10005b1e:	e007      	b.n	10005b30 <__aeabi_float_init+0x94>
10005b20:	4818      	ldr	r0, [pc, #96]	; (10005b84 <__aeabi_float_init+0xe8>)
10005b22:	f7fd ff7d 	bl	10003a20 <panic>
10005b26:	0099      	lsls	r1, r3, #2
10005b28:	4817      	ldr	r0, [pc, #92]	; (10005b88 <__aeabi_float_init+0xec>)
10005b2a:	4a09      	ldr	r2, [pc, #36]	; (10005b50 <__aeabi_float_init+0xb4>)
10005b2c:	5088      	str	r0, [r1, r2]
10005b2e:	3301      	adds	r3, #1
10005b30:	2b1f      	cmp	r3, #31
10005b32:	d9f8      	bls.n	10005b26 <__aeabi_float_init+0x8a>
10005b34:	4a14      	ldr	r2, [pc, #80]	; (10005b88 <__aeabi_float_init+0xec>)
10005b36:	4b06      	ldr	r3, [pc, #24]	; (10005b50 <__aeabi_float_init+0xb4>)
10005b38:	621a      	str	r2, [r3, #32]
10005b3a:	61da      	str	r2, [r3, #28]
10005b3c:	e7b7      	b.n	10005aae <__aeabi_float_init+0x12>
10005b3e:	4b13      	ldr	r3, [pc, #76]	; (10005b8c <__aeabi_float_init+0xf0>)
10005b40:	4a13      	ldr	r2, [pc, #76]	; (10005b90 <__aeabi_float_init+0xf4>)
10005b42:	2142      	movs	r1, #66	; 0x42
10005b44:	4813      	ldr	r0, [pc, #76]	; (10005b94 <__aeabi_float_init+0xf8>)
10005b46:	f7fd fed1 	bl	100038ec <__assert_func>
10005b4a:	46c0      	nop			; (mov r8, r8)
10005b4c:	00004653 	.word	0x00004653
10005b50:	20002454 	.word	0x20002454
10005b54:	0000334c 	.word	0x0000334c
10005b58:	20002450 	.word	0x20002450
10005b5c:	000029ee 	.word	0x000029ee
10005b60:	00000fc4 	.word	0x00000fc4
10005b64:	00000dc2 	.word	0x00000dc2
10005b68:	00002b96 	.word	0x00002b96
10005b6c:	0000b5c0 	.word	0x0000b5c0
10005b70:	00002b18 	.word	0x00002b18
10005b74:	00002acc 	.word	0x00002acc
10005b78:	0000b510 	.word	0x0000b510
10005b7c:	00002cfc 	.word	0x00002cfc
10005b80:	6487ed51 	.word	0x6487ed51
10005b84:	1000975c 	.word	0x1000975c
10005b88:	10005cfd 	.word	0x10005cfd
10005b8c:	1000a854 	.word	0x1000a854
10005b90:	1000a8ec 	.word	0x1000a8ec
10005b94:	1000a888 	.word	0x1000a888

10005b98 <frem_0>:
10005b98:	b5f0      	push	{r4, r5, r6, r7, lr}
10005b9a:	46c6      	mov	lr, r8
10005b9c:	b500      	push	{lr}
10005b9e:	0005      	movs	r5, r0
10005ba0:	000f      	movs	r7, r1
10005ba2:	1e16      	subs	r6, r2, #0
10005ba4:	4698      	mov	r8, r3
10005ba6:	dd1b      	ble.n	10005be0 <frem_0+0x48>
10005ba8:	11c9      	asrs	r1, r1, #7
10005baa:	2001      	movs	r0, #1
10005bac:	4240      	negs	r0, r0
10005bae:	f7ff f84b 	bl	10004c48 <__wrap___aeabi_uidiv>
10005bb2:	2200      	movs	r2, #0
10005bb4:	e00e      	b.n	10005bd4 <frem_0+0x3c>
10005bb6:	230c      	movs	r3, #12
10005bb8:	126c      	asrs	r4, r5, #9
10005bba:	4344      	muls	r4, r0
10005bbc:	211d      	movs	r1, #29
10005bbe:	1ac9      	subs	r1, r1, r3
10005bc0:	410c      	asrs	r4, r1
10005bc2:	3401      	adds	r4, #1
10005bc4:	1064      	asrs	r4, r4, #1
10005bc6:	409d      	lsls	r5, r3
10005bc8:	0021      	movs	r1, r4
10005bca:	4379      	muls	r1, r7
10005bcc:	1a6d      	subs	r5, r5, r1
10005bce:	409a      	lsls	r2, r3
10005bd0:	1912      	adds	r2, r2, r4
10005bd2:	1af6      	subs	r6, r6, r3
10005bd4:	2e00      	cmp	r6, #0
10005bd6:	dd05      	ble.n	10005be4 <frem_0+0x4c>
10005bd8:	2e0c      	cmp	r6, #12
10005bda:	dcec      	bgt.n	10005bb6 <frem_0+0x1e>
10005bdc:	0033      	movs	r3, r6
10005bde:	e7eb      	b.n	10005bb8 <frem_0+0x20>
10005be0:	2000      	movs	r0, #0
10005be2:	e7e6      	b.n	10005bb2 <frem_0+0x1a>
10005be4:	42bd      	cmp	r5, r7
10005be6:	db01      	blt.n	10005bec <frem_0+0x54>
10005be8:	1bed      	subs	r5, r5, r7
10005bea:	3201      	adds	r2, #1
10005bec:	42bd      	cmp	r5, r7
10005bee:	db01      	blt.n	10005bf4 <frem_0+0x5c>
10005bf0:	1bed      	subs	r5, r5, r7
10005bf2:	3201      	adds	r2, #1
10005bf4:	2d00      	cmp	r5, #0
10005bf6:	db09      	blt.n	10005c0c <frem_0+0x74>
10005bf8:	2d00      	cmp	r5, #0
10005bfa:	db0a      	blt.n	10005c12 <frem_0+0x7a>
10005bfc:	4643      	mov	r3, r8
10005bfe:	2b00      	cmp	r3, #0
10005c00:	d000      	beq.n	10005c04 <frem_0+0x6c>
10005c02:	601a      	str	r2, [r3, #0]
10005c04:	0028      	movs	r0, r5
10005c06:	bc80      	pop	{r7}
10005c08:	46b8      	mov	r8, r7
10005c0a:	bdf0      	pop	{r4, r5, r6, r7, pc}
10005c0c:	19ed      	adds	r5, r5, r7
10005c0e:	3a01      	subs	r2, #1
10005c10:	e7f2      	b.n	10005bf8 <frem_0+0x60>
10005c12:	19ed      	adds	r5, r5, r7
10005c14:	3a01      	subs	r2, #1
10005c16:	e7f1      	b.n	10005bfc <frem_0+0x64>

10005c18 <__wrap_remquof>:
10005c18:	b5f0      	push	{r4, r5, r6, r7, lr}
10005c1a:	46ce      	mov	lr, r9
10005c1c:	4647      	mov	r7, r8
10005c1e:	b580      	push	{r7, lr}
10005c20:	b083      	sub	sp, #12
10005c22:	0016      	movs	r6, r2
10005c24:	0fc3      	lsrs	r3, r0, #31
10005c26:	4699      	mov	r9, r3
10005c28:	0dc3      	lsrs	r3, r0, #23
10005c2a:	24ff      	movs	r4, #255	; 0xff
10005c2c:	4023      	ands	r3, r4
10005c2e:	0245      	lsls	r5, r0, #9
10005c30:	0a6d      	lsrs	r5, r5, #9
10005c32:	2280      	movs	r2, #128	; 0x80
10005c34:	0412      	lsls	r2, r2, #16
10005c36:	4690      	mov	r8, r2
10005c38:	4315      	orrs	r5, r2
10005c3a:	0fcf      	lsrs	r7, r1, #31
10005c3c:	0dca      	lsrs	r2, r1, #23
10005c3e:	4014      	ands	r4, r2
10005c40:	0249      	lsls	r1, r1, #9
10005c42:	0a49      	lsrs	r1, r1, #9
10005c44:	4642      	mov	r2, r8
10005c46:	430a      	orrs	r2, r1
10005c48:	4690      	mov	r8, r2
10005c4a:	2e00      	cmp	r6, #0
10005c4c:	d001      	beq.n	10005c52 <__wrap_remquof+0x3a>
10005c4e:	2100      	movs	r1, #0
10005c50:	6031      	str	r1, [r6, #0]
10005c52:	2bff      	cmp	r3, #255	; 0xff
10005c54:	d041      	beq.n	10005cda <__wrap_remquof+0xc2>
10005c56:	2c00      	cmp	r4, #0
10005c58:	d042      	beq.n	10005ce0 <__wrap_remquof+0xc8>
10005c5a:	2b00      	cmp	r3, #0
10005c5c:	d047      	beq.n	10005cee <__wrap_remquof+0xd6>
10005c5e:	2cff      	cmp	r4, #255	; 0xff
10005c60:	d040      	beq.n	10005ce4 <__wrap_remquof+0xcc>
10005c62:	1e61      	subs	r1, r4, #1
10005c64:	4299      	cmp	r1, r3
10005c66:	dc3d      	bgt.n	10005ce4 <__wrap_remquof+0xcc>
10005c68:	d023      	beq.n	10005cb2 <__wrap_remquof+0x9a>
10005c6a:	464a      	mov	r2, r9
10005c6c:	2a00      	cmp	r2, #0
10005c6e:	d000      	beq.n	10005c72 <__wrap_remquof+0x5a>
10005c70:	426d      	negs	r5, r5
10005c72:	1b1a      	subs	r2, r3, r4
10005c74:	ab01      	add	r3, sp, #4
10005c76:	4641      	mov	r1, r8
10005c78:	0028      	movs	r0, r5
10005c7a:	f7ff ff8d 	bl	10005b98 <frem_0>
10005c7e:	0043      	lsls	r3, r0, #1
10005c80:	4543      	cmp	r3, r8
10005c82:	dc03      	bgt.n	10005c8c <__wrap_remquof+0x74>
10005c84:	d107      	bne.n	10005c96 <__wrap_remquof+0x7e>
10005c86:	9b01      	ldr	r3, [sp, #4]
10005c88:	07db      	lsls	r3, r3, #31
10005c8a:	d504      	bpl.n	10005c96 <__wrap_remquof+0x7e>
10005c8c:	4643      	mov	r3, r8
10005c8e:	1ac0      	subs	r0, r0, r3
10005c90:	9b01      	ldr	r3, [sp, #4]
10005c92:	3301      	adds	r3, #1
10005c94:	9301      	str	r3, [sp, #4]
10005c96:	2f00      	cmp	r7, #0
10005c98:	d002      	beq.n	10005ca0 <__wrap_remquof+0x88>
10005c9a:	9b01      	ldr	r3, [sp, #4]
10005c9c:	425b      	negs	r3, r3
10005c9e:	9301      	str	r3, [sp, #4]
10005ca0:	2e00      	cmp	r6, #0
10005ca2:	d001      	beq.n	10005ca8 <__wrap_remquof+0x90>
10005ca4:	9b01      	ldr	r3, [sp, #4]
10005ca6:	6033      	str	r3, [r6, #0]
10005ca8:	2196      	movs	r1, #150	; 0x96
10005caa:	1b09      	subs	r1, r1, r4
10005cac:	f7ff febc 	bl	10005a28 <fix2float>
10005cb0:	e018      	b.n	10005ce4 <__wrap_remquof+0xcc>
10005cb2:	4545      	cmp	r5, r8
10005cb4:	dd16      	ble.n	10005ce4 <__wrap_remquof+0xcc>
10005cb6:	464b      	mov	r3, r9
10005cb8:	2b00      	cmp	r3, #0
10005cba:	d106      	bne.n	10005cca <__wrap_remquof+0xb2>
10005cbc:	4643      	mov	r3, r8
10005cbe:	0058      	lsls	r0, r3, #1
10005cc0:	1a28      	subs	r0, r5, r0
10005cc2:	2301      	movs	r3, #1
10005cc4:	9301      	str	r3, [sp, #4]
10005cc6:	000c      	movs	r4, r1
10005cc8:	e7e5      	b.n	10005c96 <__wrap_remquof+0x7e>
10005cca:	4643      	mov	r3, r8
10005ccc:	0058      	lsls	r0, r3, #1
10005cce:	1b40      	subs	r0, r0, r5
10005cd0:	2301      	movs	r3, #1
10005cd2:	425b      	negs	r3, r3
10005cd4:	9301      	str	r3, [sp, #4]
10005cd6:	000c      	movs	r4, r1
10005cd8:	e7dd      	b.n	10005c96 <__wrap_remquof+0x7e>
10005cda:	20ff      	movs	r0, #255	; 0xff
10005cdc:	05c0      	lsls	r0, r0, #23
10005cde:	e001      	b.n	10005ce4 <__wrap_remquof+0xcc>
10005ce0:	20ff      	movs	r0, #255	; 0xff
10005ce2:	05c0      	lsls	r0, r0, #23
10005ce4:	b003      	add	sp, #12
10005ce6:	bcc0      	pop	{r6, r7}
10005ce8:	46b9      	mov	r9, r7
10005cea:	46b0      	mov	r8, r6
10005cec:	bdf0      	pop	{r4, r5, r6, r7, pc}
10005cee:	2000      	movs	r0, #0
10005cf0:	e7f8      	b.n	10005ce4 <__wrap_remquof+0xcc>

10005cf2 <__wrap_remainderf>:
10005cf2:	b510      	push	{r4, lr}
10005cf4:	2200      	movs	r2, #0
10005cf6:	f7ff ff8f 	bl	10005c18 <__wrap_remquof>
10005cfa:	bd10      	pop	{r4, pc}

10005cfc <float_table_shim_on_use_helper>:
10005cfc:	b507      	push	{r0, r1, r2, lr}
10005cfe:	4660      	mov	r0, ip
10005d00:	2800      	cmp	r0, #0
10005d02:	d100      	bne.n	10005d06 <float_table_shim_on_use_helper+0xa>
10005d04:	be00      	bkpt	0x0000
10005d06:	8801      	ldrh	r1, [r0, #0]
10005d08:	0a0a      	lsrs	r2, r1, #8
10005d0a:	3002      	adds	r0, #2
10005d0c:	2adf      	cmp	r2, #223	; 0xdf
10005d0e:	d1fa      	bne.n	10005d06 <float_table_shim_on_use_helper+0xa>
10005d10:	b2c9      	uxtb	r1, r1
10005d12:	0882      	lsrs	r2, r0, #2
10005d14:	d304      	bcc.n	10005d20 <float_table_shim_on_use_helper+0x24>
10005d16:	8802      	ldrh	r2, [r0, #0]
10005d18:	8840      	ldrh	r0, [r0, #2]
10005d1a:	0400      	lsls	r0, r0, #16
10005d1c:	4310      	orrs	r0, r2
10005d1e:	e000      	b.n	10005d22 <float_table_shim_on_use_helper+0x26>
10005d20:	6800      	ldr	r0, [r0, #0]
10005d22:	4a02      	ldr	r2, [pc, #8]	; (10005d2c <float_table_shim_on_use_helper+0x30>)
10005d24:	5050      	str	r0, [r2, r1]
10005d26:	9003      	str	r0, [sp, #12]
10005d28:	bd07      	pop	{r0, r1, r2, pc}
10005d2a:	0000      	.short	0x0000
10005d2c:	20002454 	.word	0x20002454

10005d30 <float2double_shim>:
10005d30:	0fc3      	lsrs	r3, r0, #31
10005d32:	07db      	lsls	r3, r3, #31
10005d34:	0041      	lsls	r1, r0, #1
10005d36:	0e0a      	lsrs	r2, r1, #24
10005d38:	d007      	beq.n	10005d4a <float2double_shim+0x1a>
10005d3a:	2aff      	cmp	r2, #255	; 0xff
10005d3c:	d008      	beq.n	10005d50 <float2double_shim+0x20>
10005d3e:	0909      	lsrs	r1, r1, #4
10005d40:	4a05      	ldr	r2, [pc, #20]	; (10005d58 <float2double_shim+0x28>)
10005d42:	1889      	adds	r1, r1, r2
10005d44:	4319      	orrs	r1, r3
10005d46:	0740      	lsls	r0, r0, #29
10005d48:	4770      	bx	lr
10005d4a:	0019      	movs	r1, r3
10005d4c:	2000      	movs	r0, #0
10005d4e:	4770      	bx	lr
10005d50:	4902      	ldr	r1, [pc, #8]	; (10005d5c <float2double_shim+0x2c>)
10005d52:	18c9      	adds	r1, r1, r3
10005d54:	e7fa      	b.n	10005d4c <float2double_shim+0x1c>
10005d56:	0000      	.short	0x0000
10005d58:	38000000 	.word	0x38000000
10005d5c:	7ff00000 	.word	0x7ff00000

10005d60 <__wrap_malloc>:
10005d60:	b570      	push	{r4, r5, r6, lr}
10005d62:	0004      	movs	r4, r0
10005d64:	4e0a      	ldr	r6, [pc, #40]	; (10005d90 <__wrap_malloc+0x30>)
10005d66:	0030      	movs	r0, r6
10005d68:	f003 fcea 	bl	10009740 <__mutex_enter_blocking_veneer>
10005d6c:	0020      	movs	r0, r4
10005d6e:	f003 f803 	bl	10008d78 <malloc>
10005d72:	0005      	movs	r5, r0
10005d74:	0030      	movs	r0, r6
10005d76:	f003 fc73 	bl	10009660 <__mutex_exit_veneer>
10005d7a:	2d00      	cmp	r5, #0
10005d7c:	d005      	beq.n	10005d8a <__wrap_malloc+0x2a>
10005d7e:	192c      	adds	r4, r5, r4
10005d80:	4b04      	ldr	r3, [pc, #16]	; (10005d94 <__wrap_malloc+0x34>)
10005d82:	429c      	cmp	r4, r3
10005d84:	d801      	bhi.n	10005d8a <__wrap_malloc+0x2a>
10005d86:	0028      	movs	r0, r5
10005d88:	bd70      	pop	{r4, r5, r6, pc}
10005d8a:	4803      	ldr	r0, [pc, #12]	; (10005d98 <__wrap_malloc+0x38>)
10005d8c:	f7fd fe48 	bl	10003a20 <panic>
10005d90:	20001638 	.word	0x20001638
10005d94:	20040000 	.word	0x20040000
10005d98:	1000a900 	.word	0x1000a900

10005d9c <__wrap_free>:
10005d9c:	b570      	push	{r4, r5, r6, lr}
10005d9e:	0004      	movs	r4, r0
10005da0:	4d05      	ldr	r5, [pc, #20]	; (10005db8 <__wrap_free+0x1c>)
10005da2:	0028      	movs	r0, r5
10005da4:	f003 fccc 	bl	10009740 <__mutex_enter_blocking_veneer>
10005da8:	0020      	movs	r0, r4
10005daa:	f002 ffef 	bl	10008d8c <free>
10005dae:	0028      	movs	r0, r5
10005db0:	f003 fc56 	bl	10009660 <__mutex_exit_veneer>
10005db4:	bd70      	pop	{r4, r5, r6, pc}
10005db6:	46c0      	nop			; (mov r8, r8)
10005db8:	20001638 	.word	0x20001638

10005dbc <__aeabi_mem_init>:
10005dbc:	4801      	ldr	r0, [pc, #4]	; (10005dc4 <__aeabi_mem_init+0x8>)
10005dbe:	2104      	movs	r1, #4
10005dc0:	4b01      	ldr	r3, [pc, #4]	; (10005dc8 <__aeabi_mem_init+0xc>)
10005dc2:	4718      	bx	r3
10005dc4:	20000d80 	.word	0x20000d80
10005dc8:	10004bc1 	.word	0x10004bc1

10005dcc <__wrap_memset>:
10005dcc:	4b01      	ldr	r3, [pc, #4]	; (10005dd4 <__wrap_memset+0x8>)
10005dce:	681b      	ldr	r3, [r3, #0]
10005dd0:	4718      	bx	r3
10005dd2:	0000      	.short	0x0000
10005dd4:	20000d80 	.word	0x20000d80

10005dd8 <__wrap___aeabi_memcpy>:
10005dd8:	4b01      	ldr	r3, [pc, #4]	; (10005de0 <__wrap___aeabi_memcpy+0x8>)
10005dda:	685b      	ldr	r3, [r3, #4]
10005ddc:	4718      	bx	r3
10005dde:	0000      	.short	0x0000
10005de0:	20000d80 	.word	0x20000d80

10005de4 <stdio_out_chars_no_crlf>:
10005de4:	b510      	push	{r4, lr}
10005de6:	0003      	movs	r3, r0
10005de8:	0008      	movs	r0, r1
10005dea:	0011      	movs	r1, r2
10005dec:	681b      	ldr	r3, [r3, #0]
10005dee:	4798      	blx	r3
10005df0:	bd10      	pop	{r4, pc}
	...

10005df4 <stdio_out_chars_crlf>:
10005df4:	b5f8      	push	{r3, r4, r5, r6, r7, lr}
10005df6:	0007      	movs	r7, r0
10005df8:	000d      	movs	r5, r1
10005dfa:	0016      	movs	r6, r2
10005dfc:	7d43      	ldrb	r3, [r0, #21]
10005dfe:	2b00      	cmp	r3, #0
10005e00:	d002      	beq.n	10005e08 <stdio_out_chars_crlf+0x14>
10005e02:	2400      	movs	r4, #0
10005e04:	2000      	movs	r0, #0
10005e06:	e00c      	b.n	10005e22 <stdio_out_chars_crlf+0x2e>
10005e08:	6803      	ldr	r3, [r0, #0]
10005e0a:	0011      	movs	r1, r2
10005e0c:	0028      	movs	r0, r5
10005e0e:	4798      	blx	r3
10005e10:	e02d      	b.n	10005e6e <stdio_out_chars_crlf+0x7a>
10005e12:	7d3b      	ldrb	r3, [r7, #20]
10005e14:	e010      	b.n	10005e38 <stdio_out_chars_crlf+0x44>
10005e16:	2102      	movs	r1, #2
10005e18:	4815      	ldr	r0, [pc, #84]	; (10005e70 <stdio_out_chars_crlf+0x7c>)
10005e1a:	683b      	ldr	r3, [r7, #0]
10005e1c:	4798      	blx	r3
10005e1e:	1c60      	adds	r0, r4, #1
10005e20:	3401      	adds	r4, #1
10005e22:	42b4      	cmp	r4, r6
10005e24:	da14      	bge.n	10005e50 <stdio_out_chars_crlf+0x5c>
10005e26:	2c00      	cmp	r4, #0
10005e28:	ddf3      	ble.n	10005e12 <stdio_out_chars_crlf+0x1e>
10005e2a:	192b      	adds	r3, r5, r4
10005e2c:	3b01      	subs	r3, #1
10005e2e:	781b      	ldrb	r3, [r3, #0]
10005e30:	3b0d      	subs	r3, #13
10005e32:	425a      	negs	r2, r3
10005e34:	4153      	adcs	r3, r2
10005e36:	b2db      	uxtb	r3, r3
10005e38:	5d2a      	ldrb	r2, [r5, r4]
10005e3a:	2a0a      	cmp	r2, #10
10005e3c:	d1f0      	bne.n	10005e20 <stdio_out_chars_crlf+0x2c>
10005e3e:	2b00      	cmp	r3, #0
10005e40:	d1ee      	bne.n	10005e20 <stdio_out_chars_crlf+0x2c>
10005e42:	42a0      	cmp	r0, r4
10005e44:	dae7      	bge.n	10005e16 <stdio_out_chars_crlf+0x22>
10005e46:	1a21      	subs	r1, r4, r0
10005e48:	1828      	adds	r0, r5, r0
10005e4a:	683b      	ldr	r3, [r7, #0]
10005e4c:	4798      	blx	r3
10005e4e:	e7e2      	b.n	10005e16 <stdio_out_chars_crlf+0x22>
10005e50:	42b0      	cmp	r0, r6
10005e52:	da03      	bge.n	10005e5c <stdio_out_chars_crlf+0x68>
10005e54:	1a31      	subs	r1, r6, r0
10005e56:	1828      	adds	r0, r5, r0
10005e58:	683b      	ldr	r3, [r7, #0]
10005e5a:	4798      	blx	r3
10005e5c:	2e00      	cmp	r6, #0
10005e5e:	dd06      	ble.n	10005e6e <stdio_out_chars_crlf+0x7a>
10005e60:	19ad      	adds	r5, r5, r6
10005e62:	3d01      	subs	r5, #1
10005e64:	782b      	ldrb	r3, [r5, #0]
10005e66:	3b0d      	subs	r3, #13
10005e68:	425a      	negs	r2, r3
10005e6a:	4153      	adcs	r3, r2
10005e6c:	753b      	strb	r3, [r7, #20]
10005e6e:	bdf8      	pop	{r3, r4, r5, r6, r7, pc}
10005e70:	1000a990 	.word	0x1000a990

10005e74 <stdio_stack_buffer_flush>:
10005e74:	b570      	push	{r4, r5, r6, lr}
10005e76:	0005      	movs	r5, r0
10005e78:	6803      	ldr	r3, [r0, #0]
10005e7a:	2b00      	cmp	r3, #0
10005e7c:	d016      	beq.n	10005eac <stdio_stack_buffer_flush+0x38>
10005e7e:	4b0c      	ldr	r3, [pc, #48]	; (10005eb0 <stdio_stack_buffer_flush+0x3c>)
10005e80:	681c      	ldr	r4, [r3, #0]
10005e82:	e005      	b.n	10005e90 <stdio_stack_buffer_flush+0x1c>
10005e84:	0029      	movs	r1, r5
10005e86:	c904      	ldmia	r1!, {r2}
10005e88:	0020      	movs	r0, r4
10005e8a:	f7ff ffb3 	bl	10005df4 <stdio_out_chars_crlf>
10005e8e:	6924      	ldr	r4, [r4, #16]
10005e90:	2c00      	cmp	r4, #0
10005e92:	d009      	beq.n	10005ea8 <stdio_stack_buffer_flush+0x34>
10005e94:	6823      	ldr	r3, [r4, #0]
10005e96:	2b00      	cmp	r3, #0
10005e98:	d0f9      	beq.n	10005e8e <stdio_stack_buffer_flush+0x1a>
10005e9a:	4b06      	ldr	r3, [pc, #24]	; (10005eb4 <stdio_stack_buffer_flush+0x40>)
10005e9c:	681b      	ldr	r3, [r3, #0]
10005e9e:	2b00      	cmp	r3, #0
10005ea0:	d0f0      	beq.n	10005e84 <stdio_stack_buffer_flush+0x10>
10005ea2:	42a3      	cmp	r3, r4
10005ea4:	d1f3      	bne.n	10005e8e <stdio_stack_buffer_flush+0x1a>
10005ea6:	e7ed      	b.n	10005e84 <stdio_stack_buffer_flush+0x10>
10005ea8:	2300      	movs	r3, #0
10005eaa:	602b      	str	r3, [r5, #0]
10005eac:	bd70      	pop	{r4, r5, r6, pc}
10005eae:	46c0      	nop			; (mov r8, r8)
10005eb0:	20001efc 	.word	0x20001efc
10005eb4:	20001f08 	.word	0x20001f08

10005eb8 <stdio_buffered_printer>:
10005eb8:	b570      	push	{r4, r5, r6, lr}
10005eba:	0005      	movs	r5, r0
10005ebc:	000c      	movs	r4, r1
10005ebe:	680b      	ldr	r3, [r1, #0]
10005ec0:	2b80      	cmp	r3, #128	; 0x80
10005ec2:	d005      	beq.n	10005ed0 <stdio_buffered_printer+0x18>
10005ec4:	6821      	ldr	r1, [r4, #0]
10005ec6:	1c4b      	adds	r3, r1, #1
10005ec8:	6023      	str	r3, [r4, #0]
10005eca:	1864      	adds	r4, r4, r1
10005ecc:	7125      	strb	r5, [r4, #4]
10005ece:	bd70      	pop	{r4, r5, r6, pc}
10005ed0:	0008      	movs	r0, r1
10005ed2:	f7ff ffcf 	bl	10005e74 <stdio_stack_buffer_flush>
10005ed6:	e7f5      	b.n	10005ec4 <stdio_buffered_printer+0xc>

10005ed8 <stdout_serialize_begin>:
10005ed8:	b510      	push	{r4, lr}
10005eda:	f7fc feaf 	bl	10002c3c <time_us_64>
10005ede:	0002      	movs	r2, r0
10005ee0:	1e0b      	subs	r3, r1, #0
10005ee2:	db0b      	blt.n	10005efc <stdout_serialize_begin+0x24>
10005ee4:	480d      	ldr	r0, [pc, #52]	; (10005f1c <stdout_serialize_begin+0x44>)
10005ee6:	2100      	movs	r1, #0
10005ee8:	1812      	adds	r2, r2, r0
10005eea:	414b      	adcs	r3, r1
10005eec:	2b00      	cmp	r3, #0
10005eee:	db0b      	blt.n	10005f08 <stdout_serialize_begin+0x30>
10005ef0:	2b00      	cmp	r3, #0
10005ef2:	db0d      	blt.n	10005f10 <stdout_serialize_begin+0x38>
10005ef4:	480a      	ldr	r0, [pc, #40]	; (10005f20 <stdout_serialize_begin+0x48>)
10005ef6:	f003 fc03 	bl	10009700 <__mutex_try_enter_block_until_veneer>
10005efa:	bd10      	pop	{r4, pc}
10005efc:	4b09      	ldr	r3, [pc, #36]	; (10005f24 <stdout_serialize_begin+0x4c>)
10005efe:	4a0a      	ldr	r2, [pc, #40]	; (10005f28 <stdout_serialize_begin+0x50>)
10005f00:	213f      	movs	r1, #63	; 0x3f
10005f02:	480a      	ldr	r0, [pc, #40]	; (10005f2c <stdout_serialize_begin+0x54>)
10005f04:	f7fd fcf2 	bl	100038ec <__assert_func>
10005f08:	2201      	movs	r2, #1
10005f0a:	4252      	negs	r2, r2
10005f0c:	4b08      	ldr	r3, [pc, #32]	; (10005f30 <stdout_serialize_begin+0x58>)
10005f0e:	e7ef      	b.n	10005ef0 <stdout_serialize_begin+0x18>
10005f10:	4b04      	ldr	r3, [pc, #16]	; (10005f24 <stdout_serialize_begin+0x4c>)
10005f12:	4a05      	ldr	r2, [pc, #20]	; (10005f28 <stdout_serialize_begin+0x50>)
10005f14:	213f      	movs	r1, #63	; 0x3f
10005f16:	4805      	ldr	r0, [pc, #20]	; (10005f2c <stdout_serialize_begin+0x54>)
10005f18:	f7fd fce8 	bl	100038ec <__assert_func>
10005f1c:	000f4240 	.word	0x000f4240
10005f20:	20001640 	.word	0x20001640
10005f24:	10009c30 	.word	0x10009c30
10005f28:	1000a978 	.word	0x1000a978
10005f2c:	10009c4c 	.word	0x10009c4c
10005f30:	7fffffff 	.word	0x7fffffff

10005f34 <stdout_serialize_end>:
10005f34:	b510      	push	{r4, lr}
10005f36:	4802      	ldr	r0, [pc, #8]	; (10005f40 <stdout_serialize_end+0xc>)
10005f38:	f003 fb92 	bl	10009660 <__mutex_exit_veneer>
10005f3c:	bd10      	pop	{r4, pc}
10005f3e:	46c0      	nop			; (mov r8, r8)
10005f40:	20001640 	.word	0x20001640

10005f44 <stdio_put_string>:
10005f44:	b5f0      	push	{r4, r5, r6, r7, lr}
10005f46:	46ce      	mov	lr, r9
10005f48:	4647      	mov	r7, r8
10005f4a:	b580      	push	{r7, lr}
10005f4c:	b083      	sub	sp, #12
10005f4e:	0006      	movs	r6, r0
10005f50:	000d      	movs	r5, r1
10005f52:	4690      	mov	r8, r2
10005f54:	001c      	movs	r4, r3
10005f56:	f7ff ffbf 	bl	10005ed8 <stdout_serialize_begin>
10005f5a:	4681      	mov	r9, r0
10005f5c:	1c6b      	adds	r3, r5, #1
10005f5e:	d005      	beq.n	10005f6c <stdio_put_string+0x28>
10005f60:	2c00      	cmp	r4, #0
10005f62:	d008      	beq.n	10005f76 <stdio_put_string+0x32>
10005f64:	4f19      	ldr	r7, [pc, #100]	; (10005fcc <stdio_put_string+0x88>)
10005f66:	4b1a      	ldr	r3, [pc, #104]	; (10005fd0 <stdio_put_string+0x8c>)
10005f68:	681c      	ldr	r4, [r3, #0]
10005f6a:	e007      	b.n	10005f7c <stdio_put_string+0x38>
10005f6c:	0030      	movs	r0, r6
10005f6e:	f003 fa03 	bl	10009378 <strlen>
10005f72:	0005      	movs	r5, r0
10005f74:	e7f4      	b.n	10005f60 <stdio_put_string+0x1c>
10005f76:	4f17      	ldr	r7, [pc, #92]	; (10005fd4 <stdio_put_string+0x90>)
10005f78:	e7f5      	b.n	10005f66 <stdio_put_string+0x22>
10005f7a:	6924      	ldr	r4, [r4, #16]
10005f7c:	2c00      	cmp	r4, #0
10005f7e:	d017      	beq.n	10005fb0 <stdio_put_string+0x6c>
10005f80:	6823      	ldr	r3, [r4, #0]
10005f82:	2b00      	cmp	r3, #0
10005f84:	d0f9      	beq.n	10005f7a <stdio_put_string+0x36>
10005f86:	4b14      	ldr	r3, [pc, #80]	; (10005fd8 <stdio_put_string+0x94>)
10005f88:	681b      	ldr	r3, [r3, #0]
10005f8a:	2b00      	cmp	r3, #0
10005f8c:	d001      	beq.n	10005f92 <stdio_put_string+0x4e>
10005f8e:	42a3      	cmp	r3, r4
10005f90:	d1f3      	bne.n	10005f7a <stdio_put_string+0x36>
10005f92:	002a      	movs	r2, r5
10005f94:	0031      	movs	r1, r6
10005f96:	0020      	movs	r0, r4
10005f98:	47b8      	blx	r7
10005f9a:	4643      	mov	r3, r8
10005f9c:	2b00      	cmp	r3, #0
10005f9e:	d0ec      	beq.n	10005f7a <stdio_put_string+0x36>
10005fa0:	466b      	mov	r3, sp
10005fa2:	1dd9      	adds	r1, r3, #7
10005fa4:	230a      	movs	r3, #10
10005fa6:	700b      	strb	r3, [r1, #0]
10005fa8:	2201      	movs	r2, #1
10005faa:	0020      	movs	r0, r4
10005fac:	47b8      	blx	r7
10005fae:	e7e4      	b.n	10005f7a <stdio_put_string+0x36>
10005fb0:	464b      	mov	r3, r9
10005fb2:	2b00      	cmp	r3, #0
10005fb4:	d107      	bne.n	10005fc6 <stdio_put_string+0x82>
10005fb6:	1e6b      	subs	r3, r5, #1
10005fb8:	419d      	sbcs	r5, r3
10005fba:	b2e8      	uxtb	r0, r5
10005fbc:	b003      	add	sp, #12
10005fbe:	bcc0      	pop	{r6, r7}
10005fc0:	46b9      	mov	r9, r7
10005fc2:	46b0      	mov	r8, r6
10005fc4:	bdf0      	pop	{r4, r5, r6, r7, pc}
10005fc6:	f7ff ffb5 	bl	10005f34 <stdout_serialize_end>
10005fca:	e7f4      	b.n	10005fb6 <stdio_put_string+0x72>
10005fcc:	10005de5 	.word	0x10005de5
10005fd0:	20001efc 	.word	0x20001efc
10005fd4:	10005df5 	.word	0x10005df5
10005fd8:	20001f08 	.word	0x20001f08

10005fdc <stdio_set_driver_enabled>:
10005fdc:	4a09      	ldr	r2, [pc, #36]	; (10006004 <stdio_set_driver_enabled+0x28>)
10005fde:	e001      	b.n	10005fe4 <stdio_set_driver_enabled+0x8>
10005fe0:	3310      	adds	r3, #16
10005fe2:	001a      	movs	r2, r3
10005fe4:	6813      	ldr	r3, [r2, #0]
10005fe6:	2b00      	cmp	r3, #0
10005fe8:	d008      	beq.n	10005ffc <stdio_set_driver_enabled+0x20>
10005fea:	4283      	cmp	r3, r0
10005fec:	d1f8      	bne.n	10005fe0 <stdio_set_driver_enabled+0x4>
10005fee:	2900      	cmp	r1, #0
10005ff0:	d107      	bne.n	10006002 <stdio_set_driver_enabled+0x26>
10005ff2:	6903      	ldr	r3, [r0, #16]
10005ff4:	6013      	str	r3, [r2, #0]
10005ff6:	2300      	movs	r3, #0
10005ff8:	6103      	str	r3, [r0, #16]
10005ffa:	e002      	b.n	10006002 <stdio_set_driver_enabled+0x26>
10005ffc:	2900      	cmp	r1, #0
10005ffe:	d000      	beq.n	10006002 <stdio_set_driver_enabled+0x26>
10006000:	6010      	str	r0, [r2, #0]
10006002:	4770      	bx	lr
10006004:	20001efc 	.word	0x20001efc

10006008 <stdio_flush>:
10006008:	b510      	push	{r4, lr}
1000600a:	4b06      	ldr	r3, [pc, #24]	; (10006024 <stdio_flush+0x1c>)
1000600c:	681c      	ldr	r4, [r3, #0]
1000600e:	e001      	b.n	10006014 <stdio_flush+0xc>
10006010:	4798      	blx	r3
10006012:	6924      	ldr	r4, [r4, #16]
10006014:	2c00      	cmp	r4, #0
10006016:	d003      	beq.n	10006020 <stdio_flush+0x18>
10006018:	6863      	ldr	r3, [r4, #4]
1000601a:	2b00      	cmp	r3, #0
1000601c:	d1f8      	bne.n	10006010 <stdio_flush+0x8>
1000601e:	e7f8      	b.n	10006012 <stdio_flush+0xa>
10006020:	bd10      	pop	{r4, pc}
10006022:	46c0      	nop			; (mov r8, r8)
10006024:	20001efc 	.word	0x20001efc

10006028 <__wrap_puts>:
10006028:	b570      	push	{r4, r5, r6, lr}
1000602a:	0005      	movs	r5, r0
1000602c:	f003 f9a4 	bl	10009378 <strlen>
10006030:	0004      	movs	r4, r0
10006032:	2300      	movs	r3, #0
10006034:	2201      	movs	r2, #1
10006036:	0001      	movs	r1, r0
10006038:	0028      	movs	r0, r5
1000603a:	f7ff ff83 	bl	10005f44 <stdio_put_string>
1000603e:	f7ff ffe3 	bl	10006008 <stdio_flush>
10006042:	0020      	movs	r0, r4
10006044:	bd70      	pop	{r4, r5, r6, pc}
	...

10006048 <__wrap_vprintf>:
10006048:	b570      	push	{r4, r5, r6, lr}
1000604a:	b0a2      	sub	sp, #136	; 0x88
1000604c:	0004      	movs	r4, r0
1000604e:	000e      	movs	r6, r1
10006050:	f7ff ff42 	bl	10005ed8 <stdout_serialize_begin>
10006054:	0005      	movs	r5, r0
10006056:	2300      	movs	r3, #0
10006058:	9301      	str	r3, [sp, #4]
1000605a:	0033      	movs	r3, r6
1000605c:	0022      	movs	r2, r4
1000605e:	a901      	add	r1, sp, #4
10006060:	4808      	ldr	r0, [pc, #32]	; (10006084 <__wrap_vprintf+0x3c>)
10006062:	f7fe fd85 	bl	10004b70 <vfctprintf>
10006066:	0004      	movs	r4, r0
10006068:	a801      	add	r0, sp, #4
1000606a:	f7ff ff03 	bl	10005e74 <stdio_stack_buffer_flush>
1000606e:	f7ff ffcb 	bl	10006008 <stdio_flush>
10006072:	2d00      	cmp	r5, #0
10006074:	d102      	bne.n	1000607c <__wrap_vprintf+0x34>
10006076:	0020      	movs	r0, r4
10006078:	b022      	add	sp, #136	; 0x88
1000607a:	bd70      	pop	{r4, r5, r6, pc}
1000607c:	f7ff ff5a 	bl	10005f34 <stdout_serialize_end>
10006080:	e7f9      	b.n	10006076 <__wrap_vprintf+0x2e>
10006082:	46c0      	nop			; (mov r8, r8)
10006084:	10005eb9 	.word	0x10005eb9

10006088 <__wrap_printf>:
10006088:	b40f      	push	{r0, r1, r2, r3}
1000608a:	b500      	push	{lr}
1000608c:	b083      	sub	sp, #12
1000608e:	a904      	add	r1, sp, #16
10006090:	c901      	ldmia	r1!, {r0}
10006092:	9101      	str	r1, [sp, #4]
10006094:	f7ff ffd8 	bl	10006048 <__wrap_vprintf>
10006098:	b003      	add	sp, #12
1000609a:	bc08      	pop	{r3}
1000609c:	b004      	add	sp, #16
1000609e:	4718      	bx	r3

100060a0 <stdio_init_all>:
100060a0:	b510      	push	{r4, lr}
100060a2:	f000 f8fb 	bl	1000629c <stdio_uart_init>
100060a6:	f000 fa43 	bl	10006530 <stdio_usb_init>
100060aa:	2001      	movs	r0, #1
100060ac:	bd10      	pop	{r4, pc}
	...

100060b0 <stdio_uart_out_chars>:
100060b0:	b5f0      	push	{r4, r5, r6, r7, lr}
100060b2:	b083      	sub	sp, #12
100060b4:	0005      	movs	r5, r0
100060b6:	000e      	movs	r6, r1
100060b8:	2400      	movs	r4, #0
100060ba:	e00f      	b.n	100060dc <stdio_uart_out_chars+0x2c>
100060bc:	466b      	mov	r3, sp
100060be:	1dd9      	adds	r1, r3, #7
100060c0:	230d      	movs	r3, #13
100060c2:	700b      	strb	r3, [r1, #0]
100060c4:	2000      	movs	r0, #0
100060c6:	2800      	cmp	r0, #0
100060c8:	d116      	bne.n	100060f8 <stdio_uart_out_chars+0x48>
100060ca:	6993      	ldr	r3, [r2, #24]
100060cc:	069b      	lsls	r3, r3, #26
100060ce:	d4fc      	bmi.n	100060ca <stdio_uart_out_chars+0x1a>
100060d0:	780b      	ldrb	r3, [r1, #0]
100060d2:	6013      	str	r3, [r2, #0]
100060d4:	3001      	adds	r0, #1
100060d6:	3101      	adds	r1, #1
100060d8:	e7f5      	b.n	100060c6 <stdio_uart_out_chars+0x16>
100060da:	3401      	adds	r4, #1
100060dc:	42b4      	cmp	r4, r6
100060de:	da19      	bge.n	10006114 <stdio_uart_out_chars+0x64>
100060e0:	4b0d      	ldr	r3, [pc, #52]	; (10006118 <stdio_uart_out_chars+0x68>)
100060e2:	681a      	ldr	r2, [r3, #0]
100060e4:	5d2f      	ldrb	r7, [r5, r4]
100060e6:	4b0d      	ldr	r3, [pc, #52]	; (1000611c <stdio_uart_out_chars+0x6c>)
100060e8:	18d3      	adds	r3, r2, r3
100060ea:	4259      	negs	r1, r3
100060ec:	414b      	adcs	r3, r1
100060ee:	005b      	lsls	r3, r3, #1
100060f0:	490b      	ldr	r1, [pc, #44]	; (10006120 <stdio_uart_out_chars+0x70>)
100060f2:	5e5b      	ldrsh	r3, [r3, r1]
100060f4:	42bb      	cmp	r3, r7
100060f6:	d0e1      	beq.n	100060bc <stdio_uart_out_chars+0xc>
100060f8:	466b      	mov	r3, sp
100060fa:	1dd9      	adds	r1, r3, #7
100060fc:	700f      	strb	r7, [r1, #0]
100060fe:	2000      	movs	r0, #0
10006100:	2800      	cmp	r0, #0
10006102:	d1ea      	bne.n	100060da <stdio_uart_out_chars+0x2a>
10006104:	6993      	ldr	r3, [r2, #24]
10006106:	069b      	lsls	r3, r3, #26
10006108:	d4fc      	bmi.n	10006104 <stdio_uart_out_chars+0x54>
1000610a:	780b      	ldrb	r3, [r1, #0]
1000610c:	6013      	str	r3, [r2, #0]
1000610e:	3001      	adds	r0, #1
10006110:	3101      	adds	r1, #1
10006112:	e7f5      	b.n	10006100 <stdio_uart_out_chars+0x50>
10006114:	b003      	add	sp, #12
10006116:	bdf0      	pop	{r4, r5, r6, r7, pc}
10006118:	20002574 	.word	0x20002574
1000611c:	bffc8000 	.word	0xbffc8000
10006120:	20002570 	.word	0x20002570

10006124 <stdio_uart_in_chars>:
10006124:	b5f0      	push	{r4, r5, r6, r7, lr}
10006126:	b083      	sub	sp, #12
10006128:	0006      	movs	r6, r0
1000612a:	000f      	movs	r7, r1
1000612c:	2500      	movs	r5, #0
1000612e:	e004      	b.n	1000613a <stdio_uart_in_chars+0x16>
10006130:	466b      	mov	r3, sp
10006132:	3307      	adds	r3, #7
10006134:	781b      	ldrb	r3, [r3, #0]
10006136:	702b      	strb	r3, [r5, #0]
10006138:	0025      	movs	r5, r4
1000613a:	42bd      	cmp	r5, r7
1000613c:	da15      	bge.n	1000616a <stdio_uart_in_chars+0x46>
1000613e:	4b17      	ldr	r3, [pc, #92]	; (1000619c <stdio_uart_in_chars+0x78>)
10006140:	681a      	ldr	r2, [r3, #0]
10006142:	6993      	ldr	r3, [r2, #24]
10006144:	2410      	movs	r4, #16
10006146:	0021      	movs	r1, r4
10006148:	4019      	ands	r1, r3
1000614a:	421c      	tst	r4, r3
1000614c:	d10d      	bne.n	1000616a <stdio_uart_in_chars+0x46>
1000614e:	1c6c      	adds	r4, r5, #1
10006150:	1975      	adds	r5, r6, r5
10006152:	466b      	mov	r3, sp
10006154:	1dd8      	adds	r0, r3, #7
10006156:	2900      	cmp	r1, #0
10006158:	d1ea      	bne.n	10006130 <stdio_uart_in_chars+0xc>
1000615a:	6993      	ldr	r3, [r2, #24]
1000615c:	06db      	lsls	r3, r3, #27
1000615e:	d4fc      	bmi.n	1000615a <stdio_uart_in_chars+0x36>
10006160:	6813      	ldr	r3, [r2, #0]
10006162:	7003      	strb	r3, [r0, #0]
10006164:	3101      	adds	r1, #1
10006166:	3001      	adds	r0, #1
10006168:	e7f5      	b.n	10006156 <stdio_uart_in_chars+0x32>
1000616a:	4b0d      	ldr	r3, [pc, #52]	; (100061a0 <stdio_uart_in_chars+0x7c>)
1000616c:	681b      	ldr	r3, [r3, #0]
1000616e:	2b00      	cmp	r3, #0
10006170:	d00c      	beq.n	1000618c <stdio_uart_in_chars+0x68>
10006172:	4b0a      	ldr	r3, [pc, #40]	; (1000619c <stdio_uart_in_chars+0x78>)
10006174:	681a      	ldr	r2, [r3, #0]
10006176:	2350      	movs	r3, #80	; 0x50
10006178:	6393      	str	r3, [r2, #56]	; 0x38
1000617a:	0011      	movs	r1, r2
1000617c:	3134      	adds	r1, #52	; 0x34
1000617e:	6b53      	ldr	r3, [r2, #52]	; 0x34
10006180:	2238      	movs	r2, #56	; 0x38
10006182:	401a      	ands	r2, r3
10006184:	2380      	movs	r3, #128	; 0x80
10006186:	015b      	lsls	r3, r3, #5
10006188:	430b      	orrs	r3, r1
1000618a:	601a      	str	r2, [r3, #0]
1000618c:	2d00      	cmp	r5, #0
1000618e:	d002      	beq.n	10006196 <stdio_uart_in_chars+0x72>
10006190:	0028      	movs	r0, r5
10006192:	b003      	add	sp, #12
10006194:	bdf0      	pop	{r4, r5, r6, r7, pc}
10006196:	3d03      	subs	r5, #3
10006198:	e7fa      	b.n	10006190 <stdio_uart_in_chars+0x6c>
1000619a:	46c0      	nop			; (mov r8, r8)
1000619c:	20002574 	.word	0x20002574
100061a0:	20001e58 	.word	0x20001e58

100061a4 <on_uart_rx>:
100061a4:	b510      	push	{r4, lr}
100061a6:	4b06      	ldr	r3, [pc, #24]	; (100061c0 <on_uart_rx+0x1c>)
100061a8:	681b      	ldr	r3, [r3, #0]
100061aa:	2b00      	cmp	r3, #0
100061ac:	d006      	beq.n	100061bc <on_uart_rx+0x18>
100061ae:	4a05      	ldr	r2, [pc, #20]	; (100061c4 <on_uart_rx+0x20>)
100061b0:	6812      	ldr	r2, [r2, #0]
100061b2:	2100      	movs	r1, #0
100061b4:	6391      	str	r1, [r2, #56]	; 0x38
100061b6:	4a04      	ldr	r2, [pc, #16]	; (100061c8 <on_uart_rx+0x24>)
100061b8:	6810      	ldr	r0, [r2, #0]
100061ba:	4798      	blx	r3
100061bc:	bd10      	pop	{r4, pc}
100061be:	46c0      	nop			; (mov r8, r8)
100061c0:	20001e58 	.word	0x20001e58
100061c4:	20002574 	.word	0x20002574
100061c8:	20001e60 	.word	0x20001e60

100061cc <stdio_uart_set_chars_available_callback>:
100061cc:	b570      	push	{r4, r5, r6, lr}
100061ce:	0004      	movs	r4, r0
100061d0:	000e      	movs	r6, r1
100061d2:	4b1c      	ldr	r3, [pc, #112]	; (10006244 <stdio_uart_set_chars_available_callback+0x78>)
100061d4:	681b      	ldr	r3, [r3, #0]
100061d6:	4a1c      	ldr	r2, [pc, #112]	; (10006248 <stdio_uart_set_chars_available_callback+0x7c>)
100061d8:	1898      	adds	r0, r3, r2
100061da:	4242      	negs	r2, r0
100061dc:	4150      	adcs	r0, r2
100061de:	3014      	adds	r0, #20
100061e0:	0005      	movs	r5, r0
100061e2:	2c00      	cmp	r4, #0
100061e4:	d003      	beq.n	100061ee <stdio_uart_set_chars_available_callback+0x22>
100061e6:	4a19      	ldr	r2, [pc, #100]	; (1000624c <stdio_uart_set_chars_available_callback+0x80>)
100061e8:	6812      	ldr	r2, [r2, #0]
100061ea:	2a00      	cmp	r2, #0
100061ec:	d006      	beq.n	100061fc <stdio_uart_set_chars_available_callback+0x30>
100061ee:	2c00      	cmp	r4, #0
100061f0:	d019      	beq.n	10006226 <stdio_uart_set_chars_available_callback+0x5a>
100061f2:	4b16      	ldr	r3, [pc, #88]	; (1000624c <stdio_uart_set_chars_available_callback+0x80>)
100061f4:	601c      	str	r4, [r3, #0]
100061f6:	4b16      	ldr	r3, [pc, #88]	; (10006250 <stdio_uart_set_chars_available_callback+0x84>)
100061f8:	601e      	str	r6, [r3, #0]
100061fa:	bd70      	pop	{r4, r5, r6, pc}
100061fc:	4915      	ldr	r1, [pc, #84]	; (10006254 <stdio_uart_set_chars_available_callback+0x88>)
100061fe:	f7fb fc1b 	bl	10001a38 <irq_set_exclusive_handler>
10006202:	2101      	movs	r1, #1
10006204:	0028      	movs	r0, r5
10006206:	f7fb fbed 	bl	100019e4 <irq_set_enabled>
1000620a:	4b0e      	ldr	r3, [pc, #56]	; (10006244 <stdio_uart_set_chars_available_callback+0x78>)
1000620c:	681a      	ldr	r2, [r3, #0]
1000620e:	2350      	movs	r3, #80	; 0x50
10006210:	6393      	str	r3, [r2, #56]	; 0x38
10006212:	0011      	movs	r1, r2
10006214:	3134      	adds	r1, #52	; 0x34
10006216:	6b53      	ldr	r3, [r2, #52]	; 0x34
10006218:	2238      	movs	r2, #56	; 0x38
1000621a:	401a      	ands	r2, r3
1000621c:	2380      	movs	r3, #128	; 0x80
1000621e:	015b      	lsls	r3, r3, #5
10006220:	430b      	orrs	r3, r1
10006222:	601a      	str	r2, [r3, #0]
10006224:	e7e5      	b.n	100061f2 <stdio_uart_set_chars_available_callback+0x26>
10006226:	4a09      	ldr	r2, [pc, #36]	; (1000624c <stdio_uart_set_chars_available_callback+0x80>)
10006228:	6812      	ldr	r2, [r2, #0]
1000622a:	2a00      	cmp	r2, #0
1000622c:	d0e1      	beq.n	100061f2 <stdio_uart_set_chars_available_callback+0x26>
1000622e:	2200      	movs	r2, #0
10006230:	639a      	str	r2, [r3, #56]	; 0x38
10006232:	2100      	movs	r1, #0
10006234:	0028      	movs	r0, r5
10006236:	f7fb fbd5 	bl	100019e4 <irq_set_enabled>
1000623a:	4906      	ldr	r1, [pc, #24]	; (10006254 <stdio_uart_set_chars_available_callback+0x88>)
1000623c:	0028      	movs	r0, r5
1000623e:	f7fb fd3f 	bl	10001cc0 <irq_remove_handler>
10006242:	e7d6      	b.n	100061f2 <stdio_uart_set_chars_available_callback+0x26>
10006244:	20002574 	.word	0x20002574
10006248:	bffc8000 	.word	0xbffc8000
1000624c:	20001e58 	.word	0x20001e58
10006250:	20001e60 	.word	0x20001e60
10006254:	100061a5 	.word	0x100061a5

10006258 <stdio_uart_init_full>:
10006258:	b570      	push	{r4, r5, r6, lr}
1000625a:	000d      	movs	r5, r1
1000625c:	001c      	movs	r4, r3
1000625e:	4b0d      	ldr	r3, [pc, #52]	; (10006294 <stdio_uart_init_full+0x3c>)
10006260:	6018      	str	r0, [r3, #0]
10006262:	2a00      	cmp	r2, #0
10006264:	da0b      	bge.n	1000627e <stdio_uart_init_full+0x26>
10006266:	2c00      	cmp	r4, #0
10006268:	da0e      	bge.n	10006288 <stdio_uart_init_full+0x30>
1000626a:	4b0a      	ldr	r3, [pc, #40]	; (10006294 <stdio_uart_init_full+0x3c>)
1000626c:	6818      	ldr	r0, [r3, #0]
1000626e:	0029      	movs	r1, r5
10006270:	f7fd f8ba 	bl	100033e8 <uart_init>
10006274:	2101      	movs	r1, #1
10006276:	4808      	ldr	r0, [pc, #32]	; (10006298 <stdio_uart_init_full+0x40>)
10006278:	f7ff feb0 	bl	10005fdc <stdio_set_driver_enabled>
1000627c:	bd70      	pop	{r4, r5, r6, pc}
1000627e:	2102      	movs	r1, #2
10006280:	0010      	movs	r0, r2
10006282:	f7fb fa79 	bl	10001778 <gpio_set_function>
10006286:	e7ee      	b.n	10006266 <stdio_uart_init_full+0xe>
10006288:	2102      	movs	r1, #2
1000628a:	0020      	movs	r0, r4
1000628c:	f7fb fa74 	bl	10001778 <gpio_set_function>
10006290:	e7eb      	b.n	1000626a <stdio_uart_init_full+0x12>
10006292:	46c0      	nop			; (mov r8, r8)
10006294:	20002574 	.word	0x20002574
10006298:	20000d90 	.word	0x20000d90

1000629c <stdio_uart_init>:
1000629c:	b510      	push	{r4, lr}
1000629e:	4b06      	ldr	r3, [pc, #24]	; (100062b8 <stdio_uart_init+0x1c>)
100062a0:	781b      	ldrb	r3, [r3, #0]
100062a2:	4b06      	ldr	r3, [pc, #24]	; (100062bc <stdio_uart_init+0x20>)
100062a4:	781b      	ldrb	r3, [r3, #0]
100062a6:	21e1      	movs	r1, #225	; 0xe1
100062a8:	2301      	movs	r3, #1
100062aa:	2200      	movs	r2, #0
100062ac:	0249      	lsls	r1, r1, #9
100062ae:	4804      	ldr	r0, [pc, #16]	; (100062c0 <stdio_uart_init+0x24>)
100062b0:	f7ff ffd2 	bl	10006258 <stdio_uart_init_full>
100062b4:	bd10      	pop	{r4, pc}
100062b6:	46c0      	nop			; (mov r8, r8)
100062b8:	1000b1dc 	.word	0x1000b1dc
100062bc:	1000b1e0 	.word	0x1000b1e0
100062c0:	40034000 	.word	0x40034000

100062c4 <resetd_init>:
100062c4:	4770      	bx	lr
	...

100062c8 <resetd_reset>:
100062c8:	4b01      	ldr	r3, [pc, #4]	; (100062d0 <resetd_reset+0x8>)
100062ca:	2200      	movs	r2, #0
100062cc:	701a      	strb	r2, [r3, #0]
100062ce:	4770      	bx	lr
100062d0:	2000258f 	.word	0x2000258f

100062d4 <resetd_open>:
100062d4:	794b      	ldrb	r3, [r1, #5]
100062d6:	2bff      	cmp	r3, #255	; 0xff
100062d8:	d10c      	bne.n	100062f4 <resetd_open+0x20>
100062da:	798b      	ldrb	r3, [r1, #6]
100062dc:	2b00      	cmp	r3, #0
100062de:	d10b      	bne.n	100062f8 <resetd_open+0x24>
100062e0:	79cb      	ldrb	r3, [r1, #7]
100062e2:	2b01      	cmp	r3, #1
100062e4:	d10a      	bne.n	100062fc <resetd_open+0x28>
100062e6:	2a08      	cmp	r2, #8
100062e8:	d90a      	bls.n	10006300 <resetd_open+0x2c>
100062ea:	788a      	ldrb	r2, [r1, #2]
100062ec:	4b05      	ldr	r3, [pc, #20]	; (10006304 <resetd_open+0x30>)
100062ee:	701a      	strb	r2, [r3, #0]
100062f0:	2009      	movs	r0, #9
100062f2:	e000      	b.n	100062f6 <resetd_open+0x22>
100062f4:	2000      	movs	r0, #0
100062f6:	4770      	bx	lr
100062f8:	2000      	movs	r0, #0
100062fa:	e7fc      	b.n	100062f6 <resetd_open+0x22>
100062fc:	2000      	movs	r0, #0
100062fe:	e7fa      	b.n	100062f6 <resetd_open+0x22>
10006300:	2000      	movs	r0, #0
10006302:	e7f8      	b.n	100062f6 <resetd_open+0x22>
10006304:	2000258f 	.word	0x2000258f

10006308 <resetd_xfer_cb>:
10006308:	2001      	movs	r0, #1
1000630a:	4770      	bx	lr

1000630c <reset_usb_boot>:
1000630c:	b570      	push	{r4, r5, r6, lr}
1000630e:	0004      	movs	r4, r0
10006310:	000d      	movs	r5, r1
10006312:	4803      	ldr	r0, [pc, #12]	; (10006320 <reset_usb_boot+0x14>)
10006314:	f7fe fc44 	bl	10004ba0 <rom_func_lookup>
10006318:	0003      	movs	r3, r0
1000631a:	0029      	movs	r1, r5
1000631c:	0020      	movs	r0, r4
1000631e:	4798      	blx	r3
10006320:	00004255 	.word	0x00004255

10006324 <resetd_control_xfer_cb>:
10006324:	b510      	push	{r4, lr}
10006326:	2901      	cmp	r1, #1
10006328:	d126      	bne.n	10006378 <resetd_control_xfer_cb+0x54>
1000632a:	7911      	ldrb	r1, [r2, #4]
1000632c:	7953      	ldrb	r3, [r2, #5]
1000632e:	021b      	lsls	r3, r3, #8
10006330:	430b      	orrs	r3, r1
10006332:	4912      	ldr	r1, [pc, #72]	; (1000637c <resetd_control_xfer_cb+0x58>)
10006334:	7809      	ldrb	r1, [r1, #0]
10006336:	428b      	cmp	r3, r1
10006338:	d001      	beq.n	1000633e <resetd_control_xfer_cb+0x1a>
1000633a:	2000      	movs	r0, #0
1000633c:	e01d      	b.n	1000637a <resetd_control_xfer_cb+0x56>
1000633e:	7853      	ldrb	r3, [r2, #1]
10006340:	2b01      	cmp	r3, #1
10006342:	d003      	beq.n	1000634c <resetd_control_xfer_cb+0x28>
10006344:	2b02      	cmp	r3, #2
10006346:	d010      	beq.n	1000636a <resetd_control_xfer_cb+0x46>
10006348:	2000      	movs	r0, #0
1000634a:	e016      	b.n	1000637a <resetd_control_xfer_cb+0x56>
1000634c:	7891      	ldrb	r1, [r2, #2]
1000634e:	78d3      	ldrb	r3, [r2, #3]
10006350:	021b      	lsls	r3, r3, #8
10006352:	4319      	orrs	r1, r3
10006354:	05db      	lsls	r3, r3, #23
10006356:	d506      	bpl.n	10006366 <resetd_control_xfer_cb+0x42>
10006358:	0a4b      	lsrs	r3, r1, #9
1000635a:	2001      	movs	r0, #1
1000635c:	4098      	lsls	r0, r3
1000635e:	237f      	movs	r3, #127	; 0x7f
10006360:	4019      	ands	r1, r3
10006362:	f7ff ffd3 	bl	1000630c <reset_usb_boot>
10006366:	2000      	movs	r0, #0
10006368:	e7f9      	b.n	1000635e <resetd_control_xfer_cb+0x3a>
1000636a:	2264      	movs	r2, #100	; 0x64
1000636c:	2100      	movs	r1, #0
1000636e:	2000      	movs	r0, #0
10006370:	f7fd fa62 	bl	10003838 <watchdog_reboot>
10006374:	2001      	movs	r0, #1
10006376:	e000      	b.n	1000637a <resetd_control_xfer_cb+0x56>
10006378:	2001      	movs	r0, #1
1000637a:	bd10      	pop	{r4, pc}
1000637c:	2000258f 	.word	0x2000258f

10006380 <usbd_app_driver_get_cb>:
10006380:	2301      	movs	r3, #1
10006382:	7003      	strb	r3, [r0, #0]
10006384:	4800      	ldr	r0, [pc, #0]	; (10006388 <usbd_app_driver_get_cb+0x8>)
10006386:	4770      	bx	lr
10006388:	1000a9d4 	.word	0x1000a9d4

1000638c <tud_cdc_line_coding_cb>:
1000638c:	b510      	push	{r4, lr}
1000638e:	780b      	ldrb	r3, [r1, #0]
10006390:	7848      	ldrb	r0, [r1, #1]
10006392:	0200      	lsls	r0, r0, #8
10006394:	4318      	orrs	r0, r3
10006396:	788a      	ldrb	r2, [r1, #2]
10006398:	0412      	lsls	r2, r2, #16
1000639a:	4310      	orrs	r0, r2
1000639c:	78cb      	ldrb	r3, [r1, #3]
1000639e:	061b      	lsls	r3, r3, #24
100063a0:	4303      	orrs	r3, r0
100063a2:	2296      	movs	r2, #150	; 0x96
100063a4:	00d2      	lsls	r2, r2, #3
100063a6:	4293      	cmp	r3, r2
100063a8:	d000      	beq.n	100063ac <tud_cdc_line_coding_cb+0x20>
100063aa:	bd10      	pop	{r4, pc}
100063ac:	2100      	movs	r1, #0
100063ae:	0008      	movs	r0, r1
100063b0:	f7ff ffac 	bl	1000630c <reset_usb_boot>

100063b4 <stdio_usb_set_chars_available_callback>:
100063b4:	4b02      	ldr	r3, [pc, #8]	; (100063c0 <stdio_usb_set_chars_available_callback+0xc>)
100063b6:	6018      	str	r0, [r3, #0]
100063b8:	4b02      	ldr	r3, [pc, #8]	; (100063c4 <stdio_usb_set_chars_available_callback+0x10>)
100063ba:	6019      	str	r1, [r3, #0]
100063bc:	4770      	bx	lr
100063be:	46c0      	nop			; (mov r8, r8)
100063c0:	20001e5c 	.word	0x20001e5c
100063c4:	20001e64 	.word	0x20001e64

100063c8 <usb_irq>:
100063c8:	b510      	push	{r4, lr}
100063ca:	4b02      	ldr	r3, [pc, #8]	; (100063d4 <usb_irq+0xc>)
100063cc:	7818      	ldrb	r0, [r3, #0]
100063ce:	f7fb fb11 	bl	100019f4 <irq_set_pending>
100063d2:	bd10      	pop	{r4, pc}
100063d4:	20002590 	.word	0x20002590

100063d8 <timer_task>:
100063d8:	b570      	push	{r4, r5, r6, lr}
100063da:	4b13      	ldr	r3, [pc, #76]	; (10006428 <timer_task+0x50>)
100063dc:	681b      	ldr	r3, [r3, #0]
100063de:	2b00      	cmp	r3, #0
100063e0:	d01d      	beq.n	1000641e <timer_task+0x46>
100063e2:	4b11      	ldr	r3, [pc, #68]	; (10006428 <timer_task+0x50>)
100063e4:	6819      	ldr	r1, [r3, #0]
100063e6:	f3ef 8310 	mrs	r3, PRIMASK
100063ea:	b672      	cpsid	i
100063ec:	680a      	ldr	r2, [r1, #0]
100063ee:	2a00      	cmp	r2, #0
100063f0:	d0fc      	beq.n	100063ec <timer_task+0x14>
100063f2:	f3bf 8f5f 	dmb	sy
100063f6:	490c      	ldr	r1, [pc, #48]	; (10006428 <timer_task+0x50>)
100063f8:	604b      	str	r3, [r1, #4]
100063fa:	2200      	movs	r2, #0
100063fc:	480b      	ldr	r0, [pc, #44]	; (1000642c <timer_task+0x54>)
100063fe:	7002      	strb	r2, [r0, #0]
10006400:	6809      	ldr	r1, [r1, #0]
10006402:	f3bf 8f5f 	dmb	sy
10006406:	600a      	str	r2, [r1, #0]
10006408:	f383 8810 	msr	PRIMASK, r3
1000640c:	2400      	movs	r4, #0
1000640e:	2500      	movs	r5, #0
10006410:	4b07      	ldr	r3, [pc, #28]	; (10006430 <timer_task+0x58>)
10006412:	7818      	ldrb	r0, [r3, #0]
10006414:	f7fb faee 	bl	100019f4 <irq_set_pending>
10006418:	0020      	movs	r0, r4
1000641a:	0029      	movs	r1, r5
1000641c:	bd70      	pop	{r4, r5, r6, pc}
1000641e:	24fa      	movs	r4, #250	; 0xfa
10006420:	00a4      	lsls	r4, r4, #2
10006422:	2500      	movs	r5, #0
10006424:	e7f4      	b.n	10006410 <timer_task+0x38>
10006426:	46c0      	nop			; (mov r8, r8)
10006428:	20002320 	.word	0x20002320
1000642c:	20002591 	.word	0x20002591
10006430:	20002590 	.word	0x20002590

10006434 <low_priority_worker_irq>:
10006434:	b510      	push	{r4, lr}
10006436:	b084      	sub	sp, #16
10006438:	2100      	movs	r1, #0
1000643a:	482d      	ldr	r0, [pc, #180]	; (100064f0 <low_priority_worker_irq+0xbc>)
1000643c:	f003 f940 	bl	100096c0 <__mutex_try_enter_veneer>
10006440:	2800      	cmp	r0, #0
10006442:	d13a      	bne.n	100064ba <low_priority_worker_irq+0x86>
10006444:	4b2b      	ldr	r3, [pc, #172]	; (100064f4 <low_priority_worker_irq+0xc0>)
10006446:	681b      	ldr	r3, [r3, #0]
10006448:	2b00      	cmp	r3, #0
1000644a:	d03e      	beq.n	100064ca <low_priority_worker_irq+0x96>
1000644c:	4b29      	ldr	r3, [pc, #164]	; (100064f4 <low_priority_worker_irq+0xc0>)
1000644e:	6819      	ldr	r1, [r3, #0]
10006450:	f3ef 8210 	mrs	r2, PRIMASK
10006454:	b672      	cpsid	i
10006456:	680b      	ldr	r3, [r1, #0]
10006458:	2b00      	cmp	r3, #0
1000645a:	d0fc      	beq.n	10006456 <low_priority_worker_irq+0x22>
1000645c:	f3bf 8f5f 	dmb	sy
10006460:	4924      	ldr	r1, [pc, #144]	; (100064f4 <low_priority_worker_irq+0xc0>)
10006462:	604a      	str	r2, [r1, #4]
10006464:	4824      	ldr	r0, [pc, #144]	; (100064f8 <low_priority_worker_irq+0xc4>)
10006466:	7803      	ldrb	r3, [r0, #0]
10006468:	2401      	movs	r4, #1
1000646a:	4063      	eors	r3, r4
1000646c:	b2db      	uxtb	r3, r3
1000646e:	2401      	movs	r4, #1
10006470:	7004      	strb	r4, [r0, #0]
10006472:	6809      	ldr	r1, [r1, #0]
10006474:	f3bf 8f5f 	dmb	sy
10006478:	2000      	movs	r0, #0
1000647a:	6008      	str	r0, [r1, #0]
1000647c:	f382 8810 	msr	PRIMASK, r2
10006480:	2b00      	cmp	r3, #0
10006482:	d022      	beq.n	100064ca <low_priority_worker_irq+0x96>
10006484:	f7fc f934 	bl	100026f0 <alarm_pool_get_default>
10006488:	0004      	movs	r4, r0
1000648a:	f7fc fbd7 	bl	10002c3c <time_us_64>
1000648e:	0002      	movs	r2, r0
10006490:	1e0b      	subs	r3, r1, #0
10006492:	db1c      	blt.n	100064ce <low_priority_worker_irq+0x9a>
10006494:	20fa      	movs	r0, #250	; 0xfa
10006496:	0080      	lsls	r0, r0, #2
10006498:	2100      	movs	r1, #0
1000649a:	1812      	adds	r2, r2, r0
1000649c:	414b      	adcs	r3, r1
1000649e:	2b00      	cmp	r3, #0
100064a0:	db1b      	blt.n	100064da <low_priority_worker_irq+0xa6>
100064a2:	2b00      	cmp	r3, #0
100064a4:	db1d      	blt.n	100064e2 <low_priority_worker_irq+0xae>
100064a6:	2101      	movs	r1, #1
100064a8:	9102      	str	r1, [sp, #8]
100064aa:	2100      	movs	r1, #0
100064ac:	9101      	str	r1, [sp, #4]
100064ae:	4913      	ldr	r1, [pc, #76]	; (100064fc <low_priority_worker_irq+0xc8>)
100064b0:	9100      	str	r1, [sp, #0]
100064b2:	0020      	movs	r0, r4
100064b4:	f7fc f932 	bl	1000271c <alarm_pool_add_alarm_at>
100064b8:	e007      	b.n	100064ca <low_priority_worker_irq+0x96>
100064ba:	2001      	movs	r0, #1
100064bc:	2100      	movs	r1, #0
100064be:	4240      	negs	r0, r0
100064c0:	f001 f8f0 	bl	100076a4 <tud_task_ext>
100064c4:	480a      	ldr	r0, [pc, #40]	; (100064f0 <low_priority_worker_irq+0xbc>)
100064c6:	f003 f8cb 	bl	10009660 <__mutex_exit_veneer>
100064ca:	b004      	add	sp, #16
100064cc:	bd10      	pop	{r4, pc}
100064ce:	4b0c      	ldr	r3, [pc, #48]	; (10006500 <low_priority_worker_irq+0xcc>)
100064d0:	4a0c      	ldr	r2, [pc, #48]	; (10006504 <low_priority_worker_irq+0xd0>)
100064d2:	213f      	movs	r1, #63	; 0x3f
100064d4:	480c      	ldr	r0, [pc, #48]	; (10006508 <low_priority_worker_irq+0xd4>)
100064d6:	f7fd fa09 	bl	100038ec <__assert_func>
100064da:	2201      	movs	r2, #1
100064dc:	4252      	negs	r2, r2
100064de:	4b0b      	ldr	r3, [pc, #44]	; (1000650c <low_priority_worker_irq+0xd8>)
100064e0:	e7df      	b.n	100064a2 <low_priority_worker_irq+0x6e>
100064e2:	4b07      	ldr	r3, [pc, #28]	; (10006500 <low_priority_worker_irq+0xcc>)
100064e4:	4a07      	ldr	r2, [pc, #28]	; (10006504 <low_priority_worker_irq+0xd0>)
100064e6:	213f      	movs	r1, #63	; 0x3f
100064e8:	4807      	ldr	r0, [pc, #28]	; (10006508 <low_priority_worker_irq+0xd4>)
100064ea:	f7fd f9ff 	bl	100038ec <__assert_func>
100064ee:	46c0      	nop			; (mov r8, r8)
100064f0:	20002558 	.word	0x20002558
100064f4:	20002320 	.word	0x20002320
100064f8:	20002591 	.word	0x20002591
100064fc:	100063d9 	.word	0x100063d9
10006500:	10009c30 	.word	0x10009c30
10006504:	1000aa80 	.word	0x1000aa80
10006508:	10009c4c 	.word	0x10009c4c
1000650c:	7fffffff 	.word	0x7fffffff

10006510 <tud_cdc_rx_cb>:
10006510:	b510      	push	{r4, lr}
10006512:	4b05      	ldr	r3, [pc, #20]	; (10006528 <tud_cdc_rx_cb+0x18>)
10006514:	6818      	ldr	r0, [r3, #0]
10006516:	2800      	cmp	r0, #0
10006518:	d004      	beq.n	10006524 <tud_cdc_rx_cb+0x14>
1000651a:	4b04      	ldr	r3, [pc, #16]	; (1000652c <tud_cdc_rx_cb+0x1c>)
1000651c:	6819      	ldr	r1, [r3, #0]
1000651e:	2200      	movs	r2, #0
10006520:	f000 fde6 	bl	100070f0 <usbd_defer_func>
10006524:	bd10      	pop	{r4, pc}
10006526:	46c0      	nop			; (mov r8, r8)
10006528:	20001e5c 	.word	0x20001e5c
1000652c:	20001e64 	.word	0x20001e64

10006530 <stdio_usb_init>:
10006530:	b510      	push	{r4, lr}
10006532:	b084      	sub	sp, #16
10006534:	23d0      	movs	r3, #208	; 0xd0
10006536:	061b      	lsls	r3, r3, #24
10006538:	681c      	ldr	r4, [r3, #0]
1000653a:	f7fc f8d9 	bl	100026f0 <alarm_pool_get_default>
1000653e:	f7fc fa1d 	bl	1000297c <alarm_pool_core_num>
10006542:	42a0      	cmp	r0, r4
10006544:	d12a      	bne.n	1000659c <stdio_usb_init+0x6c>
10006546:	4b32      	ldr	r3, [pc, #200]	; (10006610 <stdio_usb_init+0xe0>)
10006548:	781b      	ldrb	r3, [r3, #0]
1000654a:	f001 fd93 	bl	10008074 <tusb_init>
1000654e:	4831      	ldr	r0, [pc, #196]	; (10006614 <stdio_usb_init+0xe4>)
10006550:	f7fb fd3e 	bl	10001fd0 <mutex_init>
10006554:	2001      	movs	r0, #1
10006556:	f7fb fd0f 	bl	10001f78 <user_irq_claim_unused>
1000655a:	b2c0      	uxtb	r0, r0
1000655c:	4c2e      	ldr	r4, [pc, #184]	; (10006618 <stdio_usb_init+0xe8>)
1000655e:	7020      	strb	r0, [r4, #0]
10006560:	492e      	ldr	r1, [pc, #184]	; (1000661c <stdio_usb_init+0xec>)
10006562:	f7fb fa69 	bl	10001a38 <irq_set_exclusive_handler>
10006566:	7820      	ldrb	r0, [r4, #0]
10006568:	2101      	movs	r1, #1
1000656a:	f7fb fa3b 	bl	100019e4 <irq_set_enabled>
1000656e:	2005      	movs	r0, #5
10006570:	f7fb fa50 	bl	10001a14 <irq_has_shared_handler>
10006574:	1e04      	subs	r4, r0, #0
10006576:	d017      	beq.n	100065a8 <stdio_usb_init+0x78>
10006578:	2200      	movs	r2, #0
1000657a:	4929      	ldr	r1, [pc, #164]	; (10006620 <stdio_usb_init+0xf0>)
1000657c:	2005      	movs	r0, #5
1000657e:	f7fb fa85 	bl	10001a8c <irq_add_shared_handler>
10006582:	f7fb f99d 	bl	100018c0 <next_striped_spin_lock_num>
10006586:	0001      	movs	r1, r0
10006588:	4826      	ldr	r0, [pc, #152]	; (10006624 <stdio_usb_init+0xf4>)
1000658a:	f7fb fd3d 	bl	10002008 <critical_section_init_with_lock_num>
1000658e:	2101      	movs	r1, #1
10006590:	4825      	ldr	r0, [pc, #148]	; (10006628 <stdio_usb_init+0xf8>)
10006592:	f7ff fd23 	bl	10005fdc <stdio_set_driver_enabled>
10006596:	0020      	movs	r0, r4
10006598:	b004      	add	sp, #16
1000659a:	bd10      	pop	{r4, pc}
1000659c:	4b23      	ldr	r3, [pc, #140]	; (1000662c <stdio_usb_init+0xfc>)
1000659e:	4a24      	ldr	r2, [pc, #144]	; (10006630 <stdio_usb_init+0x100>)
100065a0:	21b2      	movs	r1, #178	; 0xb2
100065a2:	4824      	ldr	r0, [pc, #144]	; (10006634 <stdio_usb_init+0x104>)
100065a4:	f7fd f9a2 	bl	100038ec <__assert_func>
100065a8:	f7fc f8a2 	bl	100026f0 <alarm_pool_get_default>
100065ac:	0004      	movs	r4, r0
100065ae:	f7fc fb45 	bl	10002c3c <time_us_64>
100065b2:	0002      	movs	r2, r0
100065b4:	1e0b      	subs	r3, r1, #0
100065b6:	db1b      	blt.n	100065f0 <stdio_usb_init+0xc0>
100065b8:	20fa      	movs	r0, #250	; 0xfa
100065ba:	0080      	lsls	r0, r0, #2
100065bc:	2100      	movs	r1, #0
100065be:	1812      	adds	r2, r2, r0
100065c0:	414b      	adcs	r3, r1
100065c2:	2b00      	cmp	r3, #0
100065c4:	db1a      	blt.n	100065fc <stdio_usb_init+0xcc>
100065c6:	2b00      	cmp	r3, #0
100065c8:	db1c      	blt.n	10006604 <stdio_usb_init+0xd4>
100065ca:	2101      	movs	r1, #1
100065cc:	9102      	str	r1, [sp, #8]
100065ce:	2100      	movs	r1, #0
100065d0:	9101      	str	r1, [sp, #4]
100065d2:	4919      	ldr	r1, [pc, #100]	; (10006638 <stdio_usb_init+0x108>)
100065d4:	9100      	str	r1, [sp, #0]
100065d6:	0020      	movs	r0, r4
100065d8:	f7fc f8a0 	bl	1000271c <alarm_pool_add_alarm_at>
100065dc:	43c4      	mvns	r4, r0
100065de:	0fe4      	lsrs	r4, r4, #31
100065e0:	2208      	movs	r2, #8
100065e2:	2100      	movs	r1, #0
100065e4:	480f      	ldr	r0, [pc, #60]	; (10006624 <stdio_usb_init+0xf4>)
100065e6:	f7ff fbf1 	bl	10005dcc <__wrap_memset>
100065ea:	2c00      	cmp	r4, #0
100065ec:	d0d3      	beq.n	10006596 <stdio_usb_init+0x66>
100065ee:	e7ce      	b.n	1000658e <stdio_usb_init+0x5e>
100065f0:	4b12      	ldr	r3, [pc, #72]	; (1000663c <stdio_usb_init+0x10c>)
100065f2:	4a13      	ldr	r2, [pc, #76]	; (10006640 <stdio_usb_init+0x110>)
100065f4:	213f      	movs	r1, #63	; 0x3f
100065f6:	4813      	ldr	r0, [pc, #76]	; (10006644 <stdio_usb_init+0x114>)
100065f8:	f7fd f978 	bl	100038ec <__assert_func>
100065fc:	2201      	movs	r2, #1
100065fe:	4252      	negs	r2, r2
10006600:	4b11      	ldr	r3, [pc, #68]	; (10006648 <stdio_usb_init+0x118>)
10006602:	e7e0      	b.n	100065c6 <stdio_usb_init+0x96>
10006604:	4b0d      	ldr	r3, [pc, #52]	; (1000663c <stdio_usb_init+0x10c>)
10006606:	4a0e      	ldr	r2, [pc, #56]	; (10006640 <stdio_usb_init+0x110>)
10006608:	213f      	movs	r1, #63	; 0x3f
1000660a:	480e      	ldr	r0, [pc, #56]	; (10006644 <stdio_usb_init+0x114>)
1000660c:	f7fd f96e 	bl	100038ec <__assert_func>
10006610:	1000b1e4 	.word	0x1000b1e4
10006614:	20002558 	.word	0x20002558
10006618:	20002590 	.word	0x20002590
1000661c:	10006435 	.word	0x10006435
10006620:	100063c9 	.word	0x100063c9
10006624:	20002320 	.word	0x20002320
10006628:	20000da8 	.word	0x20000da8
1000662c:	10009ac8 	.word	0x10009ac8
10006630:	1000aa70 	.word	0x1000aa70
10006634:	1000a9ec 	.word	0x1000a9ec
10006638:	100063d9 	.word	0x100063d9
1000663c:	10009c30 	.word	0x10009c30
10006640:	1000aa80 	.word	0x1000aa80
10006644:	10009c4c 	.word	0x10009c4c
10006648:	7fffffff 	.word	0x7fffffff

1000664c <stdio_usb_connected>:
1000664c:	b510      	push	{r4, lr}
1000664e:	2000      	movs	r0, #0
10006650:	f001 fa30 	bl	10007ab4 <tud_cdc_n_connected>
10006654:	bd10      	pop	{r4, pc}
	...

10006658 <stdio_usb_in_chars>:
10006658:	b570      	push	{r4, r5, r6, lr}
1000665a:	0005      	movs	r5, r0
1000665c:	000c      	movs	r4, r1
1000665e:	f7ff fff5 	bl	1000664c <stdio_usb_connected>
10006662:	2800      	cmp	r0, #0
10006664:	d045      	beq.n	100066f2 <stdio_usb_in_chars+0x9a>
10006666:	2000      	movs	r0, #0
10006668:	f001 fa46 	bl	10007af8 <tud_cdc_n_available>
1000666c:	2800      	cmp	r0, #0
1000666e:	d043      	beq.n	100066f8 <stdio_usb_in_chars+0xa0>
10006670:	f7fc fae4 	bl	10002c3c <time_us_64>
10006674:	0002      	movs	r2, r0
10006676:	1e0b      	subs	r3, r1, #0
10006678:	db21      	blt.n	100066be <stdio_usb_in_chars+0x66>
1000667a:	4822      	ldr	r0, [pc, #136]	; (10006704 <stdio_usb_in_chars+0xac>)
1000667c:	2100      	movs	r1, #0
1000667e:	1812      	adds	r2, r2, r0
10006680:	414b      	adcs	r3, r1
10006682:	2b00      	cmp	r3, #0
10006684:	db21      	blt.n	100066ca <stdio_usb_in_chars+0x72>
10006686:	2b00      	cmp	r3, #0
10006688:	db23      	blt.n	100066d2 <stdio_usb_in_chars+0x7a>
1000668a:	481f      	ldr	r0, [pc, #124]	; (10006708 <stdio_usb_in_chars+0xb0>)
1000668c:	f003 f838 	bl	10009700 <__mutex_try_enter_block_until_veneer>
10006690:	2800      	cmp	r0, #0
10006692:	d034      	beq.n	100066fe <stdio_usb_in_chars+0xa6>
10006694:	f7ff ffda 	bl	1000664c <stdio_usb_connected>
10006698:	2800      	cmp	r0, #0
1000669a:	d004      	beq.n	100066a6 <stdio_usb_in_chars+0x4e>
1000669c:	2000      	movs	r0, #0
1000669e:	f001 fa2b 	bl	10007af8 <tud_cdc_n_available>
100066a2:	2800      	cmp	r0, #0
100066a4:	d11b      	bne.n	100066de <stdio_usb_in_chars+0x86>
100066a6:	2001      	movs	r0, #1
100066a8:	2100      	movs	r1, #0
100066aa:	4240      	negs	r0, r0
100066ac:	f000 fffa 	bl	100076a4 <tud_task_ext>
100066b0:	2403      	movs	r4, #3
100066b2:	4264      	negs	r4, r4
100066b4:	4814      	ldr	r0, [pc, #80]	; (10006708 <stdio_usb_in_chars+0xb0>)
100066b6:	f002 ffd3 	bl	10009660 <__mutex_exit_veneer>
100066ba:	0020      	movs	r0, r4
100066bc:	bd70      	pop	{r4, r5, r6, pc}
100066be:	4b13      	ldr	r3, [pc, #76]	; (1000670c <stdio_usb_in_chars+0xb4>)
100066c0:	4a13      	ldr	r2, [pc, #76]	; (10006710 <stdio_usb_in_chars+0xb8>)
100066c2:	213f      	movs	r1, #63	; 0x3f
100066c4:	4813      	ldr	r0, [pc, #76]	; (10006714 <stdio_usb_in_chars+0xbc>)
100066c6:	f7fd f911 	bl	100038ec <__assert_func>
100066ca:	2201      	movs	r2, #1
100066cc:	4252      	negs	r2, r2
100066ce:	4b12      	ldr	r3, [pc, #72]	; (10006718 <stdio_usb_in_chars+0xc0>)
100066d0:	e7d9      	b.n	10006686 <stdio_usb_in_chars+0x2e>
100066d2:	4b0e      	ldr	r3, [pc, #56]	; (1000670c <stdio_usb_in_chars+0xb4>)
100066d4:	4a0e      	ldr	r2, [pc, #56]	; (10006710 <stdio_usb_in_chars+0xb8>)
100066d6:	213f      	movs	r1, #63	; 0x3f
100066d8:	480e      	ldr	r0, [pc, #56]	; (10006714 <stdio_usb_in_chars+0xbc>)
100066da:	f7fd f907 	bl	100038ec <__assert_func>
100066de:	0022      	movs	r2, r4
100066e0:	0029      	movs	r1, r5
100066e2:	2000      	movs	r0, #0
100066e4:	f001 fa14 	bl	10007b10 <tud_cdc_n_read>
100066e8:	1e04      	subs	r4, r0, #0
100066ea:	d1e3      	bne.n	100066b4 <stdio_usb_in_chars+0x5c>
100066ec:	2403      	movs	r4, #3
100066ee:	4264      	negs	r4, r4
100066f0:	e7e0      	b.n	100066b4 <stdio_usb_in_chars+0x5c>
100066f2:	2403      	movs	r4, #3
100066f4:	4264      	negs	r4, r4
100066f6:	e7e0      	b.n	100066ba <stdio_usb_in_chars+0x62>
100066f8:	2403      	movs	r4, #3
100066fa:	4264      	negs	r4, r4
100066fc:	e7dd      	b.n	100066ba <stdio_usb_in_chars+0x62>
100066fe:	2403      	movs	r4, #3
10006700:	4264      	negs	r4, r4
10006702:	e7da      	b.n	100066ba <stdio_usb_in_chars+0x62>
10006704:	000f4240 	.word	0x000f4240
10006708:	20002558 	.word	0x20002558
1000670c:	10009c30 	.word	0x10009c30
10006710:	1000aa80 	.word	0x1000aa80
10006714:	10009c4c 	.word	0x10009c4c
10006718:	7fffffff 	.word	0x7fffffff

1000671c <stdio_usb_out_chars>:
1000671c:	b5f0      	push	{r4, r5, r6, r7, lr}
1000671e:	46c6      	mov	lr, r8
10006720:	b500      	push	{lr}
10006722:	4680      	mov	r8, r0
10006724:	000c      	movs	r4, r1
10006726:	f7fc fa89 	bl	10002c3c <time_us_64>
1000672a:	0002      	movs	r2, r0
1000672c:	1e0b      	subs	r3, r1, #0
1000672e:	db0f      	blt.n	10006750 <stdio_usb_out_chars+0x34>
10006730:	4837      	ldr	r0, [pc, #220]	; (10006810 <stdio_usb_out_chars+0xf4>)
10006732:	2100      	movs	r1, #0
10006734:	1812      	adds	r2, r2, r0
10006736:	414b      	adcs	r3, r1
10006738:	2b00      	cmp	r3, #0
1000673a:	db0f      	blt.n	1000675c <stdio_usb_out_chars+0x40>
1000673c:	2b00      	cmp	r3, #0
1000673e:	db11      	blt.n	10006764 <stdio_usb_out_chars+0x48>
10006740:	4834      	ldr	r0, [pc, #208]	; (10006814 <stdio_usb_out_chars+0xf8>)
10006742:	f002 ffdd 	bl	10009700 <__mutex_try_enter_block_until_veneer>
10006746:	2800      	cmp	r0, #0
10006748:	d112      	bne.n	10006770 <stdio_usb_out_chars+0x54>
1000674a:	bc80      	pop	{r7}
1000674c:	46b8      	mov	r8, r7
1000674e:	bdf0      	pop	{r4, r5, r6, r7, pc}
10006750:	4b31      	ldr	r3, [pc, #196]	; (10006818 <stdio_usb_out_chars+0xfc>)
10006752:	4a32      	ldr	r2, [pc, #200]	; (1000681c <stdio_usb_out_chars+0x100>)
10006754:	213f      	movs	r1, #63	; 0x3f
10006756:	4832      	ldr	r0, [pc, #200]	; (10006820 <stdio_usb_out_chars+0x104>)
10006758:	f7fd f8c8 	bl	100038ec <__assert_func>
1000675c:	2201      	movs	r2, #1
1000675e:	4252      	negs	r2, r2
10006760:	4b30      	ldr	r3, [pc, #192]	; (10006824 <stdio_usb_out_chars+0x108>)
10006762:	e7eb      	b.n	1000673c <stdio_usb_out_chars+0x20>
10006764:	4b2c      	ldr	r3, [pc, #176]	; (10006818 <stdio_usb_out_chars+0xfc>)
10006766:	4a2d      	ldr	r2, [pc, #180]	; (1000681c <stdio_usb_out_chars+0x100>)
10006768:	213f      	movs	r1, #63	; 0x3f
1000676a:	482d      	ldr	r0, [pc, #180]	; (10006820 <stdio_usb_out_chars+0x104>)
1000676c:	f7fd f8be 	bl	100038ec <__assert_func>
10006770:	f7ff ff6c 	bl	1000664c <stdio_usb_connected>
10006774:	2800      	cmp	r0, #0
10006776:	d149      	bne.n	1000680c <stdio_usb_out_chars+0xf0>
10006778:	4b2b      	ldr	r3, [pc, #172]	; (10006828 <stdio_usb_out_chars+0x10c>)
1000677a:	2000      	movs	r0, #0
1000677c:	2100      	movs	r1, #0
1000677e:	6018      	str	r0, [r3, #0]
10006780:	6059      	str	r1, [r3, #4]
10006782:	4824      	ldr	r0, [pc, #144]	; (10006814 <stdio_usb_out_chars+0xf8>)
10006784:	f002 ff6c 	bl	10009660 <__mutex_exit_veneer>
10006788:	e7df      	b.n	1000674a <stdio_usb_out_chars+0x2e>
1000678a:	2001      	movs	r0, #1
1000678c:	2100      	movs	r1, #0
1000678e:	4240      	negs	r0, r0
10006790:	f000 ff88 	bl	100076a4 <tud_task_ext>
10006794:	2000      	movs	r0, #0
10006796:	f001 f9cf 	bl	10007b38 <tud_cdc_n_write_flush>
1000679a:	f7ff ff57 	bl	1000664c <stdio_usb_connected>
1000679e:	2800      	cmp	r0, #0
100067a0:	d0ef      	beq.n	10006782 <stdio_usb_out_chars+0x66>
100067a2:	2000      	movs	r0, #0
100067a4:	f001 fa40 	bl	10007c28 <tud_cdc_n_write_available>
100067a8:	2800      	cmp	r0, #0
100067aa:	d020      	beq.n	100067ee <stdio_usb_out_chars+0xd2>
100067ac:	42a5      	cmp	r5, r4
100067ae:	dae8      	bge.n	10006782 <stdio_usb_out_chars+0x66>
100067b0:	1b66      	subs	r6, r4, r5
100067b2:	2000      	movs	r0, #0
100067b4:	f001 fa38 	bl	10007c28 <tud_cdc_n_write_available>
100067b8:	0002      	movs	r2, r0
100067ba:	4286      	cmp	r6, r0
100067bc:	dc00      	bgt.n	100067c0 <stdio_usb_out_chars+0xa4>
100067be:	0032      	movs	r2, r6
100067c0:	2a00      	cmp	r2, #0
100067c2:	d0e2      	beq.n	1000678a <stdio_usb_out_chars+0x6e>
100067c4:	4643      	mov	r3, r8
100067c6:	1959      	adds	r1, r3, r5
100067c8:	2000      	movs	r0, #0
100067ca:	f001 fa11 	bl	10007bf0 <tud_cdc_n_write>
100067ce:	0006      	movs	r6, r0
100067d0:	2001      	movs	r0, #1
100067d2:	2100      	movs	r1, #0
100067d4:	4240      	negs	r0, r0
100067d6:	f000 ff65 	bl	100076a4 <tud_task_ext>
100067da:	2000      	movs	r0, #0
100067dc:	f001 f9ac 	bl	10007b38 <tud_cdc_n_write_flush>
100067e0:	19ad      	adds	r5, r5, r6
100067e2:	f7fc fa2b 	bl	10002c3c <time_us_64>
100067e6:	4b10      	ldr	r3, [pc, #64]	; (10006828 <stdio_usb_out_chars+0x10c>)
100067e8:	6018      	str	r0, [r3, #0]
100067ea:	6059      	str	r1, [r3, #4]
100067ec:	e7de      	b.n	100067ac <stdio_usb_out_chars+0x90>
100067ee:	f7fc fa25 	bl	10002c3c <time_us_64>
100067f2:	4b0d      	ldr	r3, [pc, #52]	; (10006828 <stdio_usb_out_chars+0x10c>)
100067f4:	681e      	ldr	r6, [r3, #0]
100067f6:	685f      	ldr	r7, [r3, #4]
100067f8:	4a0c      	ldr	r2, [pc, #48]	; (1000682c <stdio_usb_out_chars+0x110>)
100067fa:	2300      	movs	r3, #0
100067fc:	1992      	adds	r2, r2, r6
100067fe:	417b      	adcs	r3, r7
10006800:	4299      	cmp	r1, r3
10006802:	d8be      	bhi.n	10006782 <stdio_usb_out_chars+0x66>
10006804:	d1d2      	bne.n	100067ac <stdio_usb_out_chars+0x90>
10006806:	4290      	cmp	r0, r2
10006808:	d9d0      	bls.n	100067ac <stdio_usb_out_chars+0x90>
1000680a:	e7ba      	b.n	10006782 <stdio_usb_out_chars+0x66>
1000680c:	2500      	movs	r5, #0
1000680e:	e7cd      	b.n	100067ac <stdio_usb_out_chars+0x90>
10006810:	000f4240 	.word	0x000f4240
10006814:	20002558 	.word	0x20002558
10006818:	10009c30 	.word	0x10009c30
1000681c:	1000aa80 	.word	0x1000aa80
10006820:	10009c4c 	.word	0x10009c4c
10006824:	7fffffff 	.word	0x7fffffff
10006828:	20001788 	.word	0x20001788
1000682c:	0007a120 	.word	0x0007a120

10006830 <tud_descriptor_device_cb>:
10006830:	4800      	ldr	r0, [pc, #0]	; (10006834 <tud_descriptor_device_cb+0x4>)
10006832:	4770      	bx	lr
10006834:	1000ab18 	.word	0x1000ab18

10006838 <tud_descriptor_configuration_cb>:
10006838:	4800      	ldr	r0, [pc, #0]	; (1000683c <tud_descriptor_configuration_cb+0x4>)
1000683a:	4770      	bx	lr
1000683c:	1000aac4 	.word	0x1000aac4

10006840 <tud_descriptor_string_cb>:
10006840:	b510      	push	{r4, lr}
10006842:	0004      	movs	r4, r0
10006844:	4b15      	ldr	r3, [pc, #84]	; (1000689c <tud_descriptor_string_cb+0x5c>)
10006846:	781b      	ldrb	r3, [r3, #0]
10006848:	2b00      	cmp	r3, #0
1000684a:	d00e      	beq.n	1000686a <tud_descriptor_string_cb+0x2a>
1000684c:	2c00      	cmp	r4, #0
1000684e:	d111      	bne.n	10006874 <tud_descriptor_string_cb+0x34>
10006850:	4b13      	ldr	r3, [pc, #76]	; (100068a0 <tud_descriptor_string_cb+0x60>)
10006852:	4a14      	ldr	r2, [pc, #80]	; (100068a4 <tud_descriptor_string_cb+0x64>)
10006854:	805a      	strh	r2, [r3, #2]
10006856:	2301      	movs	r3, #1
10006858:	3301      	adds	r3, #1
1000685a:	005b      	lsls	r3, r3, #1
1000685c:	b21b      	sxth	r3, r3
1000685e:	22c0      	movs	r2, #192	; 0xc0
10006860:	0092      	lsls	r2, r2, #2
10006862:	4313      	orrs	r3, r2
10006864:	480e      	ldr	r0, [pc, #56]	; (100068a0 <tud_descriptor_string_cb+0x60>)
10006866:	8003      	strh	r3, [r0, #0]
10006868:	bd10      	pop	{r4, pc}
1000686a:	2111      	movs	r1, #17
1000686c:	480b      	ldr	r0, [pc, #44]	; (1000689c <tud_descriptor_string_cb+0x5c>)
1000686e:	f000 f825 	bl	100068bc <pico_get_unique_board_id_string>
10006872:	e7eb      	b.n	1000684c <tud_descriptor_string_cb+0xc>
10006874:	2c05      	cmp	r4, #5
10006876:	d80e      	bhi.n	10006896 <tud_descriptor_string_cb+0x56>
10006878:	00a4      	lsls	r4, r4, #2
1000687a:	4b0b      	ldr	r3, [pc, #44]	; (100068a8 <tud_descriptor_string_cb+0x68>)
1000687c:	58e4      	ldr	r4, [r4, r3]
1000687e:	2300      	movs	r3, #0
10006880:	2b12      	cmp	r3, #18
10006882:	d8e9      	bhi.n	10006858 <tud_descriptor_string_cb+0x18>
10006884:	5ce2      	ldrb	r2, [r4, r3]
10006886:	2a00      	cmp	r2, #0
10006888:	d0e6      	beq.n	10006858 <tud_descriptor_string_cb+0x18>
1000688a:	3301      	adds	r3, #1
1000688c:	0059      	lsls	r1, r3, #1
1000688e:	4804      	ldr	r0, [pc, #16]	; (100068a0 <tud_descriptor_string_cb+0x60>)
10006890:	5242      	strh	r2, [r0, r1]
10006892:	b2db      	uxtb	r3, r3
10006894:	e7f4      	b.n	10006880 <tud_descriptor_string_cb+0x40>
10006896:	2000      	movs	r0, #0
10006898:	e7e6      	b.n	10006868 <tud_descriptor_string_cb+0x28>
1000689a:	46c0      	nop			; (mov r8, r8)
1000689c:	20002578 	.word	0x20002578
100068a0:	20001ed4 	.word	0x20001ed4
100068a4:	00000409 	.word	0x00000409
100068a8:	1000ab2c 	.word	0x1000ab2c

100068ac <_retrieve_unique_id_on_boot>:
100068ac:	b510      	push	{r4, lr}
100068ae:	4802      	ldr	r0, [pc, #8]	; (100068b8 <_retrieve_unique_id_on_boot+0xc>)
100068b0:	f000 f834 	bl	1000691c <flash_get_unique_id>
100068b4:	bd10      	pop	{r4, pc}
100068b6:	46c0      	nop			; (mov r8, r8)
100068b8:	20002338 	.word	0x20002338

100068bc <pico_get_unique_board_id_string>:
100068bc:	b510      	push	{r4, lr}
100068be:	2900      	cmp	r1, #0
100068c0:	d001      	beq.n	100068c6 <pico_get_unique_board_id_string+0xa>
100068c2:	2300      	movs	r3, #0
100068c4:	e00a      	b.n	100068dc <pico_get_unique_board_id_string+0x20>
100068c6:	4b11      	ldr	r3, [pc, #68]	; (1000690c <pico_get_unique_board_id_string+0x50>)
100068c8:	4a11      	ldr	r2, [pc, #68]	; (10006910 <pico_get_unique_board_id_string+0x54>)
100068ca:	311f      	adds	r1, #31
100068cc:	4811      	ldr	r0, [pc, #68]	; (10006914 <pico_get_unique_board_id_string+0x58>)
100068ce:	f7fd f80d 	bl	100038ec <__assert_func>
100068d2:	2400      	movs	r4, #0
100068d4:	e00d      	b.n	100068f2 <pico_get_unique_board_id_string+0x36>
100068d6:	3237      	adds	r2, #55	; 0x37
100068d8:	54c2      	strb	r2, [r0, r3]
100068da:	3301      	adds	r3, #1
100068dc:	1e4a      	subs	r2, r1, #1
100068de:	429a      	cmp	r2, r3
100068e0:	d90f      	bls.n	10006902 <pico_get_unique_board_id_string+0x46>
100068e2:	2b0f      	cmp	r3, #15
100068e4:	d80d      	bhi.n	10006902 <pico_get_unique_board_id_string+0x46>
100068e6:	085a      	lsrs	r2, r3, #1
100068e8:	4c0b      	ldr	r4, [pc, #44]	; (10006918 <pico_get_unique_board_id_string+0x5c>)
100068ea:	5ca2      	ldrb	r2, [r4, r2]
100068ec:	07dc      	lsls	r4, r3, #31
100068ee:	d4f0      	bmi.n	100068d2 <pico_get_unique_board_id_string+0x16>
100068f0:	2404      	movs	r4, #4
100068f2:	4122      	asrs	r2, r4
100068f4:	0014      	movs	r4, r2
100068f6:	220f      	movs	r2, #15
100068f8:	4022      	ands	r2, r4
100068fa:	2a09      	cmp	r2, #9
100068fc:	dceb      	bgt.n	100068d6 <pico_get_unique_board_id_string+0x1a>
100068fe:	3230      	adds	r2, #48	; 0x30
10006900:	e7ea      	b.n	100068d8 <pico_get_unique_board_id_string+0x1c>
10006902:	18c0      	adds	r0, r0, r3
10006904:	2300      	movs	r3, #0
10006906:	7003      	strb	r3, [r0, #0]
10006908:	bd10      	pop	{r4, pc}
1000690a:	46c0      	nop			; (mov r8, r8)
1000690c:	1000ab44 	.word	0x1000ab44
10006910:	1000abb0 	.word	0x1000abb0
10006914:	1000ab4c 	.word	0x1000ab4c
10006918:	20002338 	.word	0x20002338

1000691c <flash_get_unique_id>:
1000691c:	b570      	push	{r4, r5, r6, lr}
1000691e:	b088      	sub	sp, #32
10006920:	0004      	movs	r4, r0
10006922:	ad04      	add	r5, sp, #16
10006924:	2600      	movs	r6, #0
10006926:	9604      	str	r6, [sp, #16]
10006928:	2209      	movs	r2, #9
1000692a:	2100      	movs	r1, #0
1000692c:	a805      	add	r0, sp, #20
1000692e:	f7ff fa4d 	bl	10005dcc <__wrap_memset>
10006932:	9600      	str	r6, [sp, #0]
10006934:	2209      	movs	r2, #9
10006936:	2100      	movs	r1, #0
10006938:	a801      	add	r0, sp, #4
1000693a:	f7ff fa47 	bl	10005dcc <__wrap_memset>
1000693e:	234b      	movs	r3, #75	; 0x4b
10006940:	702b      	strb	r3, [r5, #0]
10006942:	220d      	movs	r2, #13
10006944:	4669      	mov	r1, sp
10006946:	0028      	movs	r0, r5
10006948:	f002 fe82 	bl	10009650 <__flash_do_cmd_veneer>
1000694c:	2300      	movs	r3, #0
1000694e:	e004      	b.n	1000695a <flash_get_unique_id+0x3e>
10006950:	1d5a      	adds	r2, r3, #5
10006952:	4669      	mov	r1, sp
10006954:	5c8a      	ldrb	r2, [r1, r2]
10006956:	54e2      	strb	r2, [r4, r3]
10006958:	3301      	adds	r3, #1
1000695a:	2b07      	cmp	r3, #7
1000695c:	ddf8      	ble.n	10006950 <flash_get_unique_id+0x34>
1000695e:	b008      	add	sp, #32
10006960:	bd70      	pop	{r4, r5, r6, pc}
	...

10006964 <hw_endpoint_get_by_addr>:
10006964:	0002      	movs	r2, r0
10006966:	207f      	movs	r0, #127	; 0x7f
10006968:	4010      	ands	r0, r2
1000696a:	09d2      	lsrs	r2, r2, #7
1000696c:	0040      	lsls	r0, r0, #1
1000696e:	1880      	adds	r0, r0, r2
10006970:	0140      	lsls	r0, r0, #5
10006972:	4b01      	ldr	r3, [pc, #4]	; (10006978 <hw_endpoint_get_by_addr+0x14>)
10006974:	18c0      	adds	r0, r0, r3
10006976:	4770      	bx	lr
10006978:	20001f14 	.word	0x20001f14

1000697c <_hw_endpoint_alloc>:
1000697c:	b510      	push	{r4, lr}
1000697e:	8b03      	ldrh	r3, [r0, #24]
10006980:	333f      	adds	r3, #63	; 0x3f
10006982:	223f      	movs	r2, #63	; 0x3f
10006984:	4393      	bics	r3, r2
10006986:	2902      	cmp	r1, #2
10006988:	d015      	beq.n	100069b6 <_hw_endpoint_alloc+0x3a>
1000698a:	4c12      	ldr	r4, [pc, #72]	; (100069d4 <_hw_endpoint_alloc+0x58>)
1000698c:	6822      	ldr	r2, [r4, #0]
1000698e:	60c2      	str	r2, [r0, #12]
10006990:	18d3      	adds	r3, r2, r3
10006992:	6023      	str	r3, [r4, #0]
10006994:	069c      	lsls	r4, r3, #26
10006996:	d110      	bne.n	100069ba <_hw_endpoint_alloc+0x3e>
10006998:	4c0f      	ldr	r4, [pc, #60]	; (100069d8 <_hw_endpoint_alloc+0x5c>)
1000699a:	4062      	eors	r2, r4
1000699c:	4063      	eors	r3, r4
1000699e:	2480      	movs	r4, #128	; 0x80
100069a0:	0164      	lsls	r4, r4, #5
100069a2:	42a3      	cmp	r3, r4
100069a4:	d80f      	bhi.n	100069c6 <_hw_endpoint_alloc+0x4a>
100069a6:	0689      	lsls	r1, r1, #26
100069a8:	4311      	orrs	r1, r2
100069aa:	2380      	movs	r3, #128	; 0x80
100069ac:	061b      	lsls	r3, r3, #24
100069ae:	4319      	orrs	r1, r3
100069b0:	6843      	ldr	r3, [r0, #4]
100069b2:	6019      	str	r1, [r3, #0]
100069b4:	bd10      	pop	{r4, pc}
100069b6:	005b      	lsls	r3, r3, #1
100069b8:	e7e7      	b.n	1000698a <_hw_endpoint_alloc+0xe>
100069ba:	4b08      	ldr	r3, [pc, #32]	; (100069dc <_hw_endpoint_alloc+0x60>)
100069bc:	4a08      	ldr	r2, [pc, #32]	; (100069e0 <_hw_endpoint_alloc+0x64>)
100069be:	2154      	movs	r1, #84	; 0x54
100069c0:	4808      	ldr	r0, [pc, #32]	; (100069e4 <_hw_endpoint_alloc+0x68>)
100069c2:	f7fc ff93 	bl	100038ec <__assert_func>
100069c6:	4b08      	ldr	r3, [pc, #32]	; (100069e8 <_hw_endpoint_alloc+0x6c>)
100069c8:	4a05      	ldr	r2, [pc, #20]	; (100069e0 <_hw_endpoint_alloc+0x64>)
100069ca:	2156      	movs	r1, #86	; 0x56
100069cc:	4805      	ldr	r0, [pc, #20]	; (100069e4 <_hw_endpoint_alloc+0x68>)
100069ce:	f7fc ff8d 	bl	100038ec <__assert_func>
100069d2:	46c0      	nop			; (mov r8, r8)
100069d4:	20002318 	.word	0x20002318
100069d8:	50100000 	.word	0x50100000
100069dc:	1000ad58 	.word	0x1000ad58
100069e0:	1000ae8c 	.word	0x1000ae8c
100069e4:	1000ad88 	.word	0x1000ad88
100069e8:	1000adf8 	.word	0x1000adf8

100069ec <hw_endpoint_init>:
100069ec:	b5f8      	push	{r3, r4, r5, r6, r7, lr}
100069ee:	0005      	movs	r5, r0
100069f0:	000e      	movs	r6, r1
100069f2:	0014      	movs	r4, r2
100069f4:	f7ff ffb6 	bl	10006964 <hw_endpoint_get_by_addr>
100069f8:	237f      	movs	r3, #127	; 0x7f
100069fa:	402b      	ands	r3, r5
100069fc:	09ef      	lsrs	r7, r5, #7
100069fe:	7085      	strb	r5, [r0, #2]
10006a00:	427a      	negs	r2, r7
10006a02:	417a      	adcs	r2, r7
10006a04:	7042      	strb	r2, [r0, #1]
10006a06:	2200      	movs	r2, #0
10006a08:	70c2      	strb	r2, [r0, #3]
10006a0a:	8306      	strh	r6, [r0, #24]
10006a0c:	76c4      	strb	r4, [r0, #27]
10006a0e:	2f01      	cmp	r7, #1
10006a10:	d00d      	beq.n	10006a2e <hw_endpoint_init+0x42>
10006a12:	00da      	lsls	r2, r3, #3
10006a14:	4912      	ldr	r1, [pc, #72]	; (10006a60 <hw_endpoint_init+0x74>)
10006a16:	468c      	mov	ip, r1
10006a18:	4462      	add	r2, ip
10006a1a:	6082      	str	r2, [r0, #8]
10006a1c:	6882      	ldr	r2, [r0, #8]
10006a1e:	2100      	movs	r1, #0
10006a20:	6011      	str	r1, [r2, #0]
10006a22:	2b00      	cmp	r3, #0
10006a24:	d109      	bne.n	10006a3a <hw_endpoint_init+0x4e>
10006a26:	6043      	str	r3, [r0, #4]
10006a28:	4b0e      	ldr	r3, [pc, #56]	; (10006a64 <hw_endpoint_init+0x78>)
10006a2a:	60c3      	str	r3, [r0, #12]
10006a2c:	bdf8      	pop	{r3, r4, r5, r6, r7, pc}
10006a2e:	00da      	lsls	r2, r3, #3
10006a30:	490d      	ldr	r1, [pc, #52]	; (10006a68 <hw_endpoint_init+0x7c>)
10006a32:	468c      	mov	ip, r1
10006a34:	4462      	add	r2, ip
10006a36:	6082      	str	r2, [r0, #8]
10006a38:	e7f0      	b.n	10006a1c <hw_endpoint_init+0x30>
10006a3a:	2f01      	cmp	r7, #1
10006a3c:	d009      	beq.n	10006a52 <hw_endpoint_init+0x66>
10006a3e:	3b01      	subs	r3, #1
10006a40:	00db      	lsls	r3, r3, #3
10006a42:	4a0a      	ldr	r2, [pc, #40]	; (10006a6c <hw_endpoint_init+0x80>)
10006a44:	4694      	mov	ip, r2
10006a46:	4463      	add	r3, ip
10006a48:	6043      	str	r3, [r0, #4]
10006a4a:	0021      	movs	r1, r4
10006a4c:	f7ff ff96 	bl	1000697c <_hw_endpoint_alloc>
10006a50:	e7ec      	b.n	10006a2c <hw_endpoint_init+0x40>
10006a52:	3b01      	subs	r3, #1
10006a54:	00db      	lsls	r3, r3, #3
10006a56:	4a06      	ldr	r2, [pc, #24]	; (10006a70 <hw_endpoint_init+0x84>)
10006a58:	4694      	mov	ip, r2
10006a5a:	4463      	add	r3, ip
10006a5c:	6043      	str	r3, [r0, #4]
10006a5e:	e7f4      	b.n	10006a4a <hw_endpoint_init+0x5e>
10006a60:	50100084 	.word	0x50100084
10006a64:	50100100 	.word	0x50100100
10006a68:	50100080 	.word	0x50100080
10006a6c:	5010000c 	.word	0x5010000c
10006a70:	50100008 	.word	0x50100008

10006a74 <hw_endpoint_xfer>:
10006a74:	b570      	push	{r4, r5, r6, lr}
10006a76:	000c      	movs	r4, r1
10006a78:	0015      	movs	r5, r2
10006a7a:	f7ff ff73 	bl	10006964 <hw_endpoint_get_by_addr>
10006a7e:	002a      	movs	r2, r5
10006a80:	0021      	movs	r1, r4
10006a82:	f000 f90d 	bl	10006ca0 <hw_endpoint_xfer_start>
10006a86:	bd70      	pop	{r4, r5, r6, pc}

10006a88 <dcd_int_enable>:
10006a88:	b510      	push	{r4, lr}
10006a8a:	2800      	cmp	r0, #0
10006a8c:	d104      	bne.n	10006a98 <dcd_int_enable+0x10>
10006a8e:	2101      	movs	r1, #1
10006a90:	2005      	movs	r0, #5
10006a92:	f7fa ffa7 	bl	100019e4 <irq_set_enabled>
10006a96:	bd10      	pop	{r4, pc}
10006a98:	21d5      	movs	r1, #213	; 0xd5
10006a9a:	4b03      	ldr	r3, [pc, #12]	; (10006aa8 <dcd_int_enable+0x20>)
10006a9c:	4a03      	ldr	r2, [pc, #12]	; (10006aac <dcd_int_enable+0x24>)
10006a9e:	0049      	lsls	r1, r1, #1
10006aa0:	4803      	ldr	r0, [pc, #12]	; (10006ab0 <dcd_int_enable+0x28>)
10006aa2:	f7fc ff23 	bl	100038ec <__assert_func>
10006aa6:	46c0      	nop			; (mov r8, r8)
10006aa8:	1000ae40 	.word	0x1000ae40
10006aac:	1000ae7c 	.word	0x1000ae7c
10006ab0:	1000ad88 	.word	0x1000ad88

10006ab4 <dcd_set_address>:
10006ab4:	b510      	push	{r4, lr}
10006ab6:	2800      	cmp	r0, #0
10006ab8:	d105      	bne.n	10006ac6 <dcd_set_address+0x12>
10006aba:	2200      	movs	r2, #0
10006abc:	2100      	movs	r1, #0
10006abe:	2080      	movs	r0, #128	; 0x80
10006ac0:	f7ff ffd8 	bl	10006a74 <hw_endpoint_xfer>
10006ac4:	bd10      	pop	{r4, pc}
10006ac6:	21db      	movs	r1, #219	; 0xdb
10006ac8:	4b02      	ldr	r3, [pc, #8]	; (10006ad4 <dcd_set_address+0x20>)
10006aca:	4a03      	ldr	r2, [pc, #12]	; (10006ad8 <dcd_set_address+0x24>)
10006acc:	0049      	lsls	r1, r1, #1
10006ace:	4803      	ldr	r0, [pc, #12]	; (10006adc <dcd_set_address+0x28>)
10006ad0:	f7fc ff0c 	bl	100038ec <__assert_func>
10006ad4:	1000ae40 	.word	0x1000ae40
10006ad8:	1000ae6c 	.word	0x1000ae6c
10006adc:	1000ad88 	.word	0x1000ad88

10006ae0 <dcd_connect>:
10006ae0:	4b02      	ldr	r3, [pc, #8]	; (10006aec <dcd_connect+0xc>)
10006ae2:	2280      	movs	r2, #128	; 0x80
10006ae4:	0252      	lsls	r2, r2, #9
10006ae6:	64da      	str	r2, [r3, #76]	; 0x4c
10006ae8:	4770      	bx	lr
10006aea:	46c0      	nop			; (mov r8, r8)
10006aec:	50112000 	.word	0x50112000

10006af0 <dcd_init>:
10006af0:	b570      	push	{r4, r5, r6, lr}
10006af2:	1e04      	subs	r4, r0, #0
10006af4:	d126      	bne.n	10006b44 <dcd_init+0x54>
10006af6:	f000 f8ad 	bl	10006c54 <rp2040_usb_init>
10006afa:	4d16      	ldr	r5, [pc, #88]	; (10006b54 <dcd_init+0x64>)
10006afc:	230c      	movs	r3, #12
10006afe:	67ab      	str	r3, [r5, #120]	; 0x78
10006b00:	22ff      	movs	r2, #255	; 0xff
10006b02:	4915      	ldr	r1, [pc, #84]	; (10006b58 <dcd_init+0x68>)
10006b04:	2005      	movs	r0, #5
10006b06:	f7fa ffc1 	bl	10001a8c <irq_add_shared_handler>
10006b0a:	2240      	movs	r2, #64	; 0x40
10006b0c:	2100      	movs	r1, #0
10006b0e:	4813      	ldr	r0, [pc, #76]	; (10006b5c <dcd_init+0x6c>)
10006b10:	f7ff f95c 	bl	10005dcc <__wrap_memset>
10006b14:	2200      	movs	r2, #0
10006b16:	2140      	movs	r1, #64	; 0x40
10006b18:	2000      	movs	r0, #0
10006b1a:	f7ff ff67 	bl	100069ec <hw_endpoint_init>
10006b1e:	2200      	movs	r2, #0
10006b20:	2140      	movs	r1, #64	; 0x40
10006b22:	2080      	movs	r0, #128	; 0x80
10006b24:	f7ff ff62 	bl	100069ec <hw_endpoint_init>
10006b28:	f002 fdb2 	bl	10009690 <__reset_non_control_endpoints_veneer>
10006b2c:	2301      	movs	r3, #1
10006b2e:	642b      	str	r3, [r5, #64]	; 0x40
10006b30:	2380      	movs	r3, #128	; 0x80
10006b32:	059b      	lsls	r3, r3, #22
10006b34:	64eb      	str	r3, [r5, #76]	; 0x4c
10006b36:	2390      	movs	r3, #144	; 0x90
10006b38:	4a09      	ldr	r2, [pc, #36]	; (10006b60 <dcd_init+0x70>)
10006b3a:	50ea      	str	r2, [r5, r3]
10006b3c:	0020      	movs	r0, r4
10006b3e:	f7ff ffcf 	bl	10006ae0 <dcd_connect>
10006b42:	bd70      	pop	{r4, r5, r6, pc}
10006b44:	2186      	movs	r1, #134	; 0x86
10006b46:	4b07      	ldr	r3, [pc, #28]	; (10006b64 <dcd_init+0x74>)
10006b48:	4a07      	ldr	r2, [pc, #28]	; (10006b68 <dcd_init+0x78>)
10006b4a:	31ff      	adds	r1, #255	; 0xff
10006b4c:	4807      	ldr	r0, [pc, #28]	; (10006b6c <dcd_init+0x7c>)
10006b4e:	f7fc fecd 	bl	100038ec <__assert_func>
10006b52:	46c0      	nop			; (mov r8, r8)
10006b54:	50110000 	.word	0x50110000
10006b58:	20000571 	.word	0x20000571
10006b5c:	20001f14 	.word	0x20001f14
10006b60:	0001d010 	.word	0x0001d010
10006b64:	1000ae40 	.word	0x1000ae40
10006b68:	1000aea0 	.word	0x1000aea0
10006b6c:	1000ad88 	.word	0x1000ad88

10006b70 <dcd_edpt0_status_complete>:
10006b70:	780b      	ldrb	r3, [r1, #0]
10006b72:	065b      	lsls	r3, r3, #25
10006b74:	d102      	bne.n	10006b7c <dcd_edpt0_status_complete+0xc>
10006b76:	784b      	ldrb	r3, [r1, #1]
10006b78:	2b05      	cmp	r3, #5
10006b7a:	d000      	beq.n	10006b7e <dcd_edpt0_status_complete+0xe>
10006b7c:	4770      	bx	lr
10006b7e:	788a      	ldrb	r2, [r1, #2]
10006b80:	4b01      	ldr	r3, [pc, #4]	; (10006b88 <dcd_edpt0_status_complete+0x18>)
10006b82:	601a      	str	r2, [r3, #0]
10006b84:	e7fa      	b.n	10006b7c <dcd_edpt0_status_complete+0xc>
10006b86:	46c0      	nop			; (mov r8, r8)
10006b88:	50110000 	.word	0x50110000

10006b8c <dcd_edpt_open>:
10006b8c:	b510      	push	{r4, lr}
10006b8e:	000c      	movs	r4, r1
10006b90:	2800      	cmp	r0, #0
10006b92:	d10d      	bne.n	10006bb0 <dcd_edpt_open+0x24>
10006b94:	7909      	ldrb	r1, [r1, #4]
10006b96:	7963      	ldrb	r3, [r4, #5]
10006b98:	021b      	lsls	r3, r3, #8
10006b9a:	430b      	orrs	r3, r1
10006b9c:	055b      	lsls	r3, r3, #21
10006b9e:	0d59      	lsrs	r1, r3, #21
10006ba0:	78e2      	ldrb	r2, [r4, #3]
10006ba2:	0792      	lsls	r2, r2, #30
10006ba4:	0f92      	lsrs	r2, r2, #30
10006ba6:	78a0      	ldrb	r0, [r4, #2]
10006ba8:	f7ff ff20 	bl	100069ec <hw_endpoint_init>
10006bac:	2001      	movs	r0, #1
10006bae:	bd10      	pop	{r4, pc}
10006bb0:	21fc      	movs	r1, #252	; 0xfc
10006bb2:	4b03      	ldr	r3, [pc, #12]	; (10006bc0 <dcd_edpt_open+0x34>)
10006bb4:	4a03      	ldr	r2, [pc, #12]	; (10006bc4 <dcd_edpt_open+0x38>)
10006bb6:	31ff      	adds	r1, #255	; 0xff
10006bb8:	4803      	ldr	r0, [pc, #12]	; (10006bc8 <dcd_edpt_open+0x3c>)
10006bba:	f7fc fe97 	bl	100038ec <__assert_func>
10006bbe:	46c0      	nop			; (mov r8, r8)
10006bc0:	1000ae40 	.word	0x1000ae40
10006bc4:	1000ae5c 	.word	0x1000ae5c
10006bc8:	1000ad88 	.word	0x1000ad88

10006bcc <dcd_edpt_close_all>:
10006bcc:	b510      	push	{r4, lr}
10006bce:	f002 fd5f 	bl	10009690 <__reset_non_control_endpoints_veneer>
10006bd2:	bd10      	pop	{r4, pc}

10006bd4 <dcd_edpt_xfer>:
10006bd4:	b510      	push	{r4, lr}
10006bd6:	0004      	movs	r4, r0
10006bd8:	0008      	movs	r0, r1
10006bda:	0011      	movs	r1, r2
10006bdc:	001a      	movs	r2, r3
10006bde:	2c00      	cmp	r4, #0
10006be0:	d103      	bne.n	10006bea <dcd_edpt_xfer+0x16>
10006be2:	f7ff ff47 	bl	10006a74 <hw_endpoint_xfer>
10006be6:	2001      	movs	r0, #1
10006be8:	bd10      	pop	{r4, pc}
10006bea:	4b03      	ldr	r3, [pc, #12]	; (10006bf8 <dcd_edpt_xfer+0x24>)
10006bec:	4a03      	ldr	r2, [pc, #12]	; (10006bfc <dcd_edpt_xfer+0x28>)
10006bee:	4904      	ldr	r1, [pc, #16]	; (10006c00 <dcd_edpt_xfer+0x2c>)
10006bf0:	4804      	ldr	r0, [pc, #16]	; (10006c04 <dcd_edpt_xfer+0x30>)
10006bf2:	f7fc fe7b 	bl	100038ec <__assert_func>
10006bf6:	46c0      	nop			; (mov r8, r8)
10006bf8:	1000ae40 	.word	0x1000ae40
10006bfc:	1000ae4c 	.word	0x1000ae4c
10006c00:	0000020a 	.word	0x0000020a
10006c04:	1000ad88 	.word	0x1000ad88

10006c08 <dcd_edpt_stall>:
10006c08:	b510      	push	{r4, lr}
10006c0a:	0008      	movs	r0, r1
10006c0c:	064b      	lsls	r3, r1, #25
10006c0e:	d105      	bne.n	10006c1c <dcd_edpt_stall+0x14>
10006c10:	09cb      	lsrs	r3, r1, #7
10006c12:	2b01      	cmp	r3, #1
10006c14:	d00a      	beq.n	10006c2c <dcd_edpt_stall+0x24>
10006c16:	2202      	movs	r2, #2
10006c18:	4b05      	ldr	r3, [pc, #20]	; (10006c30 <dcd_edpt_stall+0x28>)
10006c1a:	669a      	str	r2, [r3, #104]	; 0x68
10006c1c:	f7ff fea2 	bl	10006964 <hw_endpoint_get_by_addr>
10006c20:	2280      	movs	r2, #128	; 0x80
10006c22:	0112      	lsls	r2, r2, #4
10006c24:	2100      	movs	r1, #0
10006c26:	f002 fd83 	bl	10009730 <___hw_endpoint_buffer_control_update32_veneer>
10006c2a:	bd10      	pop	{r4, pc}
10006c2c:	2201      	movs	r2, #1
10006c2e:	e7f3      	b.n	10006c18 <dcd_edpt_stall+0x10>
10006c30:	50112000 	.word	0x50112000

10006c34 <dcd_edpt_clear_stall>:
10006c34:	b510      	push	{r4, lr}
10006c36:	0008      	movs	r0, r1
10006c38:	064b      	lsls	r3, r1, #25
10006c3a:	d100      	bne.n	10006c3e <dcd_edpt_clear_stall+0xa>
10006c3c:	bd10      	pop	{r4, pc}
10006c3e:	f7ff fe91 	bl	10006964 <hw_endpoint_get_by_addr>
10006c42:	2300      	movs	r3, #0
10006c44:	70c3      	strb	r3, [r0, #3]
10006c46:	2200      	movs	r2, #0
10006c48:	4901      	ldr	r1, [pc, #4]	; (10006c50 <dcd_edpt_clear_stall+0x1c>)
10006c4a:	f002 fd71 	bl	10009730 <___hw_endpoint_buffer_control_update32_veneer>
10006c4e:	e7f5      	b.n	10006c3c <dcd_edpt_clear_stall+0x8>
10006c50:	fffff7ff 	.word	0xfffff7ff

10006c54 <rp2040_usb_init>:
10006c54:	b510      	push	{r4, lr}
10006c56:	2380      	movs	r3, #128	; 0x80
10006c58:	045b      	lsls	r3, r3, #17
10006c5a:	4a0c      	ldr	r2, [pc, #48]	; (10006c8c <rp2040_usb_init+0x38>)
10006c5c:	6013      	str	r3, [r2, #0]
10006c5e:	4a0c      	ldr	r2, [pc, #48]	; (10006c90 <rp2040_usb_init+0x3c>)
10006c60:	6013      	str	r3, [r2, #0]
10006c62:	4b0c      	ldr	r3, [pc, #48]	; (10006c94 <rp2040_usb_init+0x40>)
10006c64:	689a      	ldr	r2, [r3, #8]
10006c66:	2380      	movs	r3, #128	; 0x80
10006c68:	045b      	lsls	r3, r3, #17
10006c6a:	4393      	bics	r3, r2
10006c6c:	d1f9      	bne.n	10006c62 <rp2040_usb_init+0xe>
10006c6e:	4c0a      	ldr	r4, [pc, #40]	; (10006c98 <rp2040_usb_init+0x44>)
10006c70:	229c      	movs	r2, #156	; 0x9c
10006c72:	2100      	movs	r1, #0
10006c74:	0020      	movs	r0, r4
10006c76:	f7ff f8a9 	bl	10005dcc <__wrap_memset>
10006c7a:	2280      	movs	r2, #128	; 0x80
10006c7c:	0152      	lsls	r2, r2, #5
10006c7e:	2100      	movs	r1, #0
10006c80:	4806      	ldr	r0, [pc, #24]	; (10006c9c <rp2040_usb_init+0x48>)
10006c82:	f7ff f8a3 	bl	10005dcc <__wrap_memset>
10006c86:	2309      	movs	r3, #9
10006c88:	6763      	str	r3, [r4, #116]	; 0x74
10006c8a:	bd10      	pop	{r4, pc}
10006c8c:	4000e000 	.word	0x4000e000
10006c90:	4000f000 	.word	0x4000f000
10006c94:	4000c000 	.word	0x4000c000
10006c98:	50110000 	.word	0x50110000
10006c9c:	50100000 	.word	0x50100000

10006ca0 <hw_endpoint_xfer_start>:
10006ca0:	b570      	push	{r4, r5, r6, lr}
10006ca2:	0004      	movs	r4, r0
10006ca4:	000d      	movs	r5, r1
10006ca6:	0016      	movs	r6, r2
10006ca8:	7e83      	ldrb	r3, [r0, #26]
10006caa:	2b00      	cmp	r3, #0
10006cac:	d117      	bne.n	10006cde <hw_endpoint_xfer_start+0x3e>
10006cae:	82a6      	strh	r6, [r4, #20]
10006cb0:	2300      	movs	r3, #0
10006cb2:	82e3      	strh	r3, [r4, #22]
10006cb4:	3301      	adds	r3, #1
10006cb6:	76a3      	strb	r3, [r4, #26]
10006cb8:	6125      	str	r5, [r4, #16]
10006cba:	0020      	movs	r0, r4
10006cbc:	f002 fd18 	bl	100096f0 <__e15_is_bulkin_ep_veneer>
10006cc0:	2800      	cmp	r0, #0
10006cc2:	d004      	beq.n	10006cce <hw_endpoint_xfer_start+0x2e>
10006cc4:	4a09      	ldr	r2, [pc, #36]	; (10006cec <hw_endpoint_xfer_start+0x4c>)
10006cc6:	2390      	movs	r3, #144	; 0x90
10006cc8:	2180      	movs	r1, #128	; 0x80
10006cca:	0289      	lsls	r1, r1, #10
10006ccc:	50d1      	str	r1, [r2, r3]
10006cce:	0020      	movs	r0, r4
10006cd0:	f002 fcce 	bl	10009670 <__e15_is_critical_frame_period_veneer>
10006cd4:	2800      	cmp	r0, #0
10006cd6:	d005      	beq.n	10006ce4 <hw_endpoint_xfer_start+0x44>
10006cd8:	2301      	movs	r3, #1
10006cda:	7723      	strb	r3, [r4, #28]
10006cdc:	bd70      	pop	{r4, r5, r6, pc}
10006cde:	f002 fd1f 	bl	10009720 <__hw_endpoint_reset_transfer_veneer>
10006ce2:	e7e4      	b.n	10006cae <hw_endpoint_xfer_start+0xe>
10006ce4:	0020      	movs	r0, r4
10006ce6:	f002 fd13 	bl	10009710 <__hw_endpoint_start_next_buffer_veneer>
10006cea:	e7f7      	b.n	10006cdc <hw_endpoint_xfer_start+0x3c>
10006cec:	50112000 	.word	0x50112000

10006cf0 <configuration_reset>:
10006cf0:	b570      	push	{r4, r5, r6, lr}
10006cf2:	0005      	movs	r5, r0
10006cf4:	2400      	movs	r4, #0
10006cf6:	e00c      	b.n	10006d12 <configuration_reset+0x22>
10006cf8:	0063      	lsls	r3, r4, #1
10006cfa:	191b      	adds	r3, r3, r4
10006cfc:	00da      	lsls	r2, r3, #3
10006cfe:	4b18      	ldr	r3, [pc, #96]	; (10006d60 <configuration_reset+0x70>)
10006d00:	681b      	ldr	r3, [r3, #0]
10006d02:	189b      	adds	r3, r3, r2
10006d04:	2b00      	cmp	r3, #0
10006d06:	d02a      	beq.n	10006d5e <configuration_reset+0x6e>
10006d08:	685b      	ldr	r3, [r3, #4]
10006d0a:	0028      	movs	r0, r5
10006d0c:	4798      	blx	r3
10006d0e:	3401      	adds	r4, #1
10006d10:	b2e4      	uxtb	r4, r4
10006d12:	4b14      	ldr	r3, [pc, #80]	; (10006d64 <configuration_reset+0x74>)
10006d14:	781b      	ldrb	r3, [r3, #0]
10006d16:	42a3      	cmp	r3, r4
10006d18:	d310      	bcc.n	10006d3c <configuration_reset+0x4c>
10006d1a:	4a13      	ldr	r2, [pc, #76]	; (10006d68 <configuration_reset+0x78>)
10006d1c:	2a00      	cmp	r2, #0
10006d1e:	d00b      	beq.n	10006d38 <configuration_reset+0x48>
10006d20:	42a3      	cmp	r3, r4
10006d22:	d8e9      	bhi.n	10006cf8 <configuration_reset+0x8>
10006d24:	1ae3      	subs	r3, r4, r3
10006d26:	b2db      	uxtb	r3, r3
10006d28:	2b00      	cmp	r3, #0
10006d2a:	d118      	bne.n	10006d5e <configuration_reset+0x6e>
10006d2c:	005a      	lsls	r2, r3, #1
10006d2e:	18d2      	adds	r2, r2, r3
10006d30:	00d2      	lsls	r2, r2, #3
10006d32:	4b0e      	ldr	r3, [pc, #56]	; (10006d6c <configuration_reset+0x7c>)
10006d34:	189b      	adds	r3, r3, r2
10006d36:	e7e5      	b.n	10006d04 <configuration_reset+0x14>
10006d38:	0023      	movs	r3, r4
10006d3a:	e7f5      	b.n	10006d28 <configuration_reset+0x38>
10006d3c:	4c0c      	ldr	r4, [pc, #48]	; (10006d70 <configuration_reset+0x80>)
10006d3e:	2253      	movs	r2, #83	; 0x53
10006d40:	2100      	movs	r1, #0
10006d42:	0020      	movs	r0, r4
10006d44:	f7ff f842 	bl	10005dcc <__wrap_memset>
10006d48:	1ce0      	adds	r0, r4, #3
10006d4a:	2210      	movs	r2, #16
10006d4c:	21ff      	movs	r1, #255	; 0xff
10006d4e:	f7ff f83d 	bl	10005dcc <__wrap_memset>
10006d52:	0020      	movs	r0, r4
10006d54:	3013      	adds	r0, #19
10006d56:	2220      	movs	r2, #32
10006d58:	21ff      	movs	r1, #255	; 0xff
10006d5a:	f7ff f837 	bl	10005dcc <__wrap_memset>
10006d5e:	bd70      	pop	{r4, r5, r6, pc}
10006d60:	20001864 	.word	0x20001864
10006d64:	20002589 	.word	0x20002589
10006d68:	10006381 	.word	0x10006381
10006d6c:	1000b044 	.word	0x1000b044
10006d70:	20001b8c 	.word	0x20001b8c

10006d74 <usbd_reset>:
10006d74:	b510      	push	{r4, lr}
10006d76:	f7ff ffbb 	bl	10006cf0 <configuration_reset>
10006d7a:	f000 fdf1 	bl	10007960 <usbd_control_reset>
10006d7e:	bd10      	pop	{r4, pc}

10006d80 <invoke_class_control>:
10006d80:	b570      	push	{r4, r5, r6, lr}
10006d82:	0005      	movs	r5, r0
10006d84:	000c      	movs	r4, r1
10006d86:	0016      	movs	r6, r2
10006d88:	68c8      	ldr	r0, [r1, #12]
10006d8a:	f000 fdf3 	bl	10007974 <usbd_control_set_complete_callback>
10006d8e:	68e3      	ldr	r3, [r4, #12]
10006d90:	0032      	movs	r2, r6
10006d92:	2101      	movs	r1, #1
10006d94:	0028      	movs	r0, r5
10006d96:	4798      	blx	r3
10006d98:	bd70      	pop	{r4, r5, r6, pc}
	...

10006d9c <process_set_config>:
10006d9c:	b5f0      	push	{r4, r5, r6, r7, lr}
10006d9e:	46de      	mov	lr, fp
10006da0:	4657      	mov	r7, sl
10006da2:	464e      	mov	r6, r9
10006da4:	b5c0      	push	{r6, r7, lr}
10006da6:	b082      	sub	sp, #8
10006da8:	9000      	str	r0, [sp, #0]
10006daa:	3901      	subs	r1, #1
10006dac:	b2c8      	uxtb	r0, r1
10006dae:	f7ff fd43 	bl	10006838 <tud_descriptor_configuration_cb>
10006db2:	2800      	cmp	r0, #0
10006db4:	d100      	bne.n	10006db8 <process_set_config+0x1c>
10006db6:	e08c      	b.n	10006ed2 <process_set_config+0x136>
10006db8:	7843      	ldrb	r3, [r0, #1]
10006dba:	469a      	mov	sl, r3
10006dbc:	2b02      	cmp	r3, #2
10006dbe:	d000      	beq.n	10006dc2 <process_set_config+0x26>
10006dc0:	e089      	b.n	10006ed6 <process_set_config+0x13a>
10006dc2:	79c5      	ldrb	r5, [r0, #7]
10006dc4:	116a      	asrs	r2, r5, #5
10006dc6:	3b01      	subs	r3, #1
10006dc8:	494b      	ldr	r1, [pc, #300]	; (10006ef8 <process_set_config+0x15c>)
10006dca:	401a      	ands	r2, r3
10006dcc:	0114      	lsls	r4, r2, #4
10006dce:	780a      	ldrb	r2, [r1, #0]
10006dd0:	2710      	movs	r7, #16
10006dd2:	43ba      	bics	r2, r7
10006dd4:	4322      	orrs	r2, r4
10006dd6:	700a      	strb	r2, [r1, #0]
10006dd8:	11ad      	asrs	r5, r5, #6
10006dda:	402b      	ands	r3, r5
10006ddc:	015b      	lsls	r3, r3, #5
10006dde:	b2d2      	uxtb	r2, r2
10006de0:	2420      	movs	r4, #32
10006de2:	43a2      	bics	r2, r4
10006de4:	4313      	orrs	r3, r2
10006de6:	700b      	strb	r3, [r1, #0]
10006de8:	0006      	movs	r6, r0
10006dea:	3609      	adds	r6, #9
10006dec:	7882      	ldrb	r2, [r0, #2]
10006dee:	78c4      	ldrb	r4, [r0, #3]
10006df0:	0224      	lsls	r4, r4, #8
10006df2:	4314      	orrs	r4, r2
10006df4:	1904      	adds	r4, r0, r4
10006df6:	42a6      	cmp	r6, r4
10006df8:	d264      	bcs.n	10006ec4 <process_set_config+0x128>
10006dfa:	7873      	ldrb	r3, [r6, #1]
10006dfc:	2b0b      	cmp	r3, #11
10006dfe:	d009      	beq.n	10006e14 <process_set_config+0x78>
10006e00:	2301      	movs	r3, #1
10006e02:	469b      	mov	fp, r3
10006e04:	7873      	ldrb	r3, [r6, #1]
10006e06:	2b04      	cmp	r3, #4
10006e08:	d16c      	bne.n	10006ee4 <process_set_config+0x148>
10006e0a:	1ba3      	subs	r3, r4, r6
10006e0c:	b29b      	uxth	r3, r3
10006e0e:	4699      	mov	r9, r3
10006e10:	2500      	movs	r5, #0
10006e12:	e025      	b.n	10006e60 <process_set_config+0xc4>
10006e14:	78f3      	ldrb	r3, [r6, #3]
10006e16:	469b      	mov	fp, r3
10006e18:	7833      	ldrb	r3, [r6, #0]
10006e1a:	18f6      	adds	r6, r6, r3
10006e1c:	e7f2      	b.n	10006e04 <process_set_config+0x68>
10006e1e:	006f      	lsls	r7, r5, #1
10006e20:	197f      	adds	r7, r7, r5
10006e22:	00fb      	lsls	r3, r7, #3
10006e24:	4a35      	ldr	r2, [pc, #212]	; (10006efc <process_set_config+0x160>)
10006e26:	6817      	ldr	r7, [r2, #0]
10006e28:	18ff      	adds	r7, r7, r3
10006e2a:	e02b      	b.n	10006e84 <process_set_config+0xe8>
10006e2c:	002b      	movs	r3, r5
10006e2e:	e022      	b.n	10006e76 <process_set_config+0xda>
10006e30:	68ba      	ldr	r2, [r7, #8]
10006e32:	4b33      	ldr	r3, [pc, #204]	; (10006f00 <process_set_config+0x164>)
10006e34:	429a      	cmp	r2, r3
10006e36:	d134      	bne.n	10006ea2 <process_set_config+0x106>
10006e38:	46d3      	mov	fp, sl
10006e3a:	e032      	b.n	10006ea2 <process_set_config+0x106>
10006e3c:	482e      	ldr	r0, [pc, #184]	; (10006ef8 <process_set_config+0x15c>)
10006e3e:	002b      	movs	r3, r5
10006e40:	9f01      	ldr	r7, [sp, #4]
10006e42:	003a      	movs	r2, r7
10006e44:	0031      	movs	r1, r6
10006e46:	3013      	adds	r0, #19
10006e48:	f001 f9a2 	bl	10008190 <tu_edpt_bind_driver>
10006e4c:	46bc      	mov	ip, r7
10006e4e:	4466      	add	r6, ip
10006e50:	4b2c      	ldr	r3, [pc, #176]	; (10006f04 <process_set_config+0x168>)
10006e52:	781b      	ldrb	r3, [r3, #0]
10006e54:	42ab      	cmp	r3, r5
10006e56:	d2ce      	bcs.n	10006df6 <process_set_config+0x5a>
10006e58:	2000      	movs	r0, #0
10006e5a:	e03d      	b.n	10006ed8 <process_set_config+0x13c>
10006e5c:	3501      	adds	r5, #1
10006e5e:	b2ed      	uxtb	r5, r5
10006e60:	4b28      	ldr	r3, [pc, #160]	; (10006f04 <process_set_config+0x168>)
10006e62:	781b      	ldrb	r3, [r3, #0]
10006e64:	42ab      	cmp	r3, r5
10006e66:	d3f3      	bcc.n	10006e50 <process_set_config+0xb4>
10006e68:	4a27      	ldr	r2, [pc, #156]	; (10006f08 <process_set_config+0x16c>)
10006e6a:	2a00      	cmp	r2, #0
10006e6c:	d0de      	beq.n	10006e2c <process_set_config+0x90>
10006e6e:	42ab      	cmp	r3, r5
10006e70:	d8d5      	bhi.n	10006e1e <process_set_config+0x82>
10006e72:	1aeb      	subs	r3, r5, r3
10006e74:	b2db      	uxtb	r3, r3
10006e76:	2b00      	cmp	r3, #0
10006e78:	d136      	bne.n	10006ee8 <process_set_config+0x14c>
10006e7a:	005f      	lsls	r7, r3, #1
10006e7c:	18fb      	adds	r3, r7, r3
10006e7e:	00db      	lsls	r3, r3, #3
10006e80:	4f22      	ldr	r7, [pc, #136]	; (10006f0c <process_set_config+0x170>)
10006e82:	18ff      	adds	r7, r7, r3
10006e84:	2f00      	cmp	r7, #0
10006e86:	d031      	beq.n	10006eec <process_set_config+0x150>
10006e88:	464a      	mov	r2, r9
10006e8a:	0031      	movs	r1, r6
10006e8c:	9800      	ldr	r0, [sp, #0]
10006e8e:	68bb      	ldr	r3, [r7, #8]
10006e90:	4798      	blx	r3
10006e92:	9001      	str	r0, [sp, #4]
10006e94:	2808      	cmp	r0, #8
10006e96:	d9e1      	bls.n	10006e5c <process_set_config+0xc0>
10006e98:	4581      	cmp	r9, r0
10006e9a:	d3df      	bcc.n	10006e5c <process_set_config+0xc0>
10006e9c:	465b      	mov	r3, fp
10006e9e:	2b01      	cmp	r3, #1
10006ea0:	d0c6      	beq.n	10006e30 <process_set_config+0x94>
10006ea2:	2200      	movs	r2, #0
10006ea4:	4593      	cmp	fp, r2
10006ea6:	d9c9      	bls.n	10006e3c <process_set_config+0xa0>
10006ea8:	78b3      	ldrb	r3, [r6, #2]
10006eaa:	189b      	adds	r3, r3, r2
10006eac:	b2db      	uxtb	r3, r3
10006eae:	4912      	ldr	r1, [pc, #72]	; (10006ef8 <process_set_config+0x15c>)
10006eb0:	18c9      	adds	r1, r1, r3
10006eb2:	78c9      	ldrb	r1, [r1, #3]
10006eb4:	29ff      	cmp	r1, #255	; 0xff
10006eb6:	d11b      	bne.n	10006ef0 <process_set_config+0x154>
10006eb8:	490f      	ldr	r1, [pc, #60]	; (10006ef8 <process_set_config+0x15c>)
10006eba:	18cb      	adds	r3, r1, r3
10006ebc:	70dd      	strb	r5, [r3, #3]
10006ebe:	3201      	adds	r2, #1
10006ec0:	b2d2      	uxtb	r2, r2
10006ec2:	e7ef      	b.n	10006ea4 <process_set_config+0x108>
10006ec4:	4b12      	ldr	r3, [pc, #72]	; (10006f10 <process_set_config+0x174>)
10006ec6:	2b00      	cmp	r3, #0
10006ec8:	d014      	beq.n	10006ef4 <process_set_config+0x158>
10006eca:	e000      	b.n	10006ece <process_set_config+0x132>
10006ecc:	bf00      	nop
10006ece:	2001      	movs	r0, #1
10006ed0:	e002      	b.n	10006ed8 <process_set_config+0x13c>
10006ed2:	2000      	movs	r0, #0
10006ed4:	e000      	b.n	10006ed8 <process_set_config+0x13c>
10006ed6:	2000      	movs	r0, #0
10006ed8:	b002      	add	sp, #8
10006eda:	bce0      	pop	{r5, r6, r7}
10006edc:	46bb      	mov	fp, r7
10006ede:	46b2      	mov	sl, r6
10006ee0:	46a9      	mov	r9, r5
10006ee2:	bdf0      	pop	{r4, r5, r6, r7, pc}
10006ee4:	2000      	movs	r0, #0
10006ee6:	e7f7      	b.n	10006ed8 <process_set_config+0x13c>
10006ee8:	2000      	movs	r0, #0
10006eea:	e7f5      	b.n	10006ed8 <process_set_config+0x13c>
10006eec:	2000      	movs	r0, #0
10006eee:	e7f3      	b.n	10006ed8 <process_set_config+0x13c>
10006ef0:	2000      	movs	r0, #0
10006ef2:	e7f1      	b.n	10006ed8 <process_set_config+0x13c>
10006ef4:	2001      	movs	r0, #1
10006ef6:	e7ef      	b.n	10006ed8 <process_set_config+0x13c>
10006ef8:	20001b8c 	.word	0x20001b8c
10006efc:	20001864 	.word	0x20001864
10006f00:	10007d45 	.word	0x10007d45
10006f04:	20002589 	.word	0x20002589
10006f08:	10006381 	.word	0x10006381
10006f0c:	1000b044 	.word	0x1000b044
10006f10:	00000000 	.word	0x00000000

10006f14 <process_get_descriptor>:
10006f14:	b570      	push	{r4, r5, r6, lr}
10006f16:	0005      	movs	r5, r0
10006f18:	000c      	movs	r4, r1
10006f1a:	78cb      	ldrb	r3, [r1, #3]
10006f1c:	7888      	ldrb	r0, [r1, #2]
10006f1e:	2b0f      	cmp	r3, #15
10006f20:	d850      	bhi.n	10006fc4 <process_get_descriptor+0xb0>
10006f22:	009a      	lsls	r2, r3, #2
10006f24:	492e      	ldr	r1, [pc, #184]	; (10006fe0 <process_get_descriptor+0xcc>)
10006f26:	588a      	ldr	r2, [r1, r2]
10006f28:	4697      	mov	pc, r2
10006f2a:	f7ff fc81 	bl	10006830 <tud_descriptor_device_cb>
10006f2e:	0002      	movs	r2, r0
10006f30:	2312      	movs	r3, #18
10006f32:	0021      	movs	r1, r4
10006f34:	0028      	movs	r0, r5
10006f36:	f000 fcd9 	bl	100078ec <tud_control_xfer>
10006f3a:	e044      	b.n	10006fc6 <process_get_descriptor+0xb2>
10006f3c:	4b29      	ldr	r3, [pc, #164]	; (10006fe4 <process_get_descriptor+0xd0>)
10006f3e:	2b00      	cmp	r3, #0
10006f40:	d042      	beq.n	10006fc8 <process_get_descriptor+0xb4>
10006f42:	e000      	b.n	10006f46 <process_get_descriptor+0x32>
10006f44:	bf00      	nop
10006f46:	1e02      	subs	r2, r0, #0
10006f48:	d040      	beq.n	10006fcc <process_get_descriptor+0xb8>
10006f4a:	7881      	ldrb	r1, [r0, #2]
10006f4c:	78c3      	ldrb	r3, [r0, #3]
10006f4e:	021b      	lsls	r3, r3, #8
10006f50:	430b      	orrs	r3, r1
10006f52:	0021      	movs	r1, r4
10006f54:	0028      	movs	r0, r5
10006f56:	f000 fcc9 	bl	100078ec <tud_control_xfer>
10006f5a:	e034      	b.n	10006fc6 <process_get_descriptor+0xb2>
10006f5c:	2b02      	cmp	r3, #2
10006f5e:	d009      	beq.n	10006f74 <process_get_descriptor+0x60>
10006f60:	4b21      	ldr	r3, [pc, #132]	; (10006fe8 <process_get_descriptor+0xd4>)
10006f62:	2b00      	cmp	r3, #0
10006f64:	d034      	beq.n	10006fd0 <process_get_descriptor+0xbc>
10006f66:	e000      	b.n	10006f6a <process_get_descriptor+0x56>
10006f68:	bf00      	nop
10006f6a:	0002      	movs	r2, r0
10006f6c:	2a00      	cmp	r2, #0
10006f6e:	d105      	bne.n	10006f7c <process_get_descriptor+0x68>
10006f70:	2000      	movs	r0, #0
10006f72:	e028      	b.n	10006fc6 <process_get_descriptor+0xb2>
10006f74:	f7ff fc60 	bl	10006838 <tud_descriptor_configuration_cb>
10006f78:	0002      	movs	r2, r0
10006f7a:	e7f7      	b.n	10006f6c <process_get_descriptor+0x58>
10006f7c:	7891      	ldrb	r1, [r2, #2]
10006f7e:	78d3      	ldrb	r3, [r2, #3]
10006f80:	021b      	lsls	r3, r3, #8
10006f82:	430b      	orrs	r3, r1
10006f84:	0021      	movs	r1, r4
10006f86:	0028      	movs	r0, r5
10006f88:	f000 fcb0 	bl	100078ec <tud_control_xfer>
10006f8c:	e01b      	b.n	10006fc6 <process_get_descriptor+0xb2>
10006f8e:	7923      	ldrb	r3, [r4, #4]
10006f90:	7961      	ldrb	r1, [r4, #5]
10006f92:	0209      	lsls	r1, r1, #8
10006f94:	4319      	orrs	r1, r3
10006f96:	f7ff fc53 	bl	10006840 <tud_descriptor_string_cb>
10006f9a:	1e02      	subs	r2, r0, #0
10006f9c:	d01a      	beq.n	10006fd4 <process_get_descriptor+0xc0>
10006f9e:	7803      	ldrb	r3, [r0, #0]
10006fa0:	0021      	movs	r1, r4
10006fa2:	0028      	movs	r0, r5
10006fa4:	f000 fca2 	bl	100078ec <tud_control_xfer>
10006fa8:	e00d      	b.n	10006fc6 <process_get_descriptor+0xb2>
10006faa:	4b10      	ldr	r3, [pc, #64]	; (10006fec <process_get_descriptor+0xd8>)
10006fac:	2b00      	cmp	r3, #0
10006fae:	d013      	beq.n	10006fd8 <process_get_descriptor+0xc4>
10006fb0:	e000      	b.n	10006fb4 <process_get_descriptor+0xa0>
10006fb2:	bf00      	nop
10006fb4:	1e02      	subs	r2, r0, #0
10006fb6:	d011      	beq.n	10006fdc <process_get_descriptor+0xc8>
10006fb8:	7803      	ldrb	r3, [r0, #0]
10006fba:	0021      	movs	r1, r4
10006fbc:	0028      	movs	r0, r5
10006fbe:	f000 fc95 	bl	100078ec <tud_control_xfer>
10006fc2:	e000      	b.n	10006fc6 <process_get_descriptor+0xb2>
10006fc4:	2000      	movs	r0, #0
10006fc6:	bd70      	pop	{r4, r5, r6, pc}
10006fc8:	2000      	movs	r0, #0
10006fca:	e7fc      	b.n	10006fc6 <process_get_descriptor+0xb2>
10006fcc:	2000      	movs	r0, #0
10006fce:	e7fa      	b.n	10006fc6 <process_get_descriptor+0xb2>
10006fd0:	2000      	movs	r0, #0
10006fd2:	e7f8      	b.n	10006fc6 <process_get_descriptor+0xb2>
10006fd4:	2000      	movs	r0, #0
10006fd6:	e7f6      	b.n	10006fc6 <process_get_descriptor+0xb2>
10006fd8:	2000      	movs	r0, #0
10006fda:	e7f4      	b.n	10006fc6 <process_get_descriptor+0xb2>
10006fdc:	2000      	movs	r0, #0
10006fde:	e7f2      	b.n	10006fc6 <process_get_descriptor+0xb2>
10006fe0:	1000afb8 	.word	0x1000afb8
	...

10006ff0 <tud_mounted>:
10006ff0:	4b02      	ldr	r3, [pc, #8]	; (10006ffc <tud_mounted+0xc>)
10006ff2:	7858      	ldrb	r0, [r3, #1]
10006ff4:	1e43      	subs	r3, r0, #1
10006ff6:	4198      	sbcs	r0, r3
10006ff8:	b2c0      	uxtb	r0, r0
10006ffa:	4770      	bx	lr
10006ffc:	20001b8c 	.word	0x20001b8c

10007000 <tud_suspended>:
10007000:	4b02      	ldr	r3, [pc, #8]	; (1000700c <tud_suspended+0xc>)
10007002:	7818      	ldrb	r0, [r3, #0]
10007004:	0740      	lsls	r0, r0, #29
10007006:	0fc0      	lsrs	r0, r0, #31
10007008:	4770      	bx	lr
1000700a:	46c0      	nop			; (mov r8, r8)
1000700c:	20001b8c 	.word	0x20001b8c

10007010 <tud_inited>:
10007010:	4b03      	ldr	r3, [pc, #12]	; (10007020 <tud_inited+0x10>)
10007012:	7818      	ldrb	r0, [r3, #0]
10007014:	38ff      	subs	r0, #255	; 0xff
10007016:	1e43      	subs	r3, r0, #1
10007018:	4198      	sbcs	r0, r3
1000701a:	b2c0      	uxtb	r0, r0
1000701c:	4770      	bx	lr
1000701e:	46c0      	nop			; (mov r8, r8)
10007020:	20000de4 	.word	0x20000de4

10007024 <tud_init>:
10007024:	b570      	push	{r4, r5, r6, lr}
10007026:	0004      	movs	r4, r0
10007028:	f7ff fff2 	bl	10007010 <tud_inited>
1000702c:	1e06      	subs	r6, r0, #0
1000702e:	d001      	beq.n	10007034 <tud_init+0x10>
10007030:	0030      	movs	r0, r6
10007032:	bd70      	pop	{r4, r5, r6, pc}
10007034:	2253      	movs	r2, #83	; 0x53
10007036:	2100      	movs	r1, #0
10007038:	4823      	ldr	r0, [pc, #140]	; (100070c8 <tud_init+0xa4>)
1000703a:	f7fe fec7 	bl	10005dcc <__wrap_memset>
1000703e:	4d23      	ldr	r5, [pc, #140]	; (100070cc <tud_init+0xa8>)
10007040:	0028      	movs	r0, r5
10007042:	f7fa ffc5 	bl	10001fd0 <mutex_init>
10007046:	4b22      	ldr	r3, [pc, #136]	; (100070d0 <tud_init+0xac>)
10007048:	601d      	str	r5, [r3, #0]
1000704a:	4d22      	ldr	r5, [pc, #136]	; (100070d4 <tud_init+0xb0>)
1000704c:	0028      	movs	r0, r5
1000704e:	3014      	adds	r0, #20
10007050:	f7fa ffe4 	bl	1000201c <critical_section_init>
10007054:	0028      	movs	r0, r5
10007056:	f001 fbf0 	bl	1000883a <tu_fifo_clear>
1000705a:	4b1f      	ldr	r3, [pc, #124]	; (100070d8 <tud_init+0xb4>)
1000705c:	601d      	str	r5, [r3, #0]
1000705e:	4b1f      	ldr	r3, [pc, #124]	; (100070dc <tud_init+0xb8>)
10007060:	2b00      	cmp	r3, #0
10007062:	d004      	beq.n	1000706e <tud_init+0x4a>
10007064:	481e      	ldr	r0, [pc, #120]	; (100070e0 <tud_init+0xbc>)
10007066:	f7ff f98b 	bl	10006380 <usbd_app_driver_get_cb>
1000706a:	4b1e      	ldr	r3, [pc, #120]	; (100070e4 <tud_init+0xc0>)
1000706c:	6018      	str	r0, [r3, #0]
1000706e:	2500      	movs	r5, #0
10007070:	e00b      	b.n	1000708a <tud_init+0x66>
10007072:	006b      	lsls	r3, r5, #1
10007074:	195b      	adds	r3, r3, r5
10007076:	00da      	lsls	r2, r3, #3
10007078:	4b1a      	ldr	r3, [pc, #104]	; (100070e4 <tud_init+0xc0>)
1000707a:	681b      	ldr	r3, [r3, #0]
1000707c:	189b      	adds	r3, r3, r2
1000707e:	2b00      	cmp	r3, #0
10007080:	d0d6      	beq.n	10007030 <tud_init+0xc>
10007082:	681b      	ldr	r3, [r3, #0]
10007084:	4798      	blx	r3
10007086:	3501      	adds	r5, #1
10007088:	b2ed      	uxtb	r5, r5
1000708a:	4b15      	ldr	r3, [pc, #84]	; (100070e0 <tud_init+0xbc>)
1000708c:	781b      	ldrb	r3, [r3, #0]
1000708e:	42ab      	cmp	r3, r5
10007090:	d310      	bcc.n	100070b4 <tud_init+0x90>
10007092:	4a12      	ldr	r2, [pc, #72]	; (100070dc <tud_init+0xb8>)
10007094:	2a00      	cmp	r2, #0
10007096:	d00b      	beq.n	100070b0 <tud_init+0x8c>
10007098:	42ab      	cmp	r3, r5
1000709a:	d8ea      	bhi.n	10007072 <tud_init+0x4e>
1000709c:	1aeb      	subs	r3, r5, r3
1000709e:	b2db      	uxtb	r3, r3
100070a0:	2b00      	cmp	r3, #0
100070a2:	d1c5      	bne.n	10007030 <tud_init+0xc>
100070a4:	005a      	lsls	r2, r3, #1
100070a6:	18d2      	adds	r2, r2, r3
100070a8:	00d2      	lsls	r2, r2, #3
100070aa:	4b0f      	ldr	r3, [pc, #60]	; (100070e8 <tud_init+0xc4>)
100070ac:	189b      	adds	r3, r3, r2
100070ae:	e7e6      	b.n	1000707e <tud_init+0x5a>
100070b0:	002b      	movs	r3, r5
100070b2:	e7f5      	b.n	100070a0 <tud_init+0x7c>
100070b4:	4b0d      	ldr	r3, [pc, #52]	; (100070ec <tud_init+0xc8>)
100070b6:	701c      	strb	r4, [r3, #0]
100070b8:	0020      	movs	r0, r4
100070ba:	f7ff fd19 	bl	10006af0 <dcd_init>
100070be:	0020      	movs	r0, r4
100070c0:	f7ff fce2 	bl	10006a88 <dcd_int_enable>
100070c4:	2601      	movs	r6, #1
100070c6:	e7b3      	b.n	10007030 <tud_init+0xc>
100070c8:	20001b8c 	.word	0x20001b8c
100070cc:	20001b44 	.word	0x20001b44
100070d0:	20001be0 	.word	0x20001be0
100070d4:	20000dc8 	.word	0x20000dc8
100070d8:	20001be4 	.word	0x20001be4
100070dc:	10006381 	.word	0x10006381
100070e0:	20002589 	.word	0x20002589
100070e4:	20001864 	.word	0x20001864
100070e8:	1000b044 	.word	0x1000b044
100070ec:	20000de4 	.word	0x20000de4

100070f0 <usbd_defer_func>:
100070f0:	b5f0      	push	{r4, r5, r6, r7, lr}
100070f2:	b085      	sub	sp, #20
100070f4:	0007      	movs	r7, r0
100070f6:	000e      	movs	r6, r1
100070f8:	0015      	movs	r5, r2
100070fa:	ac01      	add	r4, sp, #4
100070fc:	220c      	movs	r2, #12
100070fe:	2100      	movs	r1, #0
10007100:	0020      	movs	r0, r4
10007102:	f7fe fe63 	bl	10005dcc <__wrap_memset>
10007106:	2308      	movs	r3, #8
10007108:	7063      	strb	r3, [r4, #1]
1000710a:	9702      	str	r7, [sp, #8]
1000710c:	9603      	str	r6, [sp, #12]
1000710e:	0029      	movs	r1, r5
10007110:	0020      	movs	r0, r4
10007112:	f002 fae5 	bl	100096e0 <__dcd_event_handler_veneer>
10007116:	b005      	add	sp, #20
10007118:	bdf0      	pop	{r4, r5, r6, r7, pc}
	...

1000711c <usbd_edpt_open>:
1000711c:	b570      	push	{r4, r5, r6, lr}
1000711e:	000c      	movs	r4, r1
10007120:	4b09      	ldr	r3, [pc, #36]	; (10007148 <usbd_edpt_open+0x2c>)
10007122:	781d      	ldrb	r5, [r3, #0]
10007124:	788b      	ldrb	r3, [r1, #2]
10007126:	2270      	movs	r2, #112	; 0x70
10007128:	421a      	tst	r2, r3
1000712a:	d001      	beq.n	10007130 <usbd_edpt_open+0x14>
1000712c:	2000      	movs	r0, #0
1000712e:	bd70      	pop	{r4, r5, r6, pc}
10007130:	4b06      	ldr	r3, [pc, #24]	; (1000714c <usbd_edpt_open+0x30>)
10007132:	7899      	ldrb	r1, [r3, #2]
10007134:	0020      	movs	r0, r4
10007136:	f000 ffef 	bl	10008118 <tu_edpt_validate>
1000713a:	2800      	cmp	r0, #0
1000713c:	d0f7      	beq.n	1000712e <usbd_edpt_open+0x12>
1000713e:	0021      	movs	r1, r4
10007140:	0028      	movs	r0, r5
10007142:	f7ff fd23 	bl	10006b8c <dcd_edpt_open>
10007146:	e7f2      	b.n	1000712e <usbd_edpt_open+0x12>
10007148:	20000de4 	.word	0x20000de4
1000714c:	20001b8c 	.word	0x20001b8c

10007150 <usbd_open_edpt_pair>:
10007150:	b5f8      	push	{r3, r4, r5, r6, r7, lr}
10007152:	46ce      	mov	lr, r9
10007154:	4647      	mov	r7, r8
10007156:	b580      	push	{r7, lr}
10007158:	4681      	mov	r9, r0
1000715a:	000c      	movs	r4, r1
1000715c:	0017      	movs	r7, r2
1000715e:	001e      	movs	r6, r3
10007160:	9b08      	ldr	r3, [sp, #32]
10007162:	4698      	mov	r8, r3
10007164:	2500      	movs	r5, #0
10007166:	e004      	b.n	10007172 <usbd_open_edpt_pair+0x22>
10007168:	9a09      	ldr	r2, [sp, #36]	; 0x24
1000716a:	7013      	strb	r3, [r2, #0]
1000716c:	7823      	ldrb	r3, [r4, #0]
1000716e:	18e4      	adds	r4, r4, r3
10007170:	3501      	adds	r5, #1
10007172:	42af      	cmp	r7, r5
10007174:	dd14      	ble.n	100071a0 <usbd_open_edpt_pair+0x50>
10007176:	7863      	ldrb	r3, [r4, #1]
10007178:	2b05      	cmp	r3, #5
1000717a:	d116      	bne.n	100071aa <usbd_open_edpt_pair+0x5a>
1000717c:	78e1      	ldrb	r1, [r4, #3]
1000717e:	0789      	lsls	r1, r1, #30
10007180:	0f89      	lsrs	r1, r1, #30
10007182:	42b1      	cmp	r1, r6
10007184:	d113      	bne.n	100071ae <usbd_open_edpt_pair+0x5e>
10007186:	0021      	movs	r1, r4
10007188:	4648      	mov	r0, r9
1000718a:	f7ff ffc7 	bl	1000711c <usbd_edpt_open>
1000718e:	2800      	cmp	r0, #0
10007190:	d007      	beq.n	100071a2 <usbd_open_edpt_pair+0x52>
10007192:	78a3      	ldrb	r3, [r4, #2]
10007194:	09da      	lsrs	r2, r3, #7
10007196:	2a01      	cmp	r2, #1
10007198:	d0e6      	beq.n	10007168 <usbd_open_edpt_pair+0x18>
1000719a:	4642      	mov	r2, r8
1000719c:	7013      	strb	r3, [r2, #0]
1000719e:	e7e5      	b.n	1000716c <usbd_open_edpt_pair+0x1c>
100071a0:	2001      	movs	r0, #1
100071a2:	bcc0      	pop	{r6, r7}
100071a4:	46b9      	mov	r9, r7
100071a6:	46b0      	mov	r8, r6
100071a8:	bdf8      	pop	{r3, r4, r5, r6, r7, pc}
100071aa:	2000      	movs	r0, #0
100071ac:	e7f9      	b.n	100071a2 <usbd_open_edpt_pair+0x52>
100071ae:	2000      	movs	r0, #0
100071b0:	e7f7      	b.n	100071a2 <usbd_open_edpt_pair+0x52>
	...

100071b4 <usbd_edpt_claim>:
100071b4:	b510      	push	{r4, lr}
100071b6:	207f      	movs	r0, #127	; 0x7f
100071b8:	4008      	ands	r0, r1
100071ba:	09c9      	lsrs	r1, r1, #7
100071bc:	0040      	lsls	r0, r0, #1
100071be:	1840      	adds	r0, r0, r1
100071c0:	3030      	adds	r0, #48	; 0x30
100071c2:	4904      	ldr	r1, [pc, #16]	; (100071d4 <usbd_edpt_claim+0x20>)
100071c4:	1808      	adds	r0, r1, r0
100071c6:	3003      	adds	r0, #3
100071c8:	4b03      	ldr	r3, [pc, #12]	; (100071d8 <usbd_edpt_claim+0x24>)
100071ca:	6819      	ldr	r1, [r3, #0]
100071cc:	f000 ff5e 	bl	1000808c <tu_edpt_claim>
100071d0:	bd10      	pop	{r4, pc}
100071d2:	46c0      	nop			; (mov r8, r8)
100071d4:	20001b8c 	.word	0x20001b8c
100071d8:	20001be0 	.word	0x20001be0

100071dc <usbd_edpt_release>:
100071dc:	b510      	push	{r4, lr}
100071de:	207f      	movs	r0, #127	; 0x7f
100071e0:	4008      	ands	r0, r1
100071e2:	09c9      	lsrs	r1, r1, #7
100071e4:	0040      	lsls	r0, r0, #1
100071e6:	1840      	adds	r0, r0, r1
100071e8:	3030      	adds	r0, #48	; 0x30
100071ea:	4904      	ldr	r1, [pc, #16]	; (100071fc <usbd_edpt_release+0x20>)
100071ec:	1808      	adds	r0, r1, r0
100071ee:	3003      	adds	r0, #3
100071f0:	4b03      	ldr	r3, [pc, #12]	; (10007200 <usbd_edpt_release+0x24>)
100071f2:	6819      	ldr	r1, [r3, #0]
100071f4:	f000 ff72 	bl	100080dc <tu_edpt_release>
100071f8:	bd10      	pop	{r4, pc}
100071fa:	46c0      	nop			; (mov r8, r8)
100071fc:	20001b8c 	.word	0x20001b8c
10007200:	20001be0 	.word	0x20001be0

10007204 <usbd_edpt_xfer>:
10007204:	b5f8      	push	{r3, r4, r5, r6, r7, lr}
10007206:	46ce      	mov	lr, r9
10007208:	4647      	mov	r7, r8
1000720a:	b580      	push	{r7, lr}
1000720c:	4819      	ldr	r0, [pc, #100]	; (10007274 <usbd_edpt_xfer+0x70>)
1000720e:	7800      	ldrb	r0, [r0, #0]
10007210:	257f      	movs	r5, #127	; 0x7f
10007212:	400d      	ands	r5, r1
10007214:	09ce      	lsrs	r6, r1, #7
10007216:	006f      	lsls	r7, r5, #1
10007218:	4c17      	ldr	r4, [pc, #92]	; (10007278 <usbd_edpt_xfer+0x74>)
1000721a:	19e4      	adds	r4, r4, r7
1000721c:	19a4      	adds	r4, r4, r6
1000721e:	3430      	adds	r4, #48	; 0x30
10007220:	78e4      	ldrb	r4, [r4, #3]
10007222:	07e4      	lsls	r4, r4, #31
10007224:	d504      	bpl.n	10007230 <usbd_edpt_xfer+0x2c>
10007226:	2000      	movs	r0, #0
10007228:	bcc0      	pop	{r6, r7}
1000722a:	46b9      	mov	r9, r7
1000722c:	46b0      	mov	r8, r6
1000722e:	bdf8      	pop	{r3, r4, r5, r6, r7, pc}
10007230:	4c11      	ldr	r4, [pc, #68]	; (10007278 <usbd_edpt_xfer+0x74>)
10007232:	19e4      	adds	r4, r4, r7
10007234:	19a4      	adds	r4, r4, r6
10007236:	2730      	movs	r7, #48	; 0x30
10007238:	46b9      	mov	r9, r7
1000723a:	44a1      	add	r9, r4
1000723c:	464c      	mov	r4, r9
1000723e:	78e4      	ldrb	r4, [r4, #3]
10007240:	2701      	movs	r7, #1
10007242:	46bc      	mov	ip, r7
10007244:	4667      	mov	r7, ip
10007246:	433c      	orrs	r4, r7
10007248:	0027      	movs	r7, r4
1000724a:	464c      	mov	r4, r9
1000724c:	70e7      	strb	r7, [r4, #3]
1000724e:	f7ff fcc1 	bl	10006bd4 <dcd_edpt_xfer>
10007252:	2800      	cmp	r0, #0
10007254:	d1e8      	bne.n	10007228 <usbd_edpt_xfer+0x24>
10007256:	006d      	lsls	r5, r5, #1
10007258:	4b07      	ldr	r3, [pc, #28]	; (10007278 <usbd_edpt_xfer+0x74>)
1000725a:	195d      	adds	r5, r3, r5
1000725c:	19ae      	adds	r6, r5, r6
1000725e:	3630      	adds	r6, #48	; 0x30
10007260:	78f3      	ldrb	r3, [r6, #3]
10007262:	2201      	movs	r2, #1
10007264:	4393      	bics	r3, r2
10007266:	70f3      	strb	r3, [r6, #3]
10007268:	78f3      	ldrb	r3, [r6, #3]
1000726a:	3203      	adds	r2, #3
1000726c:	4393      	bics	r3, r2
1000726e:	70f3      	strb	r3, [r6, #3]
10007270:	e7da      	b.n	10007228 <usbd_edpt_xfer+0x24>
10007272:	46c0      	nop			; (mov r8, r8)
10007274:	20000de4 	.word	0x20000de4
10007278:	20001b8c 	.word	0x20001b8c

1000727c <usbd_edpt_stall>:
1000727c:	b570      	push	{r4, r5, r6, lr}
1000727e:	4b0f      	ldr	r3, [pc, #60]	; (100072bc <usbd_edpt_stall+0x40>)
10007280:	7818      	ldrb	r0, [r3, #0]
10007282:	247f      	movs	r4, #127	; 0x7f
10007284:	400c      	ands	r4, r1
10007286:	09cd      	lsrs	r5, r1, #7
10007288:	0062      	lsls	r2, r4, #1
1000728a:	4b0d      	ldr	r3, [pc, #52]	; (100072c0 <usbd_edpt_stall+0x44>)
1000728c:	189b      	adds	r3, r3, r2
1000728e:	195b      	adds	r3, r3, r5
10007290:	3330      	adds	r3, #48	; 0x30
10007292:	78db      	ldrb	r3, [r3, #3]
10007294:	079b      	lsls	r3, r3, #30
10007296:	d500      	bpl.n	1000729a <usbd_edpt_stall+0x1e>
10007298:	bd70      	pop	{r4, r5, r6, pc}
1000729a:	f7ff fcb5 	bl	10006c08 <dcd_edpt_stall>
1000729e:	0063      	lsls	r3, r4, #1
100072a0:	4c07      	ldr	r4, [pc, #28]	; (100072c0 <usbd_edpt_stall+0x44>)
100072a2:	18e4      	adds	r4, r4, r3
100072a4:	1964      	adds	r4, r4, r5
100072a6:	3430      	adds	r4, #48	; 0x30
100072a8:	78e3      	ldrb	r3, [r4, #3]
100072aa:	2202      	movs	r2, #2
100072ac:	4313      	orrs	r3, r2
100072ae:	70e3      	strb	r3, [r4, #3]
100072b0:	78e3      	ldrb	r3, [r4, #3]
100072b2:	2201      	movs	r2, #1
100072b4:	4313      	orrs	r3, r2
100072b6:	70e3      	strb	r3, [r4, #3]
100072b8:	e7ee      	b.n	10007298 <usbd_edpt_stall+0x1c>
100072ba:	46c0      	nop			; (mov r8, r8)
100072bc:	20000de4 	.word	0x20000de4
100072c0:	20001b8c 	.word	0x20001b8c

100072c4 <usbd_edpt_clear_stall>:
100072c4:	b570      	push	{r4, r5, r6, lr}
100072c6:	4b0f      	ldr	r3, [pc, #60]	; (10007304 <usbd_edpt_clear_stall+0x40>)
100072c8:	7818      	ldrb	r0, [r3, #0]
100072ca:	247f      	movs	r4, #127	; 0x7f
100072cc:	400c      	ands	r4, r1
100072ce:	09cd      	lsrs	r5, r1, #7
100072d0:	0062      	lsls	r2, r4, #1
100072d2:	4b0d      	ldr	r3, [pc, #52]	; (10007308 <usbd_edpt_clear_stall+0x44>)
100072d4:	189b      	adds	r3, r3, r2
100072d6:	195b      	adds	r3, r3, r5
100072d8:	3330      	adds	r3, #48	; 0x30
100072da:	78db      	ldrb	r3, [r3, #3]
100072dc:	079b      	lsls	r3, r3, #30
100072de:	d400      	bmi.n	100072e2 <usbd_edpt_clear_stall+0x1e>
100072e0:	bd70      	pop	{r4, r5, r6, pc}
100072e2:	f7ff fca7 	bl	10006c34 <dcd_edpt_clear_stall>
100072e6:	0063      	lsls	r3, r4, #1
100072e8:	4c07      	ldr	r4, [pc, #28]	; (10007308 <usbd_edpt_clear_stall+0x44>)
100072ea:	18e4      	adds	r4, r4, r3
100072ec:	1964      	adds	r4, r4, r5
100072ee:	3430      	adds	r4, #48	; 0x30
100072f0:	78e3      	ldrb	r3, [r4, #3]
100072f2:	2202      	movs	r2, #2
100072f4:	4393      	bics	r3, r2
100072f6:	70e3      	strb	r3, [r4, #3]
100072f8:	78e3      	ldrb	r3, [r4, #3]
100072fa:	3a01      	subs	r2, #1
100072fc:	4393      	bics	r3, r2
100072fe:	70e3      	strb	r3, [r4, #3]
10007300:	e7ee      	b.n	100072e0 <usbd_edpt_clear_stall+0x1c>
10007302:	46c0      	nop			; (mov r8, r8)
10007304:	20000de4 	.word	0x20000de4
10007308:	20001b8c 	.word	0x20001b8c

1000730c <usbd_edpt_stalled>:
1000730c:	227f      	movs	r2, #127	; 0x7f
1000730e:	400a      	ands	r2, r1
10007310:	09cb      	lsrs	r3, r1, #7
10007312:	0052      	lsls	r2, r2, #1
10007314:	4903      	ldr	r1, [pc, #12]	; (10007324 <usbd_edpt_stalled+0x18>)
10007316:	1889      	adds	r1, r1, r2
10007318:	18c9      	adds	r1, r1, r3
1000731a:	3130      	adds	r1, #48	; 0x30
1000731c:	78c8      	ldrb	r0, [r1, #3]
1000731e:	0780      	lsls	r0, r0, #30
10007320:	0fc0      	lsrs	r0, r0, #31
10007322:	4770      	bx	lr
10007324:	20001b8c 	.word	0x20001b8c

10007328 <process_control_request>:
10007328:	b5f0      	push	{r4, r5, r6, r7, lr}
1000732a:	46c6      	mov	lr, r8
1000732c:	b500      	push	{lr}
1000732e:	b082      	sub	sp, #8
10007330:	0005      	movs	r5, r0
10007332:	000c      	movs	r4, r1
10007334:	2000      	movs	r0, #0
10007336:	f000 fb1d 	bl	10007974 <usbd_control_set_complete_callback>
1000733a:	7823      	ldrb	r3, [r4, #0]
1000733c:	2260      	movs	r2, #96	; 0x60
1000733e:	4013      	ands	r3, r2
10007340:	2b60      	cmp	r3, #96	; 0x60
10007342:	d100      	bne.n	10007346 <process_control_request+0x1e>
10007344:	e185      	b.n	10007652 <process_control_request+0x32a>
10007346:	2b40      	cmp	r3, #64	; 0x40
10007348:	d00f      	beq.n	1000736a <process_control_request+0x42>
1000734a:	7822      	ldrb	r2, [r4, #0]
1000734c:	06d2      	lsls	r2, r2, #27
1000734e:	0ed2      	lsrs	r2, r2, #27
10007350:	2a01      	cmp	r2, #1
10007352:	d100      	bne.n	10007356 <process_control_request+0x2e>
10007354:	e0c9      	b.n	100074ea <process_control_request+0x1c2>
10007356:	2a02      	cmp	r2, #2
10007358:	d100      	bne.n	1000735c <process_control_request+0x34>
1000735a:	e10f      	b.n	1000757c <process_control_request+0x254>
1000735c:	2a00      	cmp	r2, #0
1000735e:	d011      	beq.n	10007384 <process_control_request+0x5c>
10007360:	2000      	movs	r0, #0
10007362:	b002      	add	sp, #8
10007364:	bc80      	pop	{r7}
10007366:	46b8      	mov	r8, r7
10007368:	bdf0      	pop	{r4, r5, r6, r7, pc}
1000736a:	4bc7      	ldr	r3, [pc, #796]	; (10007688 <process_control_request+0x360>)
1000736c:	2b00      	cmp	r3, #0
1000736e:	d100      	bne.n	10007372 <process_control_request+0x4a>
10007370:	e171      	b.n	10007656 <process_control_request+0x32e>
10007372:	0018      	movs	r0, r3
10007374:	f000 fafe 	bl	10007974 <usbd_control_set_complete_callback>
10007378:	0022      	movs	r2, r4
1000737a:	2101      	movs	r1, #1
1000737c:	0028      	movs	r0, r5
1000737e:	e000      	b.n	10007382 <process_control_request+0x5a>
10007380:	bf00      	nop
10007382:	e7ee      	b.n	10007362 <process_control_request+0x3a>
10007384:	2b20      	cmp	r3, #32
10007386:	d00a      	beq.n	1000739e <process_control_request+0x76>
10007388:	2b00      	cmp	r3, #0
1000738a:	d000      	beq.n	1000738e <process_control_request+0x66>
1000738c:	e16b      	b.n	10007666 <process_control_request+0x33e>
1000738e:	7863      	ldrb	r3, [r4, #1]
10007390:	2b09      	cmp	r3, #9
10007392:	d900      	bls.n	10007396 <process_control_request+0x6e>
10007394:	e169      	b.n	1000766a <process_control_request+0x342>
10007396:	009b      	lsls	r3, r3, #2
10007398:	4abc      	ldr	r2, [pc, #752]	; (1000768c <process_control_request+0x364>)
1000739a:	58d3      	ldr	r3, [r2, r3]
1000739c:	469f      	mov	pc, r3
1000739e:	7923      	ldrb	r3, [r4, #4]
100073a0:	2b0f      	cmp	r3, #15
100073a2:	d900      	bls.n	100073a6 <process_control_request+0x7e>
100073a4:	e159      	b.n	1000765a <process_control_request+0x332>
100073a6:	4aba      	ldr	r2, [pc, #744]	; (10007690 <process_control_request+0x368>)
100073a8:	18d3      	adds	r3, r2, r3
100073aa:	78db      	ldrb	r3, [r3, #3]
100073ac:	4ab9      	ldr	r2, [pc, #740]	; (10007694 <process_control_request+0x36c>)
100073ae:	2a00      	cmp	r2, #0
100073b0:	d005      	beq.n	100073be <process_control_request+0x96>
100073b2:	4ab9      	ldr	r2, [pc, #740]	; (10007698 <process_control_request+0x370>)
100073b4:	7812      	ldrb	r2, [r2, #0]
100073b6:	4293      	cmp	r3, r2
100073b8:	d311      	bcc.n	100073de <process_control_request+0xb6>
100073ba:	1a9b      	subs	r3, r3, r2
100073bc:	b2db      	uxtb	r3, r3
100073be:	2b00      	cmp	r3, #0
100073c0:	d000      	beq.n	100073c4 <process_control_request+0x9c>
100073c2:	e14c      	b.n	1000765e <process_control_request+0x336>
100073c4:	0059      	lsls	r1, r3, #1
100073c6:	18cb      	adds	r3, r1, r3
100073c8:	00db      	lsls	r3, r3, #3
100073ca:	49b4      	ldr	r1, [pc, #720]	; (1000769c <process_control_request+0x374>)
100073cc:	18c9      	adds	r1, r1, r3
100073ce:	2900      	cmp	r1, #0
100073d0:	d100      	bne.n	100073d4 <process_control_request+0xac>
100073d2:	e146      	b.n	10007662 <process_control_request+0x33a>
100073d4:	0022      	movs	r2, r4
100073d6:	0028      	movs	r0, r5
100073d8:	f7ff fcd2 	bl	10006d80 <invoke_class_control>
100073dc:	e7c1      	b.n	10007362 <process_control_request+0x3a>
100073de:	0059      	lsls	r1, r3, #1
100073e0:	18cb      	adds	r3, r1, r3
100073e2:	00db      	lsls	r3, r3, #3
100073e4:	4aae      	ldr	r2, [pc, #696]	; (100076a0 <process_control_request+0x378>)
100073e6:	6811      	ldr	r1, [r2, #0]
100073e8:	18c9      	adds	r1, r1, r3
100073ea:	e7f0      	b.n	100073ce <process_control_request+0xa6>
100073ec:	0020      	movs	r0, r4
100073ee:	f000 fac7 	bl	10007980 <usbd_control_set_request>
100073f2:	78a1      	ldrb	r1, [r4, #2]
100073f4:	0028      	movs	r0, r5
100073f6:	f7ff fb5d 	bl	10006ab4 <dcd_set_address>
100073fa:	4aa5      	ldr	r2, [pc, #660]	; (10007690 <process_control_request+0x368>)
100073fc:	7813      	ldrb	r3, [r2, #0]
100073fe:	2102      	movs	r1, #2
10007400:	430b      	orrs	r3, r1
10007402:	7013      	strb	r3, [r2, #0]
10007404:	2001      	movs	r0, #1
10007406:	e7ac      	b.n	10007362 <process_control_request+0x3a>
10007408:	4ba1      	ldr	r3, [pc, #644]	; (10007690 <process_control_request+0x368>)
1000740a:	785b      	ldrb	r3, [r3, #1]
1000740c:	466a      	mov	r2, sp
1000740e:	3206      	adds	r2, #6
10007410:	7013      	strb	r3, [r2, #0]
10007412:	2301      	movs	r3, #1
10007414:	0021      	movs	r1, r4
10007416:	0028      	movs	r0, r5
10007418:	f000 fa68 	bl	100078ec <tud_control_xfer>
1000741c:	2001      	movs	r0, #1
1000741e:	e7a0      	b.n	10007362 <process_control_request+0x3a>
10007420:	78a6      	ldrb	r6, [r4, #2]
10007422:	4b9b      	ldr	r3, [pc, #620]	; (10007690 <process_control_request+0x368>)
10007424:	785b      	ldrb	r3, [r3, #1]
10007426:	b2db      	uxtb	r3, r3
10007428:	42b3      	cmp	r3, r6
1000742a:	d005      	beq.n	10007438 <process_control_request+0x110>
1000742c:	4b98      	ldr	r3, [pc, #608]	; (10007690 <process_control_request+0x368>)
1000742e:	785b      	ldrb	r3, [r3, #1]
10007430:	2b00      	cmp	r3, #0
10007432:	d109      	bne.n	10007448 <process_control_request+0x120>
10007434:	2e00      	cmp	r6, #0
10007436:	d113      	bne.n	10007460 <process_control_request+0x138>
10007438:	4b95      	ldr	r3, [pc, #596]	; (10007690 <process_control_request+0x368>)
1000743a:	705e      	strb	r6, [r3, #1]
1000743c:	0021      	movs	r1, r4
1000743e:	0028      	movs	r0, r5
10007440:	f000 fa38 	bl	100078b4 <tud_control_status>
10007444:	2001      	movs	r0, #1
10007446:	e78c      	b.n	10007362 <process_control_request+0x3a>
10007448:	0028      	movs	r0, r5
1000744a:	f7ff fbbf 	bl	10006bcc <dcd_edpt_close_all>
1000744e:	4f90      	ldr	r7, [pc, #576]	; (10007690 <process_control_request+0x368>)
10007450:	78bb      	ldrb	r3, [r7, #2]
10007452:	4698      	mov	r8, r3
10007454:	0028      	movs	r0, r5
10007456:	f7ff fc4b 	bl	10006cf0 <configuration_reset>
1000745a:	4643      	mov	r3, r8
1000745c:	70bb      	strb	r3, [r7, #2]
1000745e:	e7e9      	b.n	10007434 <process_control_request+0x10c>
10007460:	0031      	movs	r1, r6
10007462:	0028      	movs	r0, r5
10007464:	f7ff fc9a 	bl	10006d9c <process_set_config>
10007468:	2800      	cmp	r0, #0
1000746a:	d1e5      	bne.n	10007438 <process_control_request+0x110>
1000746c:	e779      	b.n	10007362 <process_control_request+0x3a>
1000746e:	0021      	movs	r1, r4
10007470:	0028      	movs	r0, r5
10007472:	f7ff fd4f 	bl	10006f14 <process_get_descriptor>
10007476:	e774      	b.n	10007362 <process_control_request+0x3a>
10007478:	78a2      	ldrb	r2, [r4, #2]
1000747a:	78e3      	ldrb	r3, [r4, #3]
1000747c:	021b      	lsls	r3, r3, #8
1000747e:	4313      	orrs	r3, r2
10007480:	2b01      	cmp	r3, #1
10007482:	d001      	beq.n	10007488 <process_control_request+0x160>
10007484:	2000      	movs	r0, #0
10007486:	e76c      	b.n	10007362 <process_control_request+0x3a>
10007488:	4a81      	ldr	r2, [pc, #516]	; (10007690 <process_control_request+0x368>)
1000748a:	7813      	ldrb	r3, [r2, #0]
1000748c:	2108      	movs	r1, #8
1000748e:	430b      	orrs	r3, r1
10007490:	7013      	strb	r3, [r2, #0]
10007492:	0021      	movs	r1, r4
10007494:	0028      	movs	r0, r5
10007496:	f000 fa0d 	bl	100078b4 <tud_control_status>
1000749a:	2001      	movs	r0, #1
1000749c:	e761      	b.n	10007362 <process_control_request+0x3a>
1000749e:	78a2      	ldrb	r2, [r4, #2]
100074a0:	78e3      	ldrb	r3, [r4, #3]
100074a2:	021b      	lsls	r3, r3, #8
100074a4:	4313      	orrs	r3, r2
100074a6:	2b01      	cmp	r3, #1
100074a8:	d001      	beq.n	100074ae <process_control_request+0x186>
100074aa:	2000      	movs	r0, #0
100074ac:	e759      	b.n	10007362 <process_control_request+0x3a>
100074ae:	4a78      	ldr	r2, [pc, #480]	; (10007690 <process_control_request+0x368>)
100074b0:	7813      	ldrb	r3, [r2, #0]
100074b2:	2108      	movs	r1, #8
100074b4:	438b      	bics	r3, r1
100074b6:	7013      	strb	r3, [r2, #0]
100074b8:	0021      	movs	r1, r4
100074ba:	0028      	movs	r0, r5
100074bc:	f000 f9fa 	bl	100078b4 <tud_control_status>
100074c0:	2001      	movs	r0, #1
100074c2:	e74e      	b.n	10007362 <process_control_request+0x3a>
100074c4:	4b72      	ldr	r3, [pc, #456]	; (10007690 <process_control_request+0x368>)
100074c6:	781a      	ldrb	r2, [r3, #0]
100074c8:	0951      	lsrs	r1, r2, #5
100074ca:	0892      	lsrs	r2, r2, #2
100074cc:	2301      	movs	r3, #1
100074ce:	400b      	ands	r3, r1
100074d0:	2102      	movs	r1, #2
100074d2:	400a      	ands	r2, r1
100074d4:	4313      	orrs	r3, r2
100074d6:	466a      	mov	r2, sp
100074d8:	3206      	adds	r2, #6
100074da:	8013      	strh	r3, [r2, #0]
100074dc:	2302      	movs	r3, #2
100074de:	0021      	movs	r1, r4
100074e0:	0028      	movs	r0, r5
100074e2:	f000 fa03 	bl	100078ec <tud_control_xfer>
100074e6:	2001      	movs	r0, #1
100074e8:	e73b      	b.n	10007362 <process_control_request+0x3a>
100074ea:	7923      	ldrb	r3, [r4, #4]
100074ec:	2b0f      	cmp	r3, #15
100074ee:	d900      	bls.n	100074f2 <process_control_request+0x1ca>
100074f0:	e0bd      	b.n	1000766e <process_control_request+0x346>
100074f2:	4a67      	ldr	r2, [pc, #412]	; (10007690 <process_control_request+0x368>)
100074f4:	18d3      	adds	r3, r2, r3
100074f6:	78d9      	ldrb	r1, [r3, #3]
100074f8:	4b66      	ldr	r3, [pc, #408]	; (10007694 <process_control_request+0x36c>)
100074fa:	2b00      	cmp	r3, #0
100074fc:	d005      	beq.n	1000750a <process_control_request+0x1e2>
100074fe:	4b66      	ldr	r3, [pc, #408]	; (10007698 <process_control_request+0x370>)
10007500:	781b      	ldrb	r3, [r3, #0]
10007502:	4299      	cmp	r1, r3
10007504:	d328      	bcc.n	10007558 <process_control_request+0x230>
10007506:	1ac9      	subs	r1, r1, r3
10007508:	b2c9      	uxtb	r1, r1
1000750a:	2900      	cmp	r1, #0
1000750c:	d000      	beq.n	10007510 <process_control_request+0x1e8>
1000750e:	e0b0      	b.n	10007672 <process_control_request+0x34a>
10007510:	004b      	lsls	r3, r1, #1
10007512:	185b      	adds	r3, r3, r1
10007514:	00db      	lsls	r3, r3, #3
10007516:	4961      	ldr	r1, [pc, #388]	; (1000769c <process_control_request+0x374>)
10007518:	18c9      	adds	r1, r1, r3
1000751a:	2900      	cmp	r1, #0
1000751c:	d100      	bne.n	10007520 <process_control_request+0x1f8>
1000751e:	e0aa      	b.n	10007676 <process_control_request+0x34e>
10007520:	0022      	movs	r2, r4
10007522:	0028      	movs	r0, r5
10007524:	f7ff fc2c 	bl	10006d80 <invoke_class_control>
10007528:	2800      	cmp	r0, #0
1000752a:	d000      	beq.n	1000752e <process_control_request+0x206>
1000752c:	e719      	b.n	10007362 <process_control_request+0x3a>
1000752e:	7823      	ldrb	r3, [r4, #0]
10007530:	2260      	movs	r2, #96	; 0x60
10007532:	421a      	tst	r2, r3
10007534:	d000      	beq.n	10007538 <process_control_request+0x210>
10007536:	e714      	b.n	10007362 <process_control_request+0x3a>
10007538:	7863      	ldrb	r3, [r4, #1]
1000753a:	3b0a      	subs	r3, #10
1000753c:	2b01      	cmp	r3, #1
1000753e:	d900      	bls.n	10007542 <process_control_request+0x21a>
10007540:	e70f      	b.n	10007362 <process_control_request+0x3a>
10007542:	f000 fa17 	bl	10007974 <usbd_control_set_complete_callback>
10007546:	7863      	ldrb	r3, [r4, #1]
10007548:	2b0a      	cmp	r3, #10
1000754a:	d00c      	beq.n	10007566 <process_control_request+0x23e>
1000754c:	0021      	movs	r1, r4
1000754e:	0028      	movs	r0, r5
10007550:	f000 f9b0 	bl	100078b4 <tud_control_status>
10007554:	2001      	movs	r0, #1
10007556:	e704      	b.n	10007362 <process_control_request+0x3a>
10007558:	004b      	lsls	r3, r1, #1
1000755a:	185b      	adds	r3, r3, r1
1000755c:	00db      	lsls	r3, r3, #3
1000755e:	4a50      	ldr	r2, [pc, #320]	; (100076a0 <process_control_request+0x378>)
10007560:	6811      	ldr	r1, [r2, #0]
10007562:	18c9      	adds	r1, r1, r3
10007564:	e7d9      	b.n	1000751a <process_control_request+0x1f2>
10007566:	466b      	mov	r3, sp
10007568:	1d9a      	adds	r2, r3, #6
1000756a:	2300      	movs	r3, #0
1000756c:	7013      	strb	r3, [r2, #0]
1000756e:	3301      	adds	r3, #1
10007570:	0021      	movs	r1, r4
10007572:	0028      	movs	r0, r5
10007574:	f000 f9ba 	bl	100078ec <tud_control_xfer>
10007578:	2001      	movs	r0, #1
1000757a:	e6f2      	b.n	10007362 <process_control_request+0x3a>
1000757c:	7921      	ldrb	r1, [r4, #4]
1000757e:	227f      	movs	r2, #127	; 0x7f
10007580:	400a      	ands	r2, r1
10007582:	09ce      	lsrs	r6, r1, #7
10007584:	2070      	movs	r0, #112	; 0x70
10007586:	4208      	tst	r0, r1
10007588:	d177      	bne.n	1000767a <process_control_request+0x352>
1000758a:	0052      	lsls	r2, r2, #1
1000758c:	4840      	ldr	r0, [pc, #256]	; (10007690 <process_control_request+0x368>)
1000758e:	1882      	adds	r2, r0, r2
10007590:	1992      	adds	r2, r2, r6
10007592:	7cd2      	ldrb	r2, [r2, #19]
10007594:	483f      	ldr	r0, [pc, #252]	; (10007694 <process_control_request+0x36c>)
10007596:	2800      	cmp	r0, #0
10007598:	d005      	beq.n	100075a6 <process_control_request+0x27e>
1000759a:	483f      	ldr	r0, [pc, #252]	; (10007698 <process_control_request+0x370>)
1000759c:	7800      	ldrb	r0, [r0, #0]
1000759e:	4282      	cmp	r2, r0
100075a0:	d312      	bcc.n	100075c8 <process_control_request+0x2a0>
100075a2:	1a12      	subs	r2, r2, r0
100075a4:	b2d2      	uxtb	r2, r2
100075a6:	2a00      	cmp	r2, #0
100075a8:	d115      	bne.n	100075d6 <process_control_request+0x2ae>
100075aa:	0056      	lsls	r6, r2, #1
100075ac:	18b2      	adds	r2, r6, r2
100075ae:	00d2      	lsls	r2, r2, #3
100075b0:	4e3a      	ldr	r6, [pc, #232]	; (1000769c <process_control_request+0x374>)
100075b2:	18b6      	adds	r6, r6, r2
100075b4:	2b00      	cmp	r3, #0
100075b6:	d010      	beq.n	100075da <process_control_request+0x2b2>
100075b8:	2e00      	cmp	r6, #0
100075ba:	d060      	beq.n	1000767e <process_control_request+0x356>
100075bc:	0022      	movs	r2, r4
100075be:	0031      	movs	r1, r6
100075c0:	0028      	movs	r0, r5
100075c2:	f7ff fbdd 	bl	10006d80 <invoke_class_control>
100075c6:	e6cc      	b.n	10007362 <process_control_request+0x3a>
100075c8:	0056      	lsls	r6, r2, #1
100075ca:	18b2      	adds	r2, r6, r2
100075cc:	00d2      	lsls	r2, r2, #3
100075ce:	4834      	ldr	r0, [pc, #208]	; (100076a0 <process_control_request+0x378>)
100075d0:	6806      	ldr	r6, [r0, #0]
100075d2:	18b6      	adds	r6, r6, r2
100075d4:	e7ee      	b.n	100075b4 <process_control_request+0x28c>
100075d6:	2600      	movs	r6, #0
100075d8:	e7ec      	b.n	100075b4 <process_control_request+0x28c>
100075da:	7863      	ldrb	r3, [r4, #1]
100075dc:	2b01      	cmp	r3, #1
100075de:	d012      	beq.n	10007606 <process_control_request+0x2de>
100075e0:	2b03      	cmp	r3, #3
100075e2:	d010      	beq.n	10007606 <process_control_request+0x2de>
100075e4:	2b00      	cmp	r3, #0
100075e6:	d001      	beq.n	100075ec <process_control_request+0x2c4>
100075e8:	2000      	movs	r0, #0
100075ea:	e6ba      	b.n	10007362 <process_control_request+0x3a>
100075ec:	0028      	movs	r0, r5
100075ee:	f7ff fe8d 	bl	1000730c <usbd_edpt_stalled>
100075f2:	466b      	mov	r3, sp
100075f4:	1d9a      	adds	r2, r3, #6
100075f6:	8010      	strh	r0, [r2, #0]
100075f8:	2302      	movs	r3, #2
100075fa:	0021      	movs	r1, r4
100075fc:	0028      	movs	r0, r5
100075fe:	f000 f975 	bl	100078ec <tud_control_xfer>
10007602:	2001      	movs	r0, #1
10007604:	e6ad      	b.n	10007362 <process_control_request+0x3a>
10007606:	78a7      	ldrb	r7, [r4, #2]
10007608:	78e2      	ldrb	r2, [r4, #3]
1000760a:	0212      	lsls	r2, r2, #8
1000760c:	433a      	orrs	r2, r7
1000760e:	d104      	bne.n	1000761a <process_control_request+0x2f2>
10007610:	2b01      	cmp	r3, #1
10007612:	d01a      	beq.n	1000764a <process_control_request+0x322>
10007614:	0028      	movs	r0, r5
10007616:	f7ff fe31 	bl	1000727c <usbd_edpt_stall>
1000761a:	2e00      	cmp	r6, #0
1000761c:	d031      	beq.n	10007682 <process_control_request+0x35a>
1000761e:	0022      	movs	r2, r4
10007620:	0031      	movs	r1, r6
10007622:	0028      	movs	r0, r5
10007624:	f7ff fbac 	bl	10006d80 <invoke_class_control>
10007628:	2000      	movs	r0, #0
1000762a:	f000 f9a3 	bl	10007974 <usbd_control_set_complete_callback>
1000762e:	4a18      	ldr	r2, [pc, #96]	; (10007690 <process_control_request+0x368>)
10007630:	2334      	movs	r3, #52	; 0x34
10007632:	5cd3      	ldrb	r3, [r2, r3]
10007634:	07db      	lsls	r3, r3, #31
10007636:	0fd8      	lsrs	r0, r3, #31
10007638:	2b00      	cmp	r3, #0
1000763a:	d000      	beq.n	1000763e <process_control_request+0x316>
1000763c:	e691      	b.n	10007362 <process_control_request+0x3a>
1000763e:	0021      	movs	r1, r4
10007640:	0028      	movs	r0, r5
10007642:	f000 f937 	bl	100078b4 <tud_control_status>
10007646:	2001      	movs	r0, #1
10007648:	e68b      	b.n	10007362 <process_control_request+0x3a>
1000764a:	0028      	movs	r0, r5
1000764c:	f7ff fe3a 	bl	100072c4 <usbd_edpt_clear_stall>
10007650:	e7e3      	b.n	1000761a <process_control_request+0x2f2>
10007652:	2000      	movs	r0, #0
10007654:	e685      	b.n	10007362 <process_control_request+0x3a>
10007656:	2000      	movs	r0, #0
10007658:	e683      	b.n	10007362 <process_control_request+0x3a>
1000765a:	2000      	movs	r0, #0
1000765c:	e681      	b.n	10007362 <process_control_request+0x3a>
1000765e:	2000      	movs	r0, #0
10007660:	e67f      	b.n	10007362 <process_control_request+0x3a>
10007662:	2000      	movs	r0, #0
10007664:	e67d      	b.n	10007362 <process_control_request+0x3a>
10007666:	2000      	movs	r0, #0
10007668:	e67b      	b.n	10007362 <process_control_request+0x3a>
1000766a:	2000      	movs	r0, #0
1000766c:	e679      	b.n	10007362 <process_control_request+0x3a>
1000766e:	2000      	movs	r0, #0
10007670:	e677      	b.n	10007362 <process_control_request+0x3a>
10007672:	2000      	movs	r0, #0
10007674:	e675      	b.n	10007362 <process_control_request+0x3a>
10007676:	2000      	movs	r0, #0
10007678:	e673      	b.n	10007362 <process_control_request+0x3a>
1000767a:	2000      	movs	r0, #0
1000767c:	e671      	b.n	10007362 <process_control_request+0x3a>
1000767e:	2000      	movs	r0, #0
10007680:	e66f      	b.n	10007362 <process_control_request+0x3a>
10007682:	2001      	movs	r0, #1
10007684:	e66d      	b.n	10007362 <process_control_request+0x3a>
10007686:	46c0      	nop			; (mov r8, r8)
10007688:	00000000 	.word	0x00000000
1000768c:	1000aff8 	.word	0x1000aff8
10007690:	20001b8c 	.word	0x20001b8c
10007694:	10006381 	.word	0x10006381
10007698:	20002589 	.word	0x20002589
1000769c:	1000b044 	.word	0x1000b044
100076a0:	20001864 	.word	0x20001864

100076a4 <tud_task_ext>:
100076a4:	b530      	push	{r4, r5, lr}
100076a6:	b085      	sub	sp, #20
100076a8:	f000 fce9 	bl	1000807e <tusb_inited>
100076ac:	2800      	cmp	r0, #0
100076ae:	d108      	bne.n	100076c2 <tud_task_ext+0x1e>
100076b0:	b005      	add	sp, #20
100076b2:	bd30      	pop	{r4, r5, pc}
100076b4:	ac01      	add	r4, sp, #4
100076b6:	7820      	ldrb	r0, [r4, #0]
100076b8:	f7ff fb5c 	bl	10006d74 <usbd_reset>
100076bc:	7922      	ldrb	r2, [r4, #4]
100076be:	4b5d      	ldr	r3, [pc, #372]	; (10007834 <tud_task_ext+0x190>)
100076c0:	709a      	strb	r2, [r3, #2]
100076c2:	4b5d      	ldr	r3, [pc, #372]	; (10007838 <tud_task_ext+0x194>)
100076c4:	681c      	ldr	r4, [r3, #0]
100076c6:	0021      	movs	r1, r4
100076c8:	3114      	adds	r1, #20
100076ca:	6962      	ldr	r2, [r4, #20]
100076cc:	f3ef 8010 	mrs	r0, PRIMASK
100076d0:	b672      	cpsid	i
100076d2:	6813      	ldr	r3, [r2, #0]
100076d4:	2b00      	cmp	r3, #0
100076d6:	d0fc      	beq.n	100076d2 <tud_task_ext+0x2e>
100076d8:	f3bf 8f5f 	dmb	sy
100076dc:	6048      	str	r0, [r1, #4]
100076de:	a901      	add	r1, sp, #4
100076e0:	0020      	movs	r0, r4
100076e2:	f001 f84d 	bl	10008780 <tu_fifo_read>
100076e6:	6962      	ldr	r2, [r4, #20]
100076e8:	69a3      	ldr	r3, [r4, #24]
100076ea:	f3bf 8f5f 	dmb	sy
100076ee:	2100      	movs	r1, #0
100076f0:	6011      	str	r1, [r2, #0]
100076f2:	f383 8810 	msr	PRIMASK, r3
100076f6:	2800      	cmp	r0, #0
100076f8:	d0da      	beq.n	100076b0 <tud_task_ext+0xc>
100076fa:	ab01      	add	r3, sp, #4
100076fc:	785b      	ldrb	r3, [r3, #1]
100076fe:	2b08      	cmp	r3, #8
10007700:	d8df      	bhi.n	100076c2 <tud_task_ext+0x1e>
10007702:	009b      	lsls	r3, r3, #2
10007704:	4a4d      	ldr	r2, [pc, #308]	; (1000783c <tud_task_ext+0x198>)
10007706:	58d3      	ldr	r3, [r2, r3]
10007708:	469f      	mov	pc, r3
1000770a:	ab01      	add	r3, sp, #4
1000770c:	7818      	ldrb	r0, [r3, #0]
1000770e:	f7ff fb31 	bl	10006d74 <usbd_reset>
10007712:	4b4b      	ldr	r3, [pc, #300]	; (10007840 <tud_task_ext+0x19c>)
10007714:	2b00      	cmp	r3, #0
10007716:	d0d4      	beq.n	100076c2 <tud_task_ext+0x1e>
10007718:	e000      	b.n	1000771c <tud_task_ext+0x78>
1000771a:	bf00      	nop
1000771c:	e7d1      	b.n	100076c2 <tud_task_ext+0x1e>
1000771e:	4b45      	ldr	r3, [pc, #276]	; (10007834 <tud_task_ext+0x190>)
10007720:	781a      	ldrb	r2, [r3, #0]
10007722:	2401      	movs	r4, #1
10007724:	2101      	movs	r1, #1
10007726:	430a      	orrs	r2, r1
10007728:	701a      	strb	r2, [r3, #0]
1000772a:	2233      	movs	r2, #51	; 0x33
1000772c:	5c99      	ldrb	r1, [r3, r2]
1000772e:	43a1      	bics	r1, r4
10007730:	5499      	strb	r1, [r3, r2]
10007732:	5c99      	ldrb	r1, [r3, r2]
10007734:	2004      	movs	r0, #4
10007736:	4381      	bics	r1, r0
10007738:	5499      	strb	r1, [r3, r2]
1000773a:	3201      	adds	r2, #1
1000773c:	5c99      	ldrb	r1, [r3, r2]
1000773e:	43a1      	bics	r1, r4
10007740:	5499      	strb	r1, [r3, r2]
10007742:	5c99      	ldrb	r1, [r3, r2]
10007744:	4381      	bics	r1, r0
10007746:	5499      	strb	r1, [r3, r2]
10007748:	ab01      	add	r3, sp, #4
1000774a:	7818      	ldrb	r0, [r3, #0]
1000774c:	a902      	add	r1, sp, #8
1000774e:	f7ff fdeb 	bl	10007328 <process_control_request>
10007752:	2800      	cmp	r0, #0
10007754:	d1b5      	bne.n	100076c2 <tud_task_ext+0x1e>
10007756:	ac01      	add	r4, sp, #4
10007758:	7820      	ldrb	r0, [r4, #0]
1000775a:	2100      	movs	r1, #0
1000775c:	f7ff fa54 	bl	10006c08 <dcd_edpt_stall>
10007760:	7820      	ldrb	r0, [r4, #0]
10007762:	2180      	movs	r1, #128	; 0x80
10007764:	f7ff fa50 	bl	10006c08 <dcd_edpt_stall>
10007768:	e7ab      	b.n	100076c2 <tud_task_ext+0x1e>
1000776a:	ab01      	add	r3, sp, #4
1000776c:	7919      	ldrb	r1, [r3, #4]
1000776e:	227f      	movs	r2, #127	; 0x7f
10007770:	400a      	ands	r2, r1
10007772:	09cc      	lsrs	r4, r1, #7
10007774:	0050      	lsls	r0, r2, #1
10007776:	4b2f      	ldr	r3, [pc, #188]	; (10007834 <tud_task_ext+0x190>)
10007778:	181b      	adds	r3, r3, r0
1000777a:	191b      	adds	r3, r3, r4
1000777c:	3330      	adds	r3, #48	; 0x30
1000777e:	78d8      	ldrb	r0, [r3, #3]
10007780:	2501      	movs	r5, #1
10007782:	43a8      	bics	r0, r5
10007784:	70d8      	strb	r0, [r3, #3]
10007786:	78d8      	ldrb	r0, [r3, #3]
10007788:	3503      	adds	r5, #3
1000778a:	43a8      	bics	r0, r5
1000778c:	70d8      	strb	r0, [r3, #3]
1000778e:	2a00      	cmp	r2, #0
10007790:	d01f      	beq.n	100077d2 <tud_task_ext+0x12e>
10007792:	0052      	lsls	r2, r2, #1
10007794:	4b27      	ldr	r3, [pc, #156]	; (10007834 <tud_task_ext+0x190>)
10007796:	189a      	adds	r2, r3, r2
10007798:	1912      	adds	r2, r2, r4
1000779a:	7cd3      	ldrb	r3, [r2, #19]
1000779c:	4a29      	ldr	r2, [pc, #164]	; (10007844 <tud_task_ext+0x1a0>)
1000779e:	2a00      	cmp	r2, #0
100077a0:	d005      	beq.n	100077ae <tud_task_ext+0x10a>
100077a2:	4a29      	ldr	r2, [pc, #164]	; (10007848 <tud_task_ext+0x1a4>)
100077a4:	7812      	ldrb	r2, [r2, #0]
100077a6:	4293      	cmp	r3, r2
100077a8:	d31a      	bcc.n	100077e0 <tud_task_ext+0x13c>
100077aa:	1a9b      	subs	r3, r3, r2
100077ac:	b2db      	uxtb	r3, r3
100077ae:	2b00      	cmp	r3, #0
100077b0:	d000      	beq.n	100077b4 <tud_task_ext+0x110>
100077b2:	e77d      	b.n	100076b0 <tud_task_ext+0xc>
100077b4:	005a      	lsls	r2, r3, #1
100077b6:	18d2      	adds	r2, r2, r3
100077b8:	00d2      	lsls	r2, r2, #3
100077ba:	4b24      	ldr	r3, [pc, #144]	; (1000784c <tud_task_ext+0x1a8>)
100077bc:	189b      	adds	r3, r3, r2
100077be:	2b00      	cmp	r3, #0
100077c0:	d100      	bne.n	100077c4 <tud_task_ext+0x120>
100077c2:	e775      	b.n	100076b0 <tud_task_ext+0xc>
100077c4:	691c      	ldr	r4, [r3, #16]
100077c6:	a801      	add	r0, sp, #4
100077c8:	7942      	ldrb	r2, [r0, #5]
100077ca:	9b03      	ldr	r3, [sp, #12]
100077cc:	7800      	ldrb	r0, [r0, #0]
100077ce:	47a0      	blx	r4
100077d0:	e777      	b.n	100076c2 <tud_task_ext+0x1e>
100077d2:	a801      	add	r0, sp, #4
100077d4:	7942      	ldrb	r2, [r0, #5]
100077d6:	9b03      	ldr	r3, [sp, #12]
100077d8:	7800      	ldrb	r0, [r0, #0]
100077da:	f000 f8df 	bl	1000799c <usbd_control_xfer_cb>
100077de:	e770      	b.n	100076c2 <tud_task_ext+0x1e>
100077e0:	005a      	lsls	r2, r3, #1
100077e2:	18d2      	adds	r2, r2, r3
100077e4:	00d2      	lsls	r2, r2, #3
100077e6:	4b1a      	ldr	r3, [pc, #104]	; (10007850 <tud_task_ext+0x1ac>)
100077e8:	681b      	ldr	r3, [r3, #0]
100077ea:	189b      	adds	r3, r3, r2
100077ec:	e7e7      	b.n	100077be <tud_task_ext+0x11a>
100077ee:	4b11      	ldr	r3, [pc, #68]	; (10007834 <tud_task_ext+0x190>)
100077f0:	781b      	ldrb	r3, [r3, #0]
100077f2:	07db      	lsls	r3, r3, #31
100077f4:	d400      	bmi.n	100077f8 <tud_task_ext+0x154>
100077f6:	e764      	b.n	100076c2 <tud_task_ext+0x1e>
100077f8:	4b16      	ldr	r3, [pc, #88]	; (10007854 <tud_task_ext+0x1b0>)
100077fa:	2b00      	cmp	r3, #0
100077fc:	d100      	bne.n	10007800 <tud_task_ext+0x15c>
100077fe:	e760      	b.n	100076c2 <tud_task_ext+0x1e>
10007800:	4b0c      	ldr	r3, [pc, #48]	; (10007834 <tud_task_ext+0x190>)
10007802:	7818      	ldrb	r0, [r3, #0]
10007804:	0700      	lsls	r0, r0, #28
10007806:	0fc0      	lsrs	r0, r0, #31
10007808:	e000      	b.n	1000780c <tud_task_ext+0x168>
1000780a:	bf00      	nop
1000780c:	e759      	b.n	100076c2 <tud_task_ext+0x1e>
1000780e:	4b09      	ldr	r3, [pc, #36]	; (10007834 <tud_task_ext+0x190>)
10007810:	781b      	ldrb	r3, [r3, #0]
10007812:	07db      	lsls	r3, r3, #31
10007814:	d400      	bmi.n	10007818 <tud_task_ext+0x174>
10007816:	e754      	b.n	100076c2 <tud_task_ext+0x1e>
10007818:	4b0f      	ldr	r3, [pc, #60]	; (10007858 <tud_task_ext+0x1b4>)
1000781a:	2b00      	cmp	r3, #0
1000781c:	d100      	bne.n	10007820 <tud_task_ext+0x17c>
1000781e:	e750      	b.n	100076c2 <tud_task_ext+0x1e>
10007820:	e000      	b.n	10007824 <tud_task_ext+0x180>
10007822:	bf00      	nop
10007824:	e74d      	b.n	100076c2 <tud_task_ext+0x1e>
10007826:	9b02      	ldr	r3, [sp, #8]
10007828:	2b00      	cmp	r3, #0
1000782a:	d100      	bne.n	1000782e <tud_task_ext+0x18a>
1000782c:	e749      	b.n	100076c2 <tud_task_ext+0x1e>
1000782e:	9803      	ldr	r0, [sp, #12]
10007830:	4798      	blx	r3
10007832:	e746      	b.n	100076c2 <tud_task_ext+0x1e>
10007834:	20001b8c 	.word	0x20001b8c
10007838:	20001be4 	.word	0x20001be4
1000783c:	1000b020 	.word	0x1000b020
10007840:	00000000 	.word	0x00000000
10007844:	10006381 	.word	0x10006381
10007848:	20002589 	.word	0x20002589
1000784c:	1000b044 	.word	0x1000b044
10007850:	20001864 	.word	0x20001864
	...

1000785c <_data_stage_xact>:
1000785c:	b5f8      	push	{r3, r4, r5, r6, r7, lr}
1000785e:	0005      	movs	r5, r0
10007860:	4b12      	ldr	r3, [pc, #72]	; (100078ac <_data_stage_xact+0x50>)
10007862:	899f      	ldrh	r7, [r3, #12]
10007864:	89de      	ldrh	r6, [r3, #14]
10007866:	1bb9      	subs	r1, r7, r6
10007868:	b289      	uxth	r1, r1
1000786a:	1c0b      	adds	r3, r1, #0
1000786c:	2940      	cmp	r1, #64	; 0x40
1000786e:	d900      	bls.n	10007872 <_data_stage_xact+0x16>
10007870:	2340      	movs	r3, #64	; 0x40
10007872:	b29c      	uxth	r4, r3
10007874:	4b0d      	ldr	r3, [pc, #52]	; (100078ac <_data_stage_xact+0x50>)
10007876:	781b      	ldrb	r3, [r3, #0]
10007878:	b25b      	sxtb	r3, r3
1000787a:	2b00      	cmp	r3, #0
1000787c:	db08      	blt.n	10007890 <_data_stage_xact+0x34>
1000787e:	2100      	movs	r1, #0
10007880:	42b7      	cmp	r7, r6
10007882:	d011      	beq.n	100078a8 <_data_stage_xact+0x4c>
10007884:	4a0a      	ldr	r2, [pc, #40]	; (100078b0 <_data_stage_xact+0x54>)
10007886:	0023      	movs	r3, r4
10007888:	0028      	movs	r0, r5
1000788a:	f7ff fcbb 	bl	10007204 <usbd_edpt_xfer>
1000788e:	bdf8      	pop	{r3, r4, r5, r6, r7, pc}
10007890:	42b7      	cmp	r7, r6
10007892:	d101      	bne.n	10007898 <_data_stage_xact+0x3c>
10007894:	2180      	movs	r1, #128	; 0x80
10007896:	e7f3      	b.n	10007880 <_data_stage_xact+0x24>
10007898:	4b04      	ldr	r3, [pc, #16]	; (100078ac <_data_stage_xact+0x50>)
1000789a:	6899      	ldr	r1, [r3, #8]
1000789c:	0022      	movs	r2, r4
1000789e:	4804      	ldr	r0, [pc, #16]	; (100078b0 <_data_stage_xact+0x54>)
100078a0:	f7fe fa9a 	bl	10005dd8 <__wrap___aeabi_memcpy>
100078a4:	2180      	movs	r1, #128	; 0x80
100078a6:	e7eb      	b.n	10007880 <_data_stage_xact+0x24>
100078a8:	2200      	movs	r2, #0
100078aa:	e7ec      	b.n	10007886 <_data_stage_xact+0x2a>
100078ac:	20001b30 	.word	0x20001b30
100078b0:	20001b4c 	.word	0x20001b4c

100078b4 <tud_control_status>:
100078b4:	b570      	push	{r4, r5, r6, lr}
100078b6:	0006      	movs	r6, r0
100078b8:	000c      	movs	r4, r1
100078ba:	4d0b      	ldr	r5, [pc, #44]	; (100078e8 <tud_control_status+0x34>)
100078bc:	2208      	movs	r2, #8
100078be:	0028      	movs	r0, r5
100078c0:	f7fe fa8a 	bl	10005dd8 <__wrap___aeabi_memcpy>
100078c4:	2300      	movs	r3, #0
100078c6:	60ab      	str	r3, [r5, #8]
100078c8:	81eb      	strh	r3, [r5, #14]
100078ca:	81ab      	strh	r3, [r5, #12]
100078cc:	2300      	movs	r3, #0
100078ce:	56e3      	ldrsb	r3, [r4, r3]
100078d0:	2b00      	cmp	r3, #0
100078d2:	db06      	blt.n	100078e2 <tud_control_status+0x2e>
100078d4:	2180      	movs	r1, #128	; 0x80
100078d6:	2300      	movs	r3, #0
100078d8:	2200      	movs	r2, #0
100078da:	0030      	movs	r0, r6
100078dc:	f7ff fc92 	bl	10007204 <usbd_edpt_xfer>
100078e0:	bd70      	pop	{r4, r5, r6, pc}
100078e2:	2100      	movs	r1, #0
100078e4:	e7f7      	b.n	100078d6 <tud_control_status+0x22>
100078e6:	46c0      	nop			; (mov r8, r8)
100078e8:	20001b30 	.word	0x20001b30

100078ec <tud_control_xfer>:
100078ec:	b5f0      	push	{r4, r5, r6, r7, lr}
100078ee:	46c6      	mov	lr, r8
100078f0:	b500      	push	{lr}
100078f2:	4680      	mov	r8, r0
100078f4:	000c      	movs	r4, r1
100078f6:	0016      	movs	r6, r2
100078f8:	001d      	movs	r5, r3
100078fa:	4f18      	ldr	r7, [pc, #96]	; (1000795c <tud_control_xfer+0x70>)
100078fc:	2208      	movs	r2, #8
100078fe:	0038      	movs	r0, r7
10007900:	f7fe fa6a 	bl	10005dd8 <__wrap___aeabi_memcpy>
10007904:	60be      	str	r6, [r7, #8]
10007906:	2300      	movs	r3, #0
10007908:	81fb      	strh	r3, [r7, #14]
1000790a:	79a3      	ldrb	r3, [r4, #6]
1000790c:	79e1      	ldrb	r1, [r4, #7]
1000790e:	0209      	lsls	r1, r1, #8
10007910:	4319      	orrs	r1, r3
10007912:	1c0b      	adds	r3, r1, #0
10007914:	42a9      	cmp	r1, r5
10007916:	d900      	bls.n	1000791a <tud_control_xfer+0x2e>
10007918:	1c2b      	adds	r3, r5, #0
1000791a:	b299      	uxth	r1, r3
1000791c:	4a0f      	ldr	r2, [pc, #60]	; (1000795c <tud_control_xfer+0x70>)
1000791e:	8193      	strh	r3, [r2, #12]
10007920:	79a2      	ldrb	r2, [r4, #6]
10007922:	79e3      	ldrb	r3, [r4, #7]
10007924:	021b      	lsls	r3, r3, #8
10007926:	4313      	orrs	r3, r2
10007928:	d009      	beq.n	1000793e <tud_control_xfer+0x52>
1000792a:	2900      	cmp	r1, #0
1000792c:	d001      	beq.n	10007932 <tud_control_xfer+0x46>
1000792e:	2e00      	cmp	r6, #0
10007930:	d012      	beq.n	10007958 <tud_control_xfer+0x6c>
10007932:	4640      	mov	r0, r8
10007934:	f7ff ff92 	bl	1000785c <_data_stage_xact>
10007938:	bc80      	pop	{r7}
1000793a:	46b8      	mov	r8, r7
1000793c:	bdf0      	pop	{r4, r5, r6, r7, pc}
1000793e:	2300      	movs	r3, #0
10007940:	56e3      	ldrsb	r3, [r4, r3]
10007942:	2b00      	cmp	r3, #0
10007944:	db06      	blt.n	10007954 <tud_control_xfer+0x68>
10007946:	2180      	movs	r1, #128	; 0x80
10007948:	2300      	movs	r3, #0
1000794a:	2200      	movs	r2, #0
1000794c:	4640      	mov	r0, r8
1000794e:	f7ff fc59 	bl	10007204 <usbd_edpt_xfer>
10007952:	e7f1      	b.n	10007938 <tud_control_xfer+0x4c>
10007954:	2100      	movs	r1, #0
10007956:	e7f7      	b.n	10007948 <tud_control_xfer+0x5c>
10007958:	2000      	movs	r0, #0
1000795a:	e7ed      	b.n	10007938 <tud_control_xfer+0x4c>
1000795c:	20001b30 	.word	0x20001b30

10007960 <usbd_control_reset>:
10007960:	b510      	push	{r4, lr}
10007962:	2214      	movs	r2, #20
10007964:	2100      	movs	r1, #0
10007966:	4802      	ldr	r0, [pc, #8]	; (10007970 <usbd_control_reset+0x10>)
10007968:	f7fe fa30 	bl	10005dcc <__wrap_memset>
1000796c:	bd10      	pop	{r4, pc}
1000796e:	46c0      	nop			; (mov r8, r8)
10007970:	20001b30 	.word	0x20001b30

10007974 <usbd_control_set_complete_callback>:
10007974:	4b01      	ldr	r3, [pc, #4]	; (1000797c <usbd_control_set_complete_callback+0x8>)
10007976:	6118      	str	r0, [r3, #16]
10007978:	4770      	bx	lr
1000797a:	46c0      	nop			; (mov r8, r8)
1000797c:	20001b30 	.word	0x20001b30

10007980 <usbd_control_set_request>:
10007980:	b510      	push	{r4, lr}
10007982:	0001      	movs	r1, r0
10007984:	4c04      	ldr	r4, [pc, #16]	; (10007998 <usbd_control_set_request+0x18>)
10007986:	2208      	movs	r2, #8
10007988:	0020      	movs	r0, r4
1000798a:	f7fe fa25 	bl	10005dd8 <__wrap___aeabi_memcpy>
1000798e:	2300      	movs	r3, #0
10007990:	60a3      	str	r3, [r4, #8]
10007992:	81e3      	strh	r3, [r4, #14]
10007994:	81a3      	strh	r3, [r4, #12]
10007996:	bd10      	pop	{r4, pc}
10007998:	20001b30 	.word	0x20001b30

1000799c <usbd_control_xfer_cb>:
1000799c:	b570      	push	{r4, r5, r6, lr}
1000799e:	0005      	movs	r5, r0
100079a0:	001c      	movs	r4, r3
100079a2:	09c9      	lsrs	r1, r1, #7
100079a4:	4b2d      	ldr	r3, [pc, #180]	; (10007a5c <usbd_control_xfer_cb+0xc0>)
100079a6:	781b      	ldrb	r3, [r3, #0]
100079a8:	09db      	lsrs	r3, r3, #7
100079aa:	428b      	cmp	r3, r1
100079ac:	d011      	beq.n	100079d2 <usbd_control_xfer_cb+0x36>
100079ae:	2c00      	cmp	r4, #0
100079b0:	d150      	bne.n	10007a54 <usbd_control_xfer_cb+0xb8>
100079b2:	4b2b      	ldr	r3, [pc, #172]	; (10007a60 <usbd_control_xfer_cb+0xc4>)
100079b4:	2b00      	cmp	r3, #0
100079b6:	d002      	beq.n	100079be <usbd_control_xfer_cb+0x22>
100079b8:	4928      	ldr	r1, [pc, #160]	; (10007a5c <usbd_control_xfer_cb+0xc0>)
100079ba:	f7ff f8d9 	bl	10006b70 <dcd_edpt0_status_complete>
100079be:	4b27      	ldr	r3, [pc, #156]	; (10007a5c <usbd_control_xfer_cb+0xc0>)
100079c0:	691b      	ldr	r3, [r3, #16]
100079c2:	2b00      	cmp	r3, #0
100079c4:	d003      	beq.n	100079ce <usbd_control_xfer_cb+0x32>
100079c6:	4a25      	ldr	r2, [pc, #148]	; (10007a5c <usbd_control_xfer_cb+0xc0>)
100079c8:	2103      	movs	r1, #3
100079ca:	0028      	movs	r0, r5
100079cc:	4798      	blx	r3
100079ce:	2001      	movs	r0, #1
100079d0:	bd70      	pop	{r4, r5, r6, pc}
100079d2:	4b22      	ldr	r3, [pc, #136]	; (10007a5c <usbd_control_xfer_cb+0xc0>)
100079d4:	781b      	ldrb	r3, [r3, #0]
100079d6:	b25b      	sxtb	r3, r3
100079d8:	2b00      	cmp	r3, #0
100079da:	db07      	blt.n	100079ec <usbd_control_xfer_cb+0x50>
100079dc:	4b1f      	ldr	r3, [pc, #124]	; (10007a5c <usbd_control_xfer_cb+0xc0>)
100079de:	6898      	ldr	r0, [r3, #8]
100079e0:	2800      	cmp	r0, #0
100079e2:	d039      	beq.n	10007a58 <usbd_control_xfer_cb+0xbc>
100079e4:	0022      	movs	r2, r4
100079e6:	491f      	ldr	r1, [pc, #124]	; (10007a64 <usbd_control_xfer_cb+0xc8>)
100079e8:	f7fe f9f6 	bl	10005dd8 <__wrap___aeabi_memcpy>
100079ec:	b2a2      	uxth	r2, r4
100079ee:	491b      	ldr	r1, [pc, #108]	; (10007a5c <usbd_control_xfer_cb+0xc0>)
100079f0:	89cb      	ldrh	r3, [r1, #14]
100079f2:	18d3      	adds	r3, r2, r3
100079f4:	b29b      	uxth	r3, r3
100079f6:	81cb      	strh	r3, [r1, #14]
100079f8:	688a      	ldr	r2, [r1, #8]
100079fa:	1912      	adds	r2, r2, r4
100079fc:	608a      	str	r2, [r1, #8]
100079fe:	88ca      	ldrh	r2, [r1, #6]
10007a00:	4293      	cmp	r3, r2
10007a02:	d001      	beq.n	10007a08 <usbd_control_xfer_cb+0x6c>
10007a04:	2c3f      	cmp	r4, #63	; 0x3f
10007a06:	d821      	bhi.n	10007a4c <usbd_control_xfer_cb+0xb0>
10007a08:	4b14      	ldr	r3, [pc, #80]	; (10007a5c <usbd_control_xfer_cb+0xc0>)
10007a0a:	691b      	ldr	r3, [r3, #16]
10007a0c:	2b00      	cmp	r3, #0
10007a0e:	d005      	beq.n	10007a1c <usbd_control_xfer_cb+0x80>
10007a10:	4a12      	ldr	r2, [pc, #72]	; (10007a5c <usbd_control_xfer_cb+0xc0>)
10007a12:	2102      	movs	r1, #2
10007a14:	0028      	movs	r0, r5
10007a16:	4798      	blx	r3
10007a18:	2800      	cmp	r0, #0
10007a1a:	d00d      	beq.n	10007a38 <usbd_control_xfer_cb+0x9c>
10007a1c:	4b0f      	ldr	r3, [pc, #60]	; (10007a5c <usbd_control_xfer_cb+0xc0>)
10007a1e:	781b      	ldrb	r3, [r3, #0]
10007a20:	b25b      	sxtb	r3, r3
10007a22:	2b00      	cmp	r3, #0
10007a24:	db06      	blt.n	10007a34 <usbd_control_xfer_cb+0x98>
10007a26:	2180      	movs	r1, #128	; 0x80
10007a28:	2300      	movs	r3, #0
10007a2a:	2200      	movs	r2, #0
10007a2c:	0028      	movs	r0, r5
10007a2e:	f7ff fbe9 	bl	10007204 <usbd_edpt_xfer>
10007a32:	e7cd      	b.n	100079d0 <usbd_control_xfer_cb+0x34>
10007a34:	2100      	movs	r1, #0
10007a36:	e7f7      	b.n	10007a28 <usbd_control_xfer_cb+0x8c>
10007a38:	2100      	movs	r1, #0
10007a3a:	0028      	movs	r0, r5
10007a3c:	f7ff f8e4 	bl	10006c08 <dcd_edpt_stall>
10007a40:	2180      	movs	r1, #128	; 0x80
10007a42:	0028      	movs	r0, r5
10007a44:	f7ff f8e0 	bl	10006c08 <dcd_edpt_stall>
10007a48:	2001      	movs	r0, #1
10007a4a:	e7c1      	b.n	100079d0 <usbd_control_xfer_cb+0x34>
10007a4c:	0028      	movs	r0, r5
10007a4e:	f7ff ff05 	bl	1000785c <_data_stage_xact>
10007a52:	e7bd      	b.n	100079d0 <usbd_control_xfer_cb+0x34>
10007a54:	2000      	movs	r0, #0
10007a56:	e7bb      	b.n	100079d0 <usbd_control_xfer_cb+0x34>
10007a58:	2000      	movs	r0, #0
10007a5a:	e7b9      	b.n	100079d0 <usbd_control_xfer_cb+0x34>
10007a5c:	20001b30 	.word	0x20001b30
10007a60:	10006b71 	.word	0x10006b71
10007a64:	20001b4c 	.word	0x20001b4c

10007a68 <_prep_out_transaction>:
10007a68:	b570      	push	{r4, r5, r6, lr}
10007a6a:	0004      	movs	r4, r0
10007a6c:	0005      	movs	r5, r0
10007a6e:	3510      	adds	r5, #16
10007a70:	0028      	movs	r0, r5
10007a72:	f000 fe6f 	bl	10008754 <tu_fifo_remaining>
10007a76:	283f      	cmp	r0, #63	; 0x3f
10007a78:	d801      	bhi.n	10007a7e <_prep_out_transaction+0x16>
10007a7a:	2000      	movs	r0, #0
10007a7c:	bd70      	pop	{r4, r5, r6, pc}
10007a7e:	78e1      	ldrb	r1, [r4, #3]
10007a80:	2000      	movs	r0, #0
10007a82:	f7ff fb97 	bl	100071b4 <usbd_edpt_claim>
10007a86:	2800      	cmp	r0, #0
10007a88:	d0f8      	beq.n	10007a7c <_prep_out_transaction+0x14>
10007a8a:	0028      	movs	r0, r5
10007a8c:	f000 fe62 	bl	10008754 <tu_fifo_remaining>
10007a90:	283f      	cmp	r0, #63	; 0x3f
10007a92:	d908      	bls.n	10007aa6 <_prep_out_transaction+0x3e>
10007a94:	2392      	movs	r3, #146	; 0x92
10007a96:	009b      	lsls	r3, r3, #2
10007a98:	18e2      	adds	r2, r4, r3
10007a9a:	78e1      	ldrb	r1, [r4, #3]
10007a9c:	2340      	movs	r3, #64	; 0x40
10007a9e:	2000      	movs	r0, #0
10007aa0:	f7ff fbb0 	bl	10007204 <usbd_edpt_xfer>
10007aa4:	e7ea      	b.n	10007a7c <_prep_out_transaction+0x14>
10007aa6:	78e1      	ldrb	r1, [r4, #3]
10007aa8:	2000      	movs	r0, #0
10007aaa:	f7ff fb97 	bl	100071dc <usbd_edpt_release>
10007aae:	2000      	movs	r0, #0
10007ab0:	e7e4      	b.n	10007a7c <_prep_out_transaction+0x14>
	...

10007ab4 <tud_cdc_n_connected>:
10007ab4:	b510      	push	{r4, lr}
10007ab6:	0004      	movs	r4, r0
10007ab8:	f7ff fa9a 	bl	10006ff0 <tud_mounted>
10007abc:	2800      	cmp	r0, #0
10007abe:	d10c      	bne.n	10007ada <tud_cdc_n_connected+0x26>
10007ac0:	2200      	movs	r2, #0
10007ac2:	2a00      	cmp	r2, #0
10007ac4:	d011      	beq.n	10007aea <tud_cdc_n_connected+0x36>
10007ac6:	23b2      	movs	r3, #178	; 0xb2
10007ac8:	009b      	lsls	r3, r3, #2
10007aca:	4363      	muls	r3, r4
10007acc:	4809      	ldr	r0, [pc, #36]	; (10007af4 <tud_cdc_n_connected+0x40>)
10007ace:	18c0      	adds	r0, r0, r3
10007ad0:	7903      	ldrb	r3, [r0, #4]
10007ad2:	07db      	lsls	r3, r3, #31
10007ad4:	d50b      	bpl.n	10007aee <tud_cdc_n_connected+0x3a>
10007ad6:	2001      	movs	r0, #1
10007ad8:	e008      	b.n	10007aec <tud_cdc_n_connected+0x38>
10007ada:	f7ff fa91 	bl	10007000 <tud_suspended>
10007ade:	2800      	cmp	r0, #0
10007ae0:	d101      	bne.n	10007ae6 <tud_cdc_n_connected+0x32>
10007ae2:	2201      	movs	r2, #1
10007ae4:	e7ed      	b.n	10007ac2 <tud_cdc_n_connected+0xe>
10007ae6:	2200      	movs	r2, #0
10007ae8:	e7eb      	b.n	10007ac2 <tud_cdc_n_connected+0xe>
10007aea:	2000      	movs	r0, #0
10007aec:	bd10      	pop	{r4, pc}
10007aee:	2000      	movs	r0, #0
10007af0:	e7fc      	b.n	10007aec <tud_cdc_n_connected+0x38>
10007af2:	46c0      	nop			; (mov r8, r8)
10007af4:	20001868 	.word	0x20001868

10007af8 <tud_cdc_n_available>:
10007af8:	b510      	push	{r4, lr}
10007afa:	23b2      	movs	r3, #178	; 0xb2
10007afc:	009b      	lsls	r3, r3, #2
10007afe:	4358      	muls	r0, r3
10007b00:	3010      	adds	r0, #16
10007b02:	4b02      	ldr	r3, [pc, #8]	; (10007b0c <tud_cdc_n_available+0x14>)
10007b04:	18c0      	adds	r0, r0, r3
10007b06:	f000 fdf4 	bl	100086f2 <tu_fifo_count>
10007b0a:	bd10      	pop	{r4, pc}
10007b0c:	20001868 	.word	0x20001868

10007b10 <tud_cdc_n_read>:
10007b10:	b570      	push	{r4, r5, r6, lr}
10007b12:	23b2      	movs	r3, #178	; 0xb2
10007b14:	009b      	lsls	r3, r3, #2
10007b16:	4358      	muls	r0, r3
10007b18:	4b06      	ldr	r3, [pc, #24]	; (10007b34 <tud_cdc_n_read+0x24>)
10007b1a:	18c5      	adds	r5, r0, r3
10007b1c:	b292      	uxth	r2, r2
10007b1e:	3010      	adds	r0, #16
10007b20:	18c0      	adds	r0, r0, r3
10007b22:	f000 fe4e 	bl	100087c2 <tu_fifo_read_n>
10007b26:	0004      	movs	r4, r0
10007b28:	0028      	movs	r0, r5
10007b2a:	f7ff ff9d 	bl	10007a68 <_prep_out_transaction>
10007b2e:	0020      	movs	r0, r4
10007b30:	bd70      	pop	{r4, r5, r6, pc}
10007b32:	46c0      	nop			; (mov r8, r8)
10007b34:	20001868 	.word	0x20001868

10007b38 <tud_cdc_n_write_flush>:
10007b38:	b570      	push	{r4, r5, r6, lr}
10007b3a:	0005      	movs	r5, r0
10007b3c:	f7ff fa58 	bl	10006ff0 <tud_mounted>
10007b40:	2800      	cmp	r0, #0
10007b42:	d104      	bne.n	10007b4e <tud_cdc_n_write_flush+0x16>
10007b44:	2300      	movs	r3, #0
10007b46:	2b00      	cmp	r3, #0
10007b48:	d109      	bne.n	10007b5e <tud_cdc_n_write_flush+0x26>
10007b4a:	2000      	movs	r0, #0
10007b4c:	bd70      	pop	{r4, r5, r6, pc}
10007b4e:	f7ff fa57 	bl	10007000 <tud_suspended>
10007b52:	2800      	cmp	r0, #0
10007b54:	d101      	bne.n	10007b5a <tud_cdc_n_write_flush+0x22>
10007b56:	2301      	movs	r3, #1
10007b58:	e7f5      	b.n	10007b46 <tud_cdc_n_write_flush+0xe>
10007b5a:	2300      	movs	r3, #0
10007b5c:	e7f3      	b.n	10007b46 <tud_cdc_n_write_flush+0xe>
10007b5e:	24b2      	movs	r4, #178	; 0xb2
10007b60:	00a4      	lsls	r4, r4, #2
10007b62:	436c      	muls	r4, r5
10007b64:	3420      	adds	r4, #32
10007b66:	4b21      	ldr	r3, [pc, #132]	; (10007bec <tud_cdc_n_write_flush+0xb4>)
10007b68:	18e4      	adds	r4, r4, r3
10007b6a:	3404      	adds	r4, #4
10007b6c:	0020      	movs	r0, r4
10007b6e:	f000 fdc0 	bl	100086f2 <tu_fifo_count>
10007b72:	2800      	cmp	r0, #0
10007b74:	d101      	bne.n	10007b7a <tud_cdc_n_write_flush+0x42>
10007b76:	2000      	movs	r0, #0
10007b78:	e7e8      	b.n	10007b4c <tud_cdc_n_write_flush+0x14>
10007b7a:	22b2      	movs	r2, #178	; 0xb2
10007b7c:	0092      	lsls	r2, r2, #2
10007b7e:	436a      	muls	r2, r5
10007b80:	4b1a      	ldr	r3, [pc, #104]	; (10007bec <tud_cdc_n_write_flush+0xb4>)
10007b82:	189b      	adds	r3, r3, r2
10007b84:	7899      	ldrb	r1, [r3, #2]
10007b86:	2000      	movs	r0, #0
10007b88:	f7ff fb14 	bl	100071b4 <usbd_edpt_claim>
10007b8c:	2800      	cmp	r0, #0
10007b8e:	d101      	bne.n	10007b94 <tud_cdc_n_write_flush+0x5c>
10007b90:	2000      	movs	r0, #0
10007b92:	e7db      	b.n	10007b4c <tud_cdc_n_write_flush+0x14>
10007b94:	26b2      	movs	r6, #178	; 0xb2
10007b96:	00b6      	lsls	r6, r6, #2
10007b98:	436e      	muls	r6, r5
10007b9a:	23a2      	movs	r3, #162	; 0xa2
10007b9c:	009b      	lsls	r3, r3, #2
10007b9e:	469c      	mov	ip, r3
10007ba0:	4466      	add	r6, ip
10007ba2:	4b12      	ldr	r3, [pc, #72]	; (10007bec <tud_cdc_n_write_flush+0xb4>)
10007ba4:	18f6      	adds	r6, r6, r3
10007ba6:	2240      	movs	r2, #64	; 0x40
10007ba8:	0031      	movs	r1, r6
10007baa:	0020      	movs	r0, r4
10007bac:	f000 fe09 	bl	100087c2 <tu_fifo_read_n>
10007bb0:	1e04      	subs	r4, r0, #0
10007bb2:	d00e      	beq.n	10007bd2 <tud_cdc_n_write_flush+0x9a>
10007bb4:	20b2      	movs	r0, #178	; 0xb2
10007bb6:	0080      	lsls	r0, r0, #2
10007bb8:	4368      	muls	r0, r5
10007bba:	4d0c      	ldr	r5, [pc, #48]	; (10007bec <tud_cdc_n_write_flush+0xb4>)
10007bbc:	182d      	adds	r5, r5, r0
10007bbe:	78a9      	ldrb	r1, [r5, #2]
10007bc0:	0023      	movs	r3, r4
10007bc2:	0032      	movs	r2, r6
10007bc4:	2000      	movs	r0, #0
10007bc6:	f7ff fb1d 	bl	10007204 <usbd_edpt_xfer>
10007bca:	2800      	cmp	r0, #0
10007bcc:	d00c      	beq.n	10007be8 <tud_cdc_n_write_flush+0xb0>
10007bce:	0020      	movs	r0, r4
10007bd0:	e7bc      	b.n	10007b4c <tud_cdc_n_write_flush+0x14>
10007bd2:	20b2      	movs	r0, #178	; 0xb2
10007bd4:	0080      	lsls	r0, r0, #2
10007bd6:	4368      	muls	r0, r5
10007bd8:	4d04      	ldr	r5, [pc, #16]	; (10007bec <tud_cdc_n_write_flush+0xb4>)
10007bda:	182d      	adds	r5, r5, r0
10007bdc:	78a9      	ldrb	r1, [r5, #2]
10007bde:	2000      	movs	r0, #0
10007be0:	f7ff fafc 	bl	100071dc <usbd_edpt_release>
10007be4:	2000      	movs	r0, #0
10007be6:	e7b1      	b.n	10007b4c <tud_cdc_n_write_flush+0x14>
10007be8:	2000      	movs	r0, #0
10007bea:	e7af      	b.n	10007b4c <tud_cdc_n_write_flush+0x14>
10007bec:	20001868 	.word	0x20001868

10007bf0 <tud_cdc_n_write>:
10007bf0:	b570      	push	{r4, r5, r6, lr}
10007bf2:	0005      	movs	r5, r0
10007bf4:	24b2      	movs	r4, #178	; 0xb2
10007bf6:	00a4      	lsls	r4, r4, #2
10007bf8:	4344      	muls	r4, r0
10007bfa:	3420      	adds	r4, #32
10007bfc:	4b09      	ldr	r3, [pc, #36]	; (10007c24 <tud_cdc_n_write+0x34>)
10007bfe:	18e4      	adds	r4, r4, r3
10007c00:	3404      	adds	r4, #4
10007c02:	b292      	uxth	r2, r2
10007c04:	0020      	movs	r0, r4
10007c06:	f000 fe13 	bl	10008830 <tu_fifo_write_n>
10007c0a:	0006      	movs	r6, r0
10007c0c:	0020      	movs	r0, r4
10007c0e:	f000 fd70 	bl	100086f2 <tu_fifo_count>
10007c12:	283f      	cmp	r0, #63	; 0x3f
10007c14:	d801      	bhi.n	10007c1a <tud_cdc_n_write+0x2a>
10007c16:	0030      	movs	r0, r6
10007c18:	bd70      	pop	{r4, r5, r6, pc}
10007c1a:	0028      	movs	r0, r5
10007c1c:	f7ff ff8c 	bl	10007b38 <tud_cdc_n_write_flush>
10007c20:	e7f9      	b.n	10007c16 <tud_cdc_n_write+0x26>
10007c22:	46c0      	nop			; (mov r8, r8)
10007c24:	20001868 	.word	0x20001868

10007c28 <tud_cdc_n_write_available>:
10007c28:	b510      	push	{r4, lr}
10007c2a:	23b2      	movs	r3, #178	; 0xb2
10007c2c:	009b      	lsls	r3, r3, #2
10007c2e:	4358      	muls	r0, r3
10007c30:	3020      	adds	r0, #32
10007c32:	4b03      	ldr	r3, [pc, #12]	; (10007c40 <tud_cdc_n_write_available+0x18>)
10007c34:	18c0      	adds	r0, r0, r3
10007c36:	3004      	adds	r0, #4
10007c38:	f000 fd8c 	bl	10008754 <tu_fifo_remaining>
10007c3c:	bd10      	pop	{r4, pc}
10007c3e:	46c0      	nop			; (mov r8, r8)
10007c40:	20001868 	.word	0x20001868

10007c44 <cdcd_init>:
10007c44:	b5f0      	push	{r4, r5, r6, r7, lr}
10007c46:	46ce      	mov	lr, r9
10007c48:	4647      	mov	r7, r8
10007c4a:	b580      	push	{r7, lr}
10007c4c:	b083      	sub	sp, #12
10007c4e:	22b2      	movs	r2, #178	; 0xb2
10007c50:	0092      	lsls	r2, r2, #2
10007c52:	2100      	movs	r1, #0
10007c54:	4828      	ldr	r0, [pc, #160]	; (10007cf8 <cdcd_init+0xb4>)
10007c56:	f7fe f8b9 	bl	10005dcc <__wrap_memset>
10007c5a:	2600      	movs	r6, #0
10007c5c:	2e00      	cmp	r6, #0
10007c5e:	d004      	beq.n	10007c6a <cdcd_init+0x26>
10007c60:	b003      	add	sp, #12
10007c62:	bcc0      	pop	{r6, r7}
10007c64:	46b9      	mov	r9, r7
10007c66:	46b0      	mov	r8, r6
10007c68:	bdf0      	pop	{r4, r5, r6, r7, pc}
10007c6a:	4f23      	ldr	r7, [pc, #140]	; (10007cf8 <cdcd_init+0xb4>)
10007c6c:	24b2      	movs	r4, #178	; 0xb2
10007c6e:	00a4      	lsls	r4, r4, #2
10007c70:	4374      	muls	r4, r6
10007c72:	193d      	adds	r5, r7, r4
10007c74:	23ff      	movs	r3, #255	; 0xff
10007c76:	716b      	strb	r3, [r5, #5]
10007c78:	2300      	movs	r3, #0
10007c7a:	4698      	mov	r8, r3
10007c7c:	4a1f      	ldr	r2, [pc, #124]	; (10007cfc <cdcd_init+0xb8>)
10007c7e:	80ea      	strh	r2, [r5, #6]
10007c80:	2201      	movs	r2, #1
10007c82:	812a      	strh	r2, [r5, #8]
10007c84:	72ab      	strb	r3, [r5, #10]
10007c86:	72eb      	strb	r3, [r5, #11]
10007c88:	2308      	movs	r3, #8
10007c8a:	732b      	strb	r3, [r5, #12]
10007c8c:	0021      	movs	r1, r4
10007c8e:	3138      	adds	r1, #56	; 0x38
10007c90:	19c9      	adds	r1, r1, r7
10007c92:	33f8      	adds	r3, #248	; 0xf8
10007c94:	4699      	mov	r9, r3
10007c96:	0020      	movs	r0, r4
10007c98:	3010      	adds	r0, #16
10007c9a:	19c0      	adds	r0, r0, r7
10007c9c:	4643      	mov	r3, r8
10007c9e:	9300      	str	r3, [sp, #0]
10007ca0:	3301      	adds	r3, #1
10007ca2:	464a      	mov	r2, r9
10007ca4:	f000 fce7 	bl	10008676 <tu_fifo_config>
10007ca8:	0021      	movs	r1, r4
10007caa:	3139      	adds	r1, #57	; 0x39
10007cac:	31ff      	adds	r1, #255	; 0xff
10007cae:	19c9      	adds	r1, r1, r7
10007cb0:	0020      	movs	r0, r4
10007cb2:	3020      	adds	r0, #32
10007cb4:	19c0      	adds	r0, r0, r7
10007cb6:	3004      	adds	r0, #4
10007cb8:	2301      	movs	r3, #1
10007cba:	9300      	str	r3, [sp, #0]
10007cbc:	464a      	mov	r2, r9
10007cbe:	f000 fcda 	bl	10008676 <tu_fifo_config>
10007cc2:	238e      	movs	r3, #142	; 0x8e
10007cc4:	009b      	lsls	r3, r3, #2
10007cc6:	18e3      	adds	r3, r4, r3
10007cc8:	4699      	mov	r9, r3
10007cca:	44b9      	add	r9, r7
10007ccc:	4648      	mov	r0, r9
10007cce:	f7fa f97f 	bl	10001fd0 <mutex_init>
10007cd2:	4643      	mov	r3, r8
10007cd4:	61eb      	str	r3, [r5, #28]
10007cd6:	464b      	mov	r3, r9
10007cd8:	622b      	str	r3, [r5, #32]
10007cda:	2390      	movs	r3, #144	; 0x90
10007cdc:	009b      	lsls	r3, r3, #2
10007cde:	469c      	mov	ip, r3
10007ce0:	4464      	add	r4, ip
10007ce2:	19e4      	adds	r4, r4, r7
10007ce4:	0020      	movs	r0, r4
10007ce6:	f7fa f973 	bl	10001fd0 <mutex_init>
10007cea:	632c      	str	r4, [r5, #48]	; 0x30
10007cec:	4643      	mov	r3, r8
10007cee:	636b      	str	r3, [r5, #52]	; 0x34
10007cf0:	3601      	adds	r6, #1
10007cf2:	b2f6      	uxtb	r6, r6
10007cf4:	e7b2      	b.n	10007c5c <cdcd_init+0x18>
10007cf6:	46c0      	nop			; (mov r8, r8)
10007cf8:	20001868 	.word	0x20001868
10007cfc:	ffffc200 	.word	0xffffc200

10007d00 <cdcd_reset>:
10007d00:	b570      	push	{r4, r5, r6, lr}
10007d02:	2500      	movs	r5, #0
10007d04:	2d00      	cmp	r5, #0
10007d06:	d000      	beq.n	10007d0a <cdcd_reset+0xa>
10007d08:	bd70      	pop	{r4, r5, r6, pc}
10007d0a:	24b2      	movs	r4, #178	; 0xb2
10007d0c:	00a4      	lsls	r4, r4, #2
10007d0e:	436c      	muls	r4, r5
10007d10:	4e0b      	ldr	r6, [pc, #44]	; (10007d40 <cdcd_reset+0x40>)
10007d12:	19a0      	adds	r0, r4, r6
10007d14:	2205      	movs	r2, #5
10007d16:	2100      	movs	r1, #0
10007d18:	f7fe f858 	bl	10005dcc <__wrap_memset>
10007d1c:	0020      	movs	r0, r4
10007d1e:	3010      	adds	r0, #16
10007d20:	1980      	adds	r0, r0, r6
10007d22:	f000 fd8a 	bl	1000883a <tu_fifo_clear>
10007d26:	3420      	adds	r4, #32
10007d28:	19a4      	adds	r4, r4, r6
10007d2a:	3404      	adds	r4, #4
10007d2c:	0020      	movs	r0, r4
10007d2e:	f000 fd84 	bl	1000883a <tu_fifo_clear>
10007d32:	2101      	movs	r1, #1
10007d34:	0020      	movs	r0, r4
10007d36:	f000 fd9f 	bl	10008878 <tu_fifo_set_overwritable>
10007d3a:	3501      	adds	r5, #1
10007d3c:	b2ed      	uxtb	r5, r5
10007d3e:	e7e1      	b.n	10007d04 <cdcd_reset+0x4>
10007d40:	20001868 	.word	0x20001868

10007d44 <cdcd_open>:
10007d44:	b5f0      	push	{r4, r5, r6, r7, lr}
10007d46:	b083      	sub	sp, #12
10007d48:	0006      	movs	r6, r0
10007d4a:	794b      	ldrb	r3, [r1, #5]
10007d4c:	2b02      	cmp	r3, #2
10007d4e:	d150      	bne.n	10007df2 <cdcd_open+0xae>
10007d50:	798b      	ldrb	r3, [r1, #6]
10007d52:	2b02      	cmp	r3, #2
10007d54:	d151      	bne.n	10007dfa <cdcd_open+0xb6>
10007d56:	2300      	movs	r3, #0
10007d58:	2b00      	cmp	r3, #0
10007d5a:	d008      	beq.n	10007d6e <cdcd_open+0x2a>
10007d5c:	2700      	movs	r7, #0
10007d5e:	2f00      	cmp	r7, #0
10007d60:	d04d      	beq.n	10007dfe <cdcd_open+0xba>
10007d62:	788b      	ldrb	r3, [r1, #2]
10007d64:	703b      	strb	r3, [r7, #0]
10007d66:	780c      	ldrb	r4, [r1, #0]
10007d68:	190c      	adds	r4, r1, r4
10007d6a:	2509      	movs	r5, #9
10007d6c:	e011      	b.n	10007d92 <cdcd_open+0x4e>
10007d6e:	24b2      	movs	r4, #178	; 0xb2
10007d70:	00a4      	lsls	r4, r4, #2
10007d72:	435c      	muls	r4, r3
10007d74:	4825      	ldr	r0, [pc, #148]	; (10007e0c <cdcd_open+0xc8>)
10007d76:	1900      	adds	r0, r0, r4
10007d78:	7880      	ldrb	r0, [r0, #2]
10007d7a:	2800      	cmp	r0, #0
10007d7c:	d002      	beq.n	10007d84 <cdcd_open+0x40>
10007d7e:	3301      	adds	r3, #1
10007d80:	b2db      	uxtb	r3, r3
10007d82:	e7e9      	b.n	10007d58 <cdcd_open+0x14>
10007d84:	4f21      	ldr	r7, [pc, #132]	; (10007e0c <cdcd_open+0xc8>)
10007d86:	19e7      	adds	r7, r4, r7
10007d88:	e7e9      	b.n	10007d5e <cdcd_open+0x1a>
10007d8a:	7821      	ldrb	r1, [r4, #0]
10007d8c:	194d      	adds	r5, r1, r5
10007d8e:	b2ad      	uxth	r5, r5
10007d90:	1864      	adds	r4, r4, r1
10007d92:	7863      	ldrb	r3, [r4, #1]
10007d94:	2b24      	cmp	r3, #36	; 0x24
10007d96:	d101      	bne.n	10007d9c <cdcd_open+0x58>
10007d98:	4295      	cmp	r5, r2
10007d9a:	d9f6      	bls.n	10007d8a <cdcd_open+0x46>
10007d9c:	2b05      	cmp	r3, #5
10007d9e:	d009      	beq.n	10007db4 <cdcd_open+0x70>
10007da0:	7863      	ldrb	r3, [r4, #1]
10007da2:	2b04      	cmp	r3, #4
10007da4:	d102      	bne.n	10007dac <cdcd_open+0x68>
10007da6:	7963      	ldrb	r3, [r4, #5]
10007da8:	2b0a      	cmp	r3, #10
10007daa:	d010      	beq.n	10007dce <cdcd_open+0x8a>
10007dac:	0038      	movs	r0, r7
10007dae:	f7ff fe5b 	bl	10007a68 <_prep_out_transaction>
10007db2:	e01f      	b.n	10007df4 <cdcd_open+0xb0>
10007db4:	0021      	movs	r1, r4
10007db6:	0030      	movs	r0, r6
10007db8:	f7ff f9b0 	bl	1000711c <usbd_edpt_open>
10007dbc:	2800      	cmp	r0, #0
10007dbe:	d020      	beq.n	10007e02 <cdcd_open+0xbe>
10007dc0:	78a3      	ldrb	r3, [r4, #2]
10007dc2:	707b      	strb	r3, [r7, #1]
10007dc4:	7822      	ldrb	r2, [r4, #0]
10007dc6:	1955      	adds	r5, r2, r5
10007dc8:	b2ad      	uxth	r5, r5
10007dca:	18a4      	adds	r4, r4, r2
10007dcc:	e7e8      	b.n	10007da0 <cdcd_open+0x5c>
10007dce:	7821      	ldrb	r1, [r4, #0]
10007dd0:	194d      	adds	r5, r1, r5
10007dd2:	b2ad      	uxth	r5, r5
10007dd4:	1861      	adds	r1, r4, r1
10007dd6:	1cbb      	adds	r3, r7, #2
10007dd8:	9301      	str	r3, [sp, #4]
10007dda:	1cfb      	adds	r3, r7, #3
10007ddc:	9300      	str	r3, [sp, #0]
10007dde:	2302      	movs	r3, #2
10007de0:	2202      	movs	r2, #2
10007de2:	0030      	movs	r0, r6
10007de4:	f7ff f9b4 	bl	10007150 <usbd_open_edpt_pair>
10007de8:	2800      	cmp	r0, #0
10007dea:	d00c      	beq.n	10007e06 <cdcd_open+0xc2>
10007dec:	350e      	adds	r5, #14
10007dee:	b2ad      	uxth	r5, r5
10007df0:	e7dc      	b.n	10007dac <cdcd_open+0x68>
10007df2:	2500      	movs	r5, #0
10007df4:	0028      	movs	r0, r5
10007df6:	b003      	add	sp, #12
10007df8:	bdf0      	pop	{r4, r5, r6, r7, pc}
10007dfa:	2500      	movs	r5, #0
10007dfc:	e7fa      	b.n	10007df4 <cdcd_open+0xb0>
10007dfe:	2500      	movs	r5, #0
10007e00:	e7f8      	b.n	10007df4 <cdcd_open+0xb0>
10007e02:	2500      	movs	r5, #0
10007e04:	e7f6      	b.n	10007df4 <cdcd_open+0xb0>
10007e06:	2500      	movs	r5, #0
10007e08:	e7f4      	b.n	10007df4 <cdcd_open+0xb0>
10007e0a:	46c0      	nop			; (mov r8, r8)
10007e0c:	20001868 	.word	0x20001868

10007e10 <cdcd_control_xfer_cb>:
10007e10:	b5f8      	push	{r3, r4, r5, r6, r7, lr}
10007e12:	0014      	movs	r4, r2
10007e14:	7812      	ldrb	r2, [r2, #0]
10007e16:	2360      	movs	r3, #96	; 0x60
10007e18:	4013      	ands	r3, r2
10007e1a:	2b20      	cmp	r3, #32
10007e1c:	d000      	beq.n	10007e20 <cdcd_control_xfer_cb+0x10>
10007e1e:	e07f      	b.n	10007f20 <cdcd_control_xfer_cb+0x110>
10007e20:	4a44      	ldr	r2, [pc, #272]	; (10007f34 <cdcd_control_xfer_cb+0x124>)
10007e22:	2500      	movs	r5, #0
10007e24:	2d00      	cmp	r5, #0
10007e26:	d000      	beq.n	10007e2a <cdcd_control_xfer_cb+0x1a>
10007e28:	e07c      	b.n	10007f24 <cdcd_control_xfer_cb+0x114>
10007e2a:	7816      	ldrb	r6, [r2, #0]
10007e2c:	7927      	ldrb	r7, [r4, #4]
10007e2e:	7963      	ldrb	r3, [r4, #5]
10007e30:	021b      	lsls	r3, r3, #8
10007e32:	433b      	orrs	r3, r7
10007e34:	429e      	cmp	r6, r3
10007e36:	d006      	beq.n	10007e46 <cdcd_control_xfer_cb+0x36>
10007e38:	3501      	adds	r5, #1
10007e3a:	b2ed      	uxtb	r5, r5
10007e3c:	23b2      	movs	r3, #178	; 0xb2
10007e3e:	009b      	lsls	r3, r3, #2
10007e40:	469c      	mov	ip, r3
10007e42:	4462      	add	r2, ip
10007e44:	e7ee      	b.n	10007e24 <cdcd_control_xfer_cb+0x14>
10007e46:	7863      	ldrb	r3, [r4, #1]
10007e48:	2b22      	cmp	r3, #34	; 0x22
10007e4a:	d031      	beq.n	10007eb0 <cdcd_control_xfer_cb+0xa0>
10007e4c:	d809      	bhi.n	10007e62 <cdcd_control_xfer_cb+0x52>
10007e4e:	2b20      	cmp	r3, #32
10007e50:	d011      	beq.n	10007e76 <cdcd_control_xfer_cb+0x66>
10007e52:	2b21      	cmp	r3, #33	; 0x21
10007e54:	d103      	bne.n	10007e5e <cdcd_control_xfer_cb+0x4e>
10007e56:	2901      	cmp	r1, #1
10007e58:	d023      	beq.n	10007ea2 <cdcd_control_xfer_cb+0x92>
10007e5a:	2001      	movs	r0, #1
10007e5c:	e061      	b.n	10007f22 <cdcd_control_xfer_cb+0x112>
10007e5e:	2000      	movs	r0, #0
10007e60:	e05f      	b.n	10007f22 <cdcd_control_xfer_cb+0x112>
10007e62:	2b23      	cmp	r3, #35	; 0x23
10007e64:	d105      	bne.n	10007e72 <cdcd_control_xfer_cb+0x62>
10007e66:	2901      	cmp	r1, #1
10007e68:	d049      	beq.n	10007efe <cdcd_control_xfer_cb+0xee>
10007e6a:	2903      	cmp	r1, #3
10007e6c:	d04c      	beq.n	10007f08 <cdcd_control_xfer_cb+0xf8>
10007e6e:	2001      	movs	r0, #1
10007e70:	e057      	b.n	10007f22 <cdcd_control_xfer_cb+0x112>
10007e72:	2000      	movs	r0, #0
10007e74:	e055      	b.n	10007f22 <cdcd_control_xfer_cb+0x112>
10007e76:	2901      	cmp	r1, #1
10007e78:	d003      	beq.n	10007e82 <cdcd_control_xfer_cb+0x72>
10007e7a:	2903      	cmp	r1, #3
10007e7c:	d008      	beq.n	10007e90 <cdcd_control_xfer_cb+0x80>
10007e7e:	2001      	movs	r0, #1
10007e80:	e04f      	b.n	10007f22 <cdcd_control_xfer_cb+0x112>
10007e82:	3206      	adds	r2, #6
10007e84:	2307      	movs	r3, #7
10007e86:	0021      	movs	r1, r4
10007e88:	f7ff fd30 	bl	100078ec <tud_control_xfer>
10007e8c:	2001      	movs	r0, #1
10007e8e:	e048      	b.n	10007f22 <cdcd_control_xfer_cb+0x112>
10007e90:	4b29      	ldr	r3, [pc, #164]	; (10007f38 <cdcd_control_xfer_cb+0x128>)
10007e92:	2b00      	cmp	r3, #0
10007e94:	d048      	beq.n	10007f28 <cdcd_control_xfer_cb+0x118>
10007e96:	1d91      	adds	r1, r2, #6
10007e98:	0028      	movs	r0, r5
10007e9a:	f7fe fa77 	bl	1000638c <tud_cdc_line_coding_cb>
10007e9e:	2001      	movs	r0, #1
10007ea0:	e03f      	b.n	10007f22 <cdcd_control_xfer_cb+0x112>
10007ea2:	3206      	adds	r2, #6
10007ea4:	2307      	movs	r3, #7
10007ea6:	0021      	movs	r1, r4
10007ea8:	f7ff fd20 	bl	100078ec <tud_control_xfer>
10007eac:	2001      	movs	r0, #1
10007eae:	e038      	b.n	10007f22 <cdcd_control_xfer_cb+0x112>
10007eb0:	2901      	cmp	r1, #1
10007eb2:	d003      	beq.n	10007ebc <cdcd_control_xfer_cb+0xac>
10007eb4:	2903      	cmp	r1, #3
10007eb6:	d006      	beq.n	10007ec6 <cdcd_control_xfer_cb+0xb6>
10007eb8:	2001      	movs	r0, #1
10007eba:	e032      	b.n	10007f22 <cdcd_control_xfer_cb+0x112>
10007ebc:	0021      	movs	r1, r4
10007ebe:	f7ff fcf9 	bl	100078b4 <tud_control_status>
10007ec2:	2001      	movs	r0, #1
10007ec4:	e02d      	b.n	10007f22 <cdcd_control_xfer_cb+0x112>
10007ec6:	78a1      	ldrb	r1, [r4, #2]
10007ec8:	78e3      	ldrb	r3, [r4, #3]
10007eca:	021b      	lsls	r3, r3, #8
10007ecc:	430b      	orrs	r3, r1
10007ece:	2001      	movs	r0, #1
10007ed0:	0019      	movs	r1, r3
10007ed2:	4001      	ands	r1, r0
10007ed4:	000e      	movs	r6, r1
10007ed6:	085c      	lsrs	r4, r3, #1
10007ed8:	4004      	ands	r4, r0
10007eda:	7113      	strb	r3, [r2, #4]
10007edc:	424b      	negs	r3, r1
10007ede:	4159      	adcs	r1, r3
10007ee0:	b2c9      	uxtb	r1, r1
10007ee2:	3224      	adds	r2, #36	; 0x24
10007ee4:	0010      	movs	r0, r2
10007ee6:	f000 fcc7 	bl	10008878 <tu_fifo_set_overwritable>
10007eea:	4b14      	ldr	r3, [pc, #80]	; (10007f3c <cdcd_control_xfer_cb+0x12c>)
10007eec:	2b00      	cmp	r3, #0
10007eee:	d01d      	beq.n	10007f2c <cdcd_control_xfer_cb+0x11c>
10007ef0:	0022      	movs	r2, r4
10007ef2:	0031      	movs	r1, r6
10007ef4:	0028      	movs	r0, r5
10007ef6:	e000      	b.n	10007efa <cdcd_control_xfer_cb+0xea>
10007ef8:	bf00      	nop
10007efa:	2001      	movs	r0, #1
10007efc:	e011      	b.n	10007f22 <cdcd_control_xfer_cb+0x112>
10007efe:	0021      	movs	r1, r4
10007f00:	f7ff fcd8 	bl	100078b4 <tud_control_status>
10007f04:	2001      	movs	r0, #1
10007f06:	e00c      	b.n	10007f22 <cdcd_control_xfer_cb+0x112>
10007f08:	4b0d      	ldr	r3, [pc, #52]	; (10007f40 <cdcd_control_xfer_cb+0x130>)
10007f0a:	2b00      	cmp	r3, #0
10007f0c:	d010      	beq.n	10007f30 <cdcd_control_xfer_cb+0x120>
10007f0e:	78a3      	ldrb	r3, [r4, #2]
10007f10:	78e1      	ldrb	r1, [r4, #3]
10007f12:	0209      	lsls	r1, r1, #8
10007f14:	4319      	orrs	r1, r3
10007f16:	0028      	movs	r0, r5
10007f18:	e000      	b.n	10007f1c <cdcd_control_xfer_cb+0x10c>
10007f1a:	bf00      	nop
10007f1c:	2001      	movs	r0, #1
10007f1e:	e000      	b.n	10007f22 <cdcd_control_xfer_cb+0x112>
10007f20:	2000      	movs	r0, #0
10007f22:	bdf8      	pop	{r3, r4, r5, r6, r7, pc}
10007f24:	2000      	movs	r0, #0
10007f26:	e7fc      	b.n	10007f22 <cdcd_control_xfer_cb+0x112>
10007f28:	2001      	movs	r0, #1
10007f2a:	e7fa      	b.n	10007f22 <cdcd_control_xfer_cb+0x112>
10007f2c:	2001      	movs	r0, #1
10007f2e:	e7f8      	b.n	10007f22 <cdcd_control_xfer_cb+0x112>
10007f30:	2001      	movs	r0, #1
10007f32:	e7f6      	b.n	10007f22 <cdcd_control_xfer_cb+0x112>
10007f34:	20001868 	.word	0x20001868
10007f38:	1000638d 	.word	0x1000638d
	...

10007f44 <cdcd_xfer_cb>:
10007f44:	b5f0      	push	{r4, r5, r6, r7, lr}
10007f46:	46d6      	mov	lr, sl
10007f48:	b500      	push	{lr}
10007f4a:	b082      	sub	sp, #8
10007f4c:	9001      	str	r0, [sp, #4]
10007f4e:	000f      	movs	r7, r1
10007f50:	9300      	str	r3, [sp, #0]
10007f52:	2400      	movs	r4, #0
10007f54:	2c00      	cmp	r4, #0
10007f56:	d00e      	beq.n	10007f76 <cdcd_xfer_cb+0x32>
10007f58:	2c00      	cmp	r4, #0
10007f5a:	d000      	beq.n	10007f5e <cdcd_xfer_cb+0x1a>
10007f5c:	e07c      	b.n	10008058 <cdcd_xfer_cb+0x114>
10007f5e:	78eb      	ldrb	r3, [r5, #3]
10007f60:	42bb      	cmp	r3, r7
10007f62:	d016      	beq.n	10007f92 <cdcd_xfer_cb+0x4e>
10007f64:	78ab      	ldrb	r3, [r5, #2]
10007f66:	42bb      	cmp	r3, r7
10007f68:	d04d      	beq.n	10008006 <cdcd_xfer_cb+0xc2>
10007f6a:	2401      	movs	r4, #1
10007f6c:	0020      	movs	r0, r4
10007f6e:	b002      	add	sp, #8
10007f70:	bc80      	pop	{r7}
10007f72:	46ba      	mov	sl, r7
10007f74:	bdf0      	pop	{r4, r5, r6, r7, pc}
10007f76:	25b2      	movs	r5, #178	; 0xb2
10007f78:	00ad      	lsls	r5, r5, #2
10007f7a:	4365      	muls	r5, r4
10007f7c:	4b39      	ldr	r3, [pc, #228]	; (10008064 <cdcd_xfer_cb+0x120>)
10007f7e:	18ed      	adds	r5, r5, r3
10007f80:	78eb      	ldrb	r3, [r5, #3]
10007f82:	42bb      	cmp	r3, r7
10007f84:	d0e8      	beq.n	10007f58 <cdcd_xfer_cb+0x14>
10007f86:	78ab      	ldrb	r3, [r5, #2]
10007f88:	42bb      	cmp	r3, r7
10007f8a:	d0e5      	beq.n	10007f58 <cdcd_xfer_cb+0x14>
10007f8c:	3401      	adds	r4, #1
10007f8e:	b2e4      	uxtb	r4, r4
10007f90:	e7e0      	b.n	10007f54 <cdcd_xfer_cb+0x10>
10007f92:	2310      	movs	r3, #16
10007f94:	469a      	mov	sl, r3
10007f96:	44aa      	add	sl, r5
10007f98:	2392      	movs	r3, #146	; 0x92
10007f9a:	009b      	lsls	r3, r3, #2
10007f9c:	18e9      	adds	r1, r5, r3
10007f9e:	466b      	mov	r3, sp
10007fa0:	881a      	ldrh	r2, [r3, #0]
10007fa2:	4650      	mov	r0, sl
10007fa4:	f000 fc44 	bl	10008830 <tu_fifo_write_n>
10007fa8:	4b2f      	ldr	r3, [pc, #188]	; (10008068 <cdcd_xfer_cb+0x124>)
10007faa:	2b00      	cmp	r3, #0
10007fac:	d01b      	beq.n	10007fe6 <cdcd_xfer_cb+0xa2>
10007fae:	796b      	ldrb	r3, [r5, #5]
10007fb0:	2bff      	cmp	r3, #255	; 0xff
10007fb2:	d018      	beq.n	10007fe6 <cdcd_xfer_cb+0xa2>
10007fb4:	2600      	movs	r6, #0
10007fb6:	e000      	b.n	10007fba <cdcd_xfer_cb+0x76>
10007fb8:	3601      	adds	r6, #1
10007fba:	9b00      	ldr	r3, [sp, #0]
10007fbc:	429e      	cmp	r6, r3
10007fbe:	d212      	bcs.n	10007fe6 <cdcd_xfer_cb+0xa2>
10007fc0:	796a      	ldrb	r2, [r5, #5]
10007fc2:	19ab      	adds	r3, r5, r6
10007fc4:	2192      	movs	r1, #146	; 0x92
10007fc6:	0089      	lsls	r1, r1, #2
10007fc8:	468c      	mov	ip, r1
10007fca:	4463      	add	r3, ip
10007fcc:	781b      	ldrb	r3, [r3, #0]
10007fce:	429a      	cmp	r2, r3
10007fd0:	d1f2      	bne.n	10007fb8 <cdcd_xfer_cb+0x74>
10007fd2:	4650      	mov	r0, sl
10007fd4:	f000 fba2 	bl	1000871c <tu_fifo_empty>
10007fd8:	2800      	cmp	r0, #0
10007fda:	d1ed      	bne.n	10007fb8 <cdcd_xfer_cb+0x74>
10007fdc:	7969      	ldrb	r1, [r5, #5]
10007fde:	0020      	movs	r0, r4
10007fe0:	e000      	b.n	10007fe4 <cdcd_xfer_cb+0xa0>
10007fe2:	bf00      	nop
10007fe4:	e7e8      	b.n	10007fb8 <cdcd_xfer_cb+0x74>
10007fe6:	4b21      	ldr	r3, [pc, #132]	; (1000806c <cdcd_xfer_cb+0x128>)
10007fe8:	2b00      	cmp	r3, #0
10007fea:	d004      	beq.n	10007ff6 <cdcd_xfer_cb+0xb2>
10007fec:	4650      	mov	r0, sl
10007fee:	f000 fb95 	bl	1000871c <tu_fifo_empty>
10007ff2:	2800      	cmp	r0, #0
10007ff4:	d003      	beq.n	10007ffe <cdcd_xfer_cb+0xba>
10007ff6:	0028      	movs	r0, r5
10007ff8:	f7ff fd36 	bl	10007a68 <_prep_out_transaction>
10007ffc:	e7b2      	b.n	10007f64 <cdcd_xfer_cb+0x20>
10007ffe:	0020      	movs	r0, r4
10008000:	f7fe fa86 	bl	10006510 <tud_cdc_rx_cb>
10008004:	e7f7      	b.n	10007ff6 <cdcd_xfer_cb+0xb2>
10008006:	4b1a      	ldr	r3, [pc, #104]	; (10008070 <cdcd_xfer_cb+0x12c>)
10008008:	2b00      	cmp	r3, #0
1000800a:	d002      	beq.n	10008012 <cdcd_xfer_cb+0xce>
1000800c:	0020      	movs	r0, r4
1000800e:	e000      	b.n	10008012 <cdcd_xfer_cb+0xce>
10008010:	bf00      	nop
10008012:	0020      	movs	r0, r4
10008014:	f7ff fd90 	bl	10007b38 <tud_cdc_n_write_flush>
10008018:	2800      	cmp	r0, #0
1000801a:	d001      	beq.n	10008020 <cdcd_xfer_cb+0xdc>
1000801c:	2401      	movs	r4, #1
1000801e:	e7a5      	b.n	10007f6c <cdcd_xfer_cb+0x28>
10008020:	0028      	movs	r0, r5
10008022:	3024      	adds	r0, #36	; 0x24
10008024:	f000 fb65 	bl	100086f2 <tu_fifo_count>
10008028:	2800      	cmp	r0, #0
1000802a:	d117      	bne.n	1000805c <cdcd_xfer_cb+0x118>
1000802c:	9b00      	ldr	r3, [sp, #0]
1000802e:	2b00      	cmp	r3, #0
10008030:	d016      	beq.n	10008060 <cdcd_xfer_cb+0x11c>
10008032:	069b      	lsls	r3, r3, #26
10008034:	d001      	beq.n	1000803a <cdcd_xfer_cb+0xf6>
10008036:	2401      	movs	r4, #1
10008038:	e798      	b.n	10007f6c <cdcd_xfer_cb+0x28>
1000803a:	78a9      	ldrb	r1, [r5, #2]
1000803c:	9801      	ldr	r0, [sp, #4]
1000803e:	f7ff f8b9 	bl	100071b4 <usbd_edpt_claim>
10008042:	1e04      	subs	r4, r0, #0
10008044:	d101      	bne.n	1000804a <cdcd_xfer_cb+0x106>
10008046:	2401      	movs	r4, #1
10008048:	e790      	b.n	10007f6c <cdcd_xfer_cb+0x28>
1000804a:	78a9      	ldrb	r1, [r5, #2]
1000804c:	2300      	movs	r3, #0
1000804e:	2200      	movs	r2, #0
10008050:	9801      	ldr	r0, [sp, #4]
10008052:	f7ff f8d7 	bl	10007204 <usbd_edpt_xfer>
10008056:	e789      	b.n	10007f6c <cdcd_xfer_cb+0x28>
10008058:	2400      	movs	r4, #0
1000805a:	e787      	b.n	10007f6c <cdcd_xfer_cb+0x28>
1000805c:	2401      	movs	r4, #1
1000805e:	e785      	b.n	10007f6c <cdcd_xfer_cb+0x28>
10008060:	2401      	movs	r4, #1
10008062:	e783      	b.n	10007f6c <cdcd_xfer_cb+0x28>
10008064:	20001868 	.word	0x20001868
10008068:	00000000 	.word	0x00000000
1000806c:	10006511 	.word	0x10006511
10008070:	00000000 	.word	0x00000000

10008074 <tusb_init>:
10008074:	b510      	push	{r4, lr}
10008076:	2000      	movs	r0, #0
10008078:	f7fe ffd4 	bl	10007024 <tud_init>
1000807c:	bd10      	pop	{r4, pc}

1000807e <tusb_inited>:
1000807e:	b510      	push	{r4, lr}
10008080:	f7fe ffc6 	bl	10007010 <tud_inited>
10008084:	2800      	cmp	r0, #0
10008086:	d000      	beq.n	1000808a <tusb_inited+0xc>
10008088:	2001      	movs	r0, #1
1000808a:	bd10      	pop	{r4, pc}

1000808c <tu_edpt_claim>:
1000808c:	b570      	push	{r4, r5, r6, lr}
1000808e:	0004      	movs	r4, r0
10008090:	000d      	movs	r5, r1
10008092:	7803      	ldrb	r3, [r0, #0]
10008094:	07db      	lsls	r3, r3, #31
10008096:	0fde      	lsrs	r6, r3, #31
10008098:	2b00      	cmp	r3, #0
1000809a:	d11c      	bne.n	100080d6 <tu_edpt_claim+0x4a>
1000809c:	7803      	ldrb	r3, [r0, #0]
1000809e:	075b      	lsls	r3, r3, #29
100080a0:	d41a      	bmi.n	100080d8 <tu_edpt_claim+0x4c>
100080a2:	2101      	movs	r1, #1
100080a4:	4249      	negs	r1, r1
100080a6:	0028      	movs	r0, r5
100080a8:	f001 fb12 	bl	100096d0 <__mutex_enter_timeout_ms_veneer>
100080ac:	7823      	ldrb	r3, [r4, #0]
100080ae:	07db      	lsls	r3, r3, #31
100080b0:	d404      	bmi.n	100080bc <tu_edpt_claim+0x30>
100080b2:	7823      	ldrb	r3, [r4, #0]
100080b4:	075b      	lsls	r3, r3, #29
100080b6:	d50c      	bpl.n	100080d2 <tu_edpt_claim+0x46>
100080b8:	2600      	movs	r6, #0
100080ba:	e000      	b.n	100080be <tu_edpt_claim+0x32>
100080bc:	2600      	movs	r6, #0
100080be:	2e00      	cmp	r6, #0
100080c0:	d003      	beq.n	100080ca <tu_edpt_claim+0x3e>
100080c2:	7823      	ldrb	r3, [r4, #0]
100080c4:	2204      	movs	r2, #4
100080c6:	4313      	orrs	r3, r2
100080c8:	7023      	strb	r3, [r4, #0]
100080ca:	0028      	movs	r0, r5
100080cc:	f001 fac8 	bl	10009660 <__mutex_exit_veneer>
100080d0:	e002      	b.n	100080d8 <tu_edpt_claim+0x4c>
100080d2:	2601      	movs	r6, #1
100080d4:	e7f3      	b.n	100080be <tu_edpt_claim+0x32>
100080d6:	2600      	movs	r6, #0
100080d8:	0030      	movs	r0, r6
100080da:	bd70      	pop	{r4, r5, r6, pc}

100080dc <tu_edpt_release>:
100080dc:	b570      	push	{r4, r5, r6, lr}
100080de:	0004      	movs	r4, r0
100080e0:	000e      	movs	r6, r1
100080e2:	2101      	movs	r1, #1
100080e4:	4249      	negs	r1, r1
100080e6:	0030      	movs	r0, r6
100080e8:	f001 faf2 	bl	100096d0 <__mutex_enter_timeout_ms_veneer>
100080ec:	7823      	ldrb	r3, [r4, #0]
100080ee:	075b      	lsls	r3, r3, #29
100080f0:	d40b      	bmi.n	1000810a <tu_edpt_release+0x2e>
100080f2:	2500      	movs	r5, #0
100080f4:	2d00      	cmp	r5, #0
100080f6:	d003      	beq.n	10008100 <tu_edpt_release+0x24>
100080f8:	7823      	ldrb	r3, [r4, #0]
100080fa:	2204      	movs	r2, #4
100080fc:	4393      	bics	r3, r2
100080fe:	7023      	strb	r3, [r4, #0]
10008100:	0030      	movs	r0, r6
10008102:	f001 faad 	bl	10009660 <__mutex_exit_veneer>
10008106:	0028      	movs	r0, r5
10008108:	bd70      	pop	{r4, r5, r6, pc}
1000810a:	7823      	ldrb	r3, [r4, #0]
1000810c:	07db      	lsls	r3, r3, #31
1000810e:	d501      	bpl.n	10008114 <tu_edpt_release+0x38>
10008110:	2500      	movs	r5, #0
10008112:	e7ef      	b.n	100080f4 <tu_edpt_release+0x18>
10008114:	2501      	movs	r5, #1
10008116:	e7ed      	b.n	100080f4 <tu_edpt_release+0x18>

10008118 <tu_edpt_validate>:
10008118:	b510      	push	{r4, lr}
1000811a:	7904      	ldrb	r4, [r0, #4]
1000811c:	7943      	ldrb	r3, [r0, #5]
1000811e:	021b      	lsls	r3, r3, #8
10008120:	4323      	orrs	r3, r4
10008122:	055b      	lsls	r3, r3, #21
10008124:	0d5b      	lsrs	r3, r3, #21
10008126:	78c2      	ldrb	r2, [r0, #3]
10008128:	0792      	lsls	r2, r2, #30
1000812a:	0f92      	lsrs	r2, r2, #30
1000812c:	2a02      	cmp	r2, #2
1000812e:	d00f      	beq.n	10008150 <tu_edpt_validate+0x38>
10008130:	2a03      	cmp	r2, #3
10008132:	d019      	beq.n	10008168 <tu_edpt_validate+0x50>
10008134:	2a01      	cmp	r2, #1
10008136:	d001      	beq.n	1000813c <tu_edpt_validate+0x24>
10008138:	2000      	movs	r0, #0
1000813a:	bd10      	pop	{r4, pc}
1000813c:	2902      	cmp	r1, #2
1000813e:	d004      	beq.n	1000814a <tu_edpt_validate+0x32>
10008140:	4a12      	ldr	r2, [pc, #72]	; (1000818c <tu_edpt_validate+0x74>)
10008142:	429a      	cmp	r2, r3
10008144:	d31a      	bcc.n	1000817c <tu_edpt_validate+0x64>
10008146:	2001      	movs	r0, #1
10008148:	e7f7      	b.n	1000813a <tu_edpt_validate+0x22>
1000814a:	2280      	movs	r2, #128	; 0x80
1000814c:	00d2      	lsls	r2, r2, #3
1000814e:	e7f8      	b.n	10008142 <tu_edpt_validate+0x2a>
10008150:	2902      	cmp	r1, #2
10008152:	d003      	beq.n	1000815c <tu_edpt_validate+0x44>
10008154:	2b40      	cmp	r3, #64	; 0x40
10008156:	d815      	bhi.n	10008184 <tu_edpt_validate+0x6c>
10008158:	2001      	movs	r0, #1
1000815a:	e7ee      	b.n	1000813a <tu_edpt_validate+0x22>
1000815c:	2280      	movs	r2, #128	; 0x80
1000815e:	0092      	lsls	r2, r2, #2
10008160:	4293      	cmp	r3, r2
10008162:	d10d      	bne.n	10008180 <tu_edpt_validate+0x68>
10008164:	2001      	movs	r0, #1
10008166:	e7e8      	b.n	1000813a <tu_edpt_validate+0x22>
10008168:	2902      	cmp	r1, #2
1000816a:	d004      	beq.n	10008176 <tu_edpt_validate+0x5e>
1000816c:	2240      	movs	r2, #64	; 0x40
1000816e:	429a      	cmp	r2, r3
10008170:	d30a      	bcc.n	10008188 <tu_edpt_validate+0x70>
10008172:	2001      	movs	r0, #1
10008174:	e7e1      	b.n	1000813a <tu_edpt_validate+0x22>
10008176:	2280      	movs	r2, #128	; 0x80
10008178:	00d2      	lsls	r2, r2, #3
1000817a:	e7f8      	b.n	1000816e <tu_edpt_validate+0x56>
1000817c:	2000      	movs	r0, #0
1000817e:	e7dc      	b.n	1000813a <tu_edpt_validate+0x22>
10008180:	2000      	movs	r0, #0
10008182:	e7da      	b.n	1000813a <tu_edpt_validate+0x22>
10008184:	2000      	movs	r0, #0
10008186:	e7d8      	b.n	1000813a <tu_edpt_validate+0x22>
10008188:	2000      	movs	r0, #0
1000818a:	e7d6      	b.n	1000813a <tu_edpt_validate+0x22>
1000818c:	000003ff 	.word	0x000003ff

10008190 <tu_edpt_bind_driver>:
10008190:	b530      	push	{r4, r5, lr}
10008192:	188a      	adds	r2, r1, r2
10008194:	e001      	b.n	1000819a <tu_edpt_bind_driver+0xa>
10008196:	780c      	ldrb	r4, [r1, #0]
10008198:	1909      	adds	r1, r1, r4
1000819a:	4291      	cmp	r1, r2
1000819c:	d20a      	bcs.n	100081b4 <tu_edpt_bind_driver+0x24>
1000819e:	784c      	ldrb	r4, [r1, #1]
100081a0:	2c05      	cmp	r4, #5
100081a2:	d1f8      	bne.n	10008196 <tu_edpt_bind_driver+0x6>
100081a4:	788d      	ldrb	r5, [r1, #2]
100081a6:	347a      	adds	r4, #122	; 0x7a
100081a8:	402c      	ands	r4, r5
100081aa:	0064      	lsls	r4, r4, #1
100081ac:	1904      	adds	r4, r0, r4
100081ae:	09ed      	lsrs	r5, r5, #7
100081b0:	5563      	strb	r3, [r4, r5]
100081b2:	e7f0      	b.n	10008196 <tu_edpt_bind_driver+0x6>
100081b4:	bd30      	pop	{r4, r5, pc}

100081b6 <advance_index>:
100081b6:	0003      	movs	r3, r0
100081b8:	188a      	adds	r2, r1, r2
100081ba:	b290      	uxth	r0, r2
100081bc:	4281      	cmp	r1, r0
100081be:	d802      	bhi.n	100081c6 <advance_index+0x10>
100081c0:	005a      	lsls	r2, r3, #1
100081c2:	4290      	cmp	r0, r2
100081c4:	db03      	blt.n	100081ce <advance_index+0x18>
100081c6:	005b      	lsls	r3, r3, #1
100081c8:	b29b      	uxth	r3, r3
100081ca:	1ac0      	subs	r0, r0, r3
100081cc:	b280      	uxth	r0, r0
100081ce:	4770      	bx	lr

100081d0 <_tu_fifo_peek>:
100081d0:	b570      	push	{r4, r5, r6, lr}
100081d2:	0005      	movs	r5, r0
100081d4:	0008      	movs	r0, r1
100081d6:	88ac      	ldrh	r4, [r5, #4]
100081d8:	429a      	cmp	r2, r3
100081da:	d30b      	bcc.n	100081f4 <_tu_fifo_peek+0x24>
100081dc:	1ad1      	subs	r1, r2, r3
100081de:	b289      	uxth	r1, r1
100081e0:	2900      	cmp	r1, #0
100081e2:	d01e      	beq.n	10008222 <_tu_fifo_peek+0x52>
100081e4:	428c      	cmp	r4, r1
100081e6:	d210      	bcs.n	1000820a <_tu_fifo_peek+0x3a>
100081e8:	4294      	cmp	r4, r2
100081ea:	d809      	bhi.n	10008200 <_tu_fifo_peek+0x30>
100081ec:	1b13      	subs	r3, r2, r4
100081ee:	b29b      	uxth	r3, r3
100081f0:	816b      	strh	r3, [r5, #10]
100081f2:	e00a      	b.n	1000820a <_tu_fifo_peek+0x3a>
100081f4:	1ad1      	subs	r1, r2, r3
100081f6:	b289      	uxth	r1, r1
100081f8:	0066      	lsls	r6, r4, #1
100081fa:	1989      	adds	r1, r1, r6
100081fc:	b289      	uxth	r1, r1
100081fe:	e7ef      	b.n	100081e0 <_tu_fifo_peek+0x10>
10008200:	18a2      	adds	r2, r4, r2
10008202:	b293      	uxth	r3, r2
10008204:	e7f4      	b.n	100081f0 <_tu_fifo_peek+0x20>
10008206:	1b1b      	subs	r3, r3, r4
10008208:	b29b      	uxth	r3, r3
1000820a:	429c      	cmp	r4, r3
1000820c:	d9fb      	bls.n	10008206 <_tu_fifo_peek+0x36>
1000820e:	6829      	ldr	r1, [r5, #0]
10008210:	88ea      	ldrh	r2, [r5, #6]
10008212:	0452      	lsls	r2, r2, #17
10008214:	0c52      	lsrs	r2, r2, #17
10008216:	4353      	muls	r3, r2
10008218:	18c9      	adds	r1, r1, r3
1000821a:	f7fd fddd 	bl	10005dd8 <__wrap___aeabi_memcpy>
1000821e:	2001      	movs	r0, #1
10008220:	bd70      	pop	{r4, r5, r6, pc}
10008222:	2000      	movs	r0, #0
10008224:	e7fc      	b.n	10008220 <_tu_fifo_peek+0x50>

10008226 <_ff_pull_const_addr>:
10008226:	b5f0      	push	{r4, r5, r6, r7, lr}
10008228:	b083      	sub	sp, #12
1000822a:	0006      	movs	r6, r0
1000822c:	0893      	lsrs	r3, r2, #2
1000822e:	e00c      	b.n	1000824a <_ff_pull_const_addr+0x24>
10008230:	780b      	ldrb	r3, [r1, #0]
10008232:	784d      	ldrb	r5, [r1, #1]
10008234:	022d      	lsls	r5, r5, #8
10008236:	431d      	orrs	r5, r3
10008238:	788c      	ldrb	r4, [r1, #2]
1000823a:	0424      	lsls	r4, r4, #16
1000823c:	4325      	orrs	r5, r4
1000823e:	78cb      	ldrb	r3, [r1, #3]
10008240:	061b      	lsls	r3, r3, #24
10008242:	432b      	orrs	r3, r5
10008244:	6033      	str	r3, [r6, #0]
10008246:	3104      	adds	r1, #4
10008248:	003b      	movs	r3, r7
1000824a:	1e5f      	subs	r7, r3, #1
1000824c:	b2bf      	uxth	r7, r7
1000824e:	2b00      	cmp	r3, #0
10008250:	d1ee      	bne.n	10008230 <_ff_pull_const_addr+0xa>
10008252:	3303      	adds	r3, #3
10008254:	0010      	movs	r0, r2
10008256:	4018      	ands	r0, r3
10008258:	421a      	tst	r2, r3
1000825a:	d101      	bne.n	10008260 <_ff_pull_const_addr+0x3a>
1000825c:	b003      	add	sp, #12
1000825e:	bdf0      	pop	{r4, r5, r6, r7, pc}
10008260:	2300      	movs	r3, #0
10008262:	9301      	str	r3, [sp, #4]
10008264:	0002      	movs	r2, r0
10008266:	a801      	add	r0, sp, #4
10008268:	f7fd fdb6 	bl	10005dd8 <__wrap___aeabi_memcpy>
1000826c:	9b01      	ldr	r3, [sp, #4]
1000826e:	6033      	str	r3, [r6, #0]
10008270:	e7f4      	b.n	1000825c <_ff_pull_const_addr+0x36>

10008272 <_ff_pull_n>:
10008272:	b5f0      	push	{r4, r5, r6, r7, lr}
10008274:	46de      	mov	lr, fp
10008276:	4657      	mov	r7, sl
10008278:	464e      	mov	r6, r9
1000827a:	4645      	mov	r5, r8
1000827c:	b5e0      	push	{r5, r6, r7, lr}
1000827e:	b083      	sub	sp, #12
10008280:	0005      	movs	r5, r0
10008282:	468a      	mov	sl, r1
10008284:	a90c      	add	r1, sp, #48	; 0x30
10008286:	7809      	ldrb	r1, [r1, #0]
10008288:	8884      	ldrh	r4, [r0, #4]
1000828a:	1ae0      	subs	r0, r4, r3
1000828c:	b280      	uxth	r0, r0
1000828e:	1b1c      	subs	r4, r3, r4
10008290:	1914      	adds	r4, r2, r4
10008292:	b2a4      	uxth	r4, r4
10008294:	88ef      	ldrh	r7, [r5, #6]
10008296:	047f      	lsls	r7, r7, #17
10008298:	0c7e      	lsrs	r6, r7, #17
1000829a:	0007      	movs	r7, r0
1000829c:	4377      	muls	r7, r6
1000829e:	b2bf      	uxth	r7, r7
100082a0:	4374      	muls	r4, r6
100082a2:	b2a4      	uxth	r4, r4
100082a4:	46a3      	mov	fp, r4
100082a6:	4373      	muls	r3, r6
100082a8:	682c      	ldr	r4, [r5, #0]
100082aa:	46a0      	mov	r8, r4
100082ac:	4498      	add	r8, r3
100082ae:	2900      	cmp	r1, #0
100082b0:	d008      	beq.n	100082c4 <_ff_pull_n+0x52>
100082b2:	2901      	cmp	r1, #1
100082b4:	d01a      	beq.n	100082ec <_ff_pull_n+0x7a>
100082b6:	b003      	add	sp, #12
100082b8:	bcf0      	pop	{r4, r5, r6, r7}
100082ba:	46bb      	mov	fp, r7
100082bc:	46b2      	mov	sl, r6
100082be:	46a9      	mov	r9, r5
100082c0:	46a0      	mov	r8, r4
100082c2:	bdf0      	pop	{r4, r5, r6, r7, pc}
100082c4:	4290      	cmp	r0, r2
100082c6:	d305      	bcc.n	100082d4 <_ff_pull_n+0x62>
100082c8:	4372      	muls	r2, r6
100082ca:	4641      	mov	r1, r8
100082cc:	4650      	mov	r0, sl
100082ce:	f7fd fd83 	bl	10005dd8 <__wrap___aeabi_memcpy>
100082d2:	e7f0      	b.n	100082b6 <_ff_pull_n+0x44>
100082d4:	003a      	movs	r2, r7
100082d6:	4641      	mov	r1, r8
100082d8:	4650      	mov	r0, sl
100082da:	f7fd fd7d 	bl	10005dd8 <__wrap___aeabi_memcpy>
100082de:	6829      	ldr	r1, [r5, #0]
100082e0:	0038      	movs	r0, r7
100082e2:	4450      	add	r0, sl
100082e4:	465a      	mov	r2, fp
100082e6:	f7fd fd77 	bl	10005dd8 <__wrap___aeabi_memcpy>
100082ea:	e7e4      	b.n	100082b6 <_ff_pull_n+0x44>
100082ec:	4290      	cmp	r0, r2
100082ee:	d306      	bcc.n	100082fe <_ff_pull_n+0x8c>
100082f0:	4372      	muls	r2, r6
100082f2:	b292      	uxth	r2, r2
100082f4:	4641      	mov	r1, r8
100082f6:	4650      	mov	r0, sl
100082f8:	f7ff ff95 	bl	10008226 <_ff_pull_const_addr>
100082fc:	e7db      	b.n	100082b6 <_ff_pull_n+0x44>
100082fe:	2303      	movs	r3, #3
10008300:	003a      	movs	r2, r7
10008302:	439a      	bics	r2, r3
10008304:	4691      	mov	r9, r2
10008306:	4641      	mov	r1, r8
10008308:	4650      	mov	r0, sl
1000830a:	f7ff ff8c 	bl	10008226 <_ff_pull_const_addr>
1000830e:	4643      	mov	r3, r8
10008310:	444b      	add	r3, r9
10008312:	2103      	movs	r1, #3
10008314:	003a      	movs	r2, r7
10008316:	400a      	ands	r2, r1
10008318:	420f      	tst	r7, r1
1000831a:	d030      	beq.n	1000837e <_ff_pull_n+0x10c>
1000831c:	2104      	movs	r1, #4
1000831e:	1a89      	subs	r1, r1, r2
10008320:	b289      	uxth	r1, r1
10008322:	1c08      	adds	r0, r1, #0
10008324:	4559      	cmp	r1, fp
10008326:	d900      	bls.n	1000832a <_ff_pull_n+0xb8>
10008328:	4658      	mov	r0, fp
1000832a:	b2c7      	uxtb	r7, r0
1000832c:	21ff      	movs	r1, #255	; 0xff
1000832e:	4001      	ands	r1, r0
10008330:	4658      	mov	r0, fp
10008332:	1a44      	subs	r4, r0, r1
10008334:	b2a1      	uxth	r1, r4
10008336:	468b      	mov	fp, r1
10008338:	2100      	movs	r1, #0
1000833a:	9101      	str	r1, [sp, #4]
1000833c:	a801      	add	r0, sp, #4
1000833e:	e004      	b.n	1000834a <_ff_pull_n+0xd8>
10008340:	781a      	ldrb	r2, [r3, #0]
10008342:	7002      	strb	r2, [r0, #0]
10008344:	3001      	adds	r0, #1
10008346:	000a      	movs	r2, r1
10008348:	3301      	adds	r3, #1
1000834a:	1e51      	subs	r1, r2, #1
1000834c:	b2c9      	uxtb	r1, r1
1000834e:	2a00      	cmp	r2, #0
10008350:	d1f6      	bne.n	10008340 <_ff_pull_n+0xce>
10008352:	6829      	ldr	r1, [r5, #0]
10008354:	e004      	b.n	10008360 <_ff_pull_n+0xee>
10008356:	780a      	ldrb	r2, [r1, #0]
10008358:	7002      	strb	r2, [r0, #0]
1000835a:	3001      	adds	r0, #1
1000835c:	001f      	movs	r7, r3
1000835e:	3101      	adds	r1, #1
10008360:	1e7b      	subs	r3, r7, #1
10008362:	b2db      	uxtb	r3, r3
10008364:	2f00      	cmp	r7, #0
10008366:	d1f6      	bne.n	10008356 <_ff_pull_n+0xe4>
10008368:	4653      	mov	r3, sl
1000836a:	9a01      	ldr	r2, [sp, #4]
1000836c:	601a      	str	r2, [r3, #0]
1000836e:	465b      	mov	r3, fp
10008370:	2b00      	cmp	r3, #0
10008372:	d0a0      	beq.n	100082b6 <_ff_pull_n+0x44>
10008374:	465a      	mov	r2, fp
10008376:	4650      	mov	r0, sl
10008378:	f7ff ff55 	bl	10008226 <_ff_pull_const_addr>
1000837c:	e79b      	b.n	100082b6 <_ff_pull_n+0x44>
1000837e:	6829      	ldr	r1, [r5, #0]
10008380:	e7f5      	b.n	1000836e <_ff_pull_n+0xfc>

10008382 <_tu_fifo_peek_n>:
10008382:	b5f0      	push	{r4, r5, r6, r7, lr}
10008384:	46c6      	mov	lr, r8
10008386:	b500      	push	{lr}
10008388:	b082      	sub	sp, #8
1000838a:	001e      	movs	r6, r3
1000838c:	ab08      	add	r3, sp, #32
1000838e:	881b      	ldrh	r3, [r3, #0]
10008390:	ac09      	add	r4, sp, #36	; 0x24
10008392:	7827      	ldrb	r7, [r4, #0]
10008394:	8884      	ldrh	r4, [r0, #4]
10008396:	429e      	cmp	r6, r3
10008398:	d30f      	bcc.n	100083ba <_tu_fifo_peek_n+0x38>
1000839a:	1af5      	subs	r5, r6, r3
1000839c:	b2ad      	uxth	r5, r5
1000839e:	2d00      	cmp	r5, #0
100083a0:	d01f      	beq.n	100083e2 <_tu_fifo_peek_n+0x60>
100083a2:	42ac      	cmp	r4, r5
100083a4:	d205      	bcs.n	100083b2 <_tu_fifo_peek_n+0x30>
100083a6:	42b4      	cmp	r4, r6
100083a8:	d810      	bhi.n	100083cc <_tu_fifo_peek_n+0x4a>
100083aa:	1b33      	subs	r3, r6, r4
100083ac:	b29b      	uxth	r3, r3
100083ae:	8143      	strh	r3, [r0, #10]
100083b0:	0025      	movs	r5, r4
100083b2:	4295      	cmp	r5, r2
100083b4:	d30f      	bcc.n	100083d6 <_tu_fifo_peek_n+0x54>
100083b6:	0015      	movs	r5, r2
100083b8:	e00d      	b.n	100083d6 <_tu_fifo_peek_n+0x54>
100083ba:	1af5      	subs	r5, r6, r3
100083bc:	b2ad      	uxth	r5, r5
100083be:	46a8      	mov	r8, r5
100083c0:	0065      	lsls	r5, r4, #1
100083c2:	46ac      	mov	ip, r5
100083c4:	4645      	mov	r5, r8
100083c6:	4465      	add	r5, ip
100083c8:	b2ad      	uxth	r5, r5
100083ca:	e7e8      	b.n	1000839e <_tu_fifo_peek_n+0x1c>
100083cc:	19a6      	adds	r6, r4, r6
100083ce:	b2b3      	uxth	r3, r6
100083d0:	e7ed      	b.n	100083ae <_tu_fifo_peek_n+0x2c>
100083d2:	1b1b      	subs	r3, r3, r4
100083d4:	b29b      	uxth	r3, r3
100083d6:	429c      	cmp	r4, r3
100083d8:	d9fb      	bls.n	100083d2 <_tu_fifo_peek_n+0x50>
100083da:	9700      	str	r7, [sp, #0]
100083dc:	002a      	movs	r2, r5
100083de:	f7ff ff48 	bl	10008272 <_ff_pull_n>
100083e2:	0028      	movs	r0, r5
100083e4:	b002      	add	sp, #8
100083e6:	bc80      	pop	{r7}
100083e8:	46b8      	mov	r8, r7
100083ea:	bdf0      	pop	{r4, r5, r6, r7, pc}

100083ec <_tu_fifo_read_n>:
100083ec:	b5f0      	push	{r4, r5, r6, r7, lr}
100083ee:	b083      	sub	sp, #12
100083f0:	0004      	movs	r4, r0
100083f2:	000d      	movs	r5, r1
100083f4:	0016      	movs	r6, r2
100083f6:	001f      	movs	r7, r3
100083f8:	6900      	ldr	r0, [r0, #16]
100083fa:	2800      	cmp	r0, #0
100083fc:	d003      	beq.n	10008406 <_tu_fifo_read_n+0x1a>
100083fe:	2101      	movs	r1, #1
10008400:	4249      	negs	r1, r1
10008402:	f001 f965 	bl	100096d0 <__mutex_enter_timeout_ms_veneer>
10008406:	8923      	ldrh	r3, [r4, #8]
10008408:	b29b      	uxth	r3, r3
1000840a:	8962      	ldrh	r2, [r4, #10]
1000840c:	9701      	str	r7, [sp, #4]
1000840e:	9200      	str	r2, [sp, #0]
10008410:	0032      	movs	r2, r6
10008412:	0029      	movs	r1, r5
10008414:	0020      	movs	r0, r4
10008416:	f7ff ffb4 	bl	10008382 <_tu_fifo_peek_n>
1000841a:	0005      	movs	r5, r0
1000841c:	8961      	ldrh	r1, [r4, #10]
1000841e:	b289      	uxth	r1, r1
10008420:	88a0      	ldrh	r0, [r4, #4]
10008422:	002a      	movs	r2, r5
10008424:	f7ff fec7 	bl	100081b6 <advance_index>
10008428:	8160      	strh	r0, [r4, #10]
1000842a:	6920      	ldr	r0, [r4, #16]
1000842c:	2800      	cmp	r0, #0
1000842e:	d001      	beq.n	10008434 <_tu_fifo_read_n+0x48>
10008430:	f001 f916 	bl	10009660 <__mutex_exit_veneer>
10008434:	0028      	movs	r0, r5
10008436:	b003      	add	sp, #12
10008438:	bdf0      	pop	{r4, r5, r6, r7, pc}

1000843a <_ff_push_const_addr>:
1000843a:	b570      	push	{r4, r5, r6, lr}
1000843c:	b082      	sub	sp, #8
1000843e:	0016      	movs	r6, r2
10008440:	0895      	lsrs	r5, r2, #2
10008442:	e009      	b.n	10008458 <_ff_push_const_addr+0x1e>
10008444:	680b      	ldr	r3, [r1, #0]
10008446:	7003      	strb	r3, [r0, #0]
10008448:	0a1d      	lsrs	r5, r3, #8
1000844a:	7045      	strb	r5, [r0, #1]
1000844c:	0c1d      	lsrs	r5, r3, #16
1000844e:	7085      	strb	r5, [r0, #2]
10008450:	0e1b      	lsrs	r3, r3, #24
10008452:	70c3      	strb	r3, [r0, #3]
10008454:	3004      	adds	r0, #4
10008456:	0025      	movs	r5, r4
10008458:	1e6c      	subs	r4, r5, #1
1000845a:	b2a4      	uxth	r4, r4
1000845c:	2d00      	cmp	r5, #0
1000845e:	d1f1      	bne.n	10008444 <_ff_push_const_addr+0xa>
10008460:	2303      	movs	r3, #3
10008462:	0032      	movs	r2, r6
10008464:	401a      	ands	r2, r3
10008466:	421e      	tst	r6, r3
10008468:	d101      	bne.n	1000846e <_ff_push_const_addr+0x34>
1000846a:	b002      	add	sp, #8
1000846c:	bd70      	pop	{r4, r5, r6, pc}
1000846e:	680b      	ldr	r3, [r1, #0]
10008470:	9301      	str	r3, [sp, #4]
10008472:	a901      	add	r1, sp, #4
10008474:	f7fd fcb0 	bl	10005dd8 <__wrap___aeabi_memcpy>
10008478:	e7f7      	b.n	1000846a <_ff_push_const_addr+0x30>

1000847a <_ff_push_n>:
1000847a:	b5f0      	push	{r4, r5, r6, r7, lr}
1000847c:	46de      	mov	lr, fp
1000847e:	4657      	mov	r7, sl
10008480:	464e      	mov	r6, r9
10008482:	4645      	mov	r5, r8
10008484:	b5e0      	push	{r5, r6, r7, lr}
10008486:	b083      	sub	sp, #12
10008488:	0005      	movs	r5, r0
1000848a:	468a      	mov	sl, r1
1000848c:	a90c      	add	r1, sp, #48	; 0x30
1000848e:	7808      	ldrb	r0, [r1, #0]
10008490:	88ac      	ldrh	r4, [r5, #4]
10008492:	1ae1      	subs	r1, r4, r3
10008494:	b289      	uxth	r1, r1
10008496:	1b1c      	subs	r4, r3, r4
10008498:	1914      	adds	r4, r2, r4
1000849a:	b2a4      	uxth	r4, r4
1000849c:	88ef      	ldrh	r7, [r5, #6]
1000849e:	047f      	lsls	r7, r7, #17
100084a0:	0c7e      	lsrs	r6, r7, #17
100084a2:	000f      	movs	r7, r1
100084a4:	4377      	muls	r7, r6
100084a6:	b2bf      	uxth	r7, r7
100084a8:	4374      	muls	r4, r6
100084aa:	b2a4      	uxth	r4, r4
100084ac:	46a3      	mov	fp, r4
100084ae:	4373      	muls	r3, r6
100084b0:	682c      	ldr	r4, [r5, #0]
100084b2:	46a0      	mov	r8, r4
100084b4:	4498      	add	r8, r3
100084b6:	2800      	cmp	r0, #0
100084b8:	d008      	beq.n	100084cc <_ff_push_n+0x52>
100084ba:	2801      	cmp	r0, #1
100084bc:	d01a      	beq.n	100084f4 <_ff_push_n+0x7a>
100084be:	b003      	add	sp, #12
100084c0:	bcf0      	pop	{r4, r5, r6, r7}
100084c2:	46bb      	mov	fp, r7
100084c4:	46b2      	mov	sl, r6
100084c6:	46a9      	mov	r9, r5
100084c8:	46a0      	mov	r8, r4
100084ca:	bdf0      	pop	{r4, r5, r6, r7, pc}
100084cc:	4291      	cmp	r1, r2
100084ce:	d305      	bcc.n	100084dc <_ff_push_n+0x62>
100084d0:	4372      	muls	r2, r6
100084d2:	4651      	mov	r1, sl
100084d4:	4640      	mov	r0, r8
100084d6:	f7fd fc7f 	bl	10005dd8 <__wrap___aeabi_memcpy>
100084da:	e7f0      	b.n	100084be <_ff_push_n+0x44>
100084dc:	003a      	movs	r2, r7
100084de:	4651      	mov	r1, sl
100084e0:	4640      	mov	r0, r8
100084e2:	f7fd fc79 	bl	10005dd8 <__wrap___aeabi_memcpy>
100084e6:	6828      	ldr	r0, [r5, #0]
100084e8:	0039      	movs	r1, r7
100084ea:	4451      	add	r1, sl
100084ec:	465a      	mov	r2, fp
100084ee:	f7fd fc73 	bl	10005dd8 <__wrap___aeabi_memcpy>
100084f2:	e7e4      	b.n	100084be <_ff_push_n+0x44>
100084f4:	4291      	cmp	r1, r2
100084f6:	d306      	bcc.n	10008506 <_ff_push_n+0x8c>
100084f8:	4372      	muls	r2, r6
100084fa:	b292      	uxth	r2, r2
100084fc:	4651      	mov	r1, sl
100084fe:	4640      	mov	r0, r8
10008500:	f7ff ff9b 	bl	1000843a <_ff_push_const_addr>
10008504:	e7db      	b.n	100084be <_ff_push_n+0x44>
10008506:	2303      	movs	r3, #3
10008508:	003a      	movs	r2, r7
1000850a:	439a      	bics	r2, r3
1000850c:	4691      	mov	r9, r2
1000850e:	4651      	mov	r1, sl
10008510:	4640      	mov	r0, r8
10008512:	f7ff ff92 	bl	1000843a <_ff_push_const_addr>
10008516:	4643      	mov	r3, r8
10008518:	444b      	add	r3, r9
1000851a:	2103      	movs	r1, #3
1000851c:	003a      	movs	r2, r7
1000851e:	400a      	ands	r2, r1
10008520:	420f      	tst	r7, r1
10008522:	d02e      	beq.n	10008582 <_ff_push_n+0x108>
10008524:	2104      	movs	r1, #4
10008526:	1a89      	subs	r1, r1, r2
10008528:	b289      	uxth	r1, r1
1000852a:	1c08      	adds	r0, r1, #0
1000852c:	4559      	cmp	r1, fp
1000852e:	d900      	bls.n	10008532 <_ff_push_n+0xb8>
10008530:	4658      	mov	r0, fp
10008532:	b2c7      	uxtb	r7, r0
10008534:	21ff      	movs	r1, #255	; 0xff
10008536:	4001      	ands	r1, r0
10008538:	4658      	mov	r0, fp
1000853a:	1a44      	subs	r4, r0, r1
1000853c:	b2a1      	uxth	r1, r4
1000853e:	468b      	mov	fp, r1
10008540:	4651      	mov	r1, sl
10008542:	6809      	ldr	r1, [r1, #0]
10008544:	9101      	str	r1, [sp, #4]
10008546:	a901      	add	r1, sp, #4
10008548:	e004      	b.n	10008554 <_ff_push_n+0xda>
1000854a:	780a      	ldrb	r2, [r1, #0]
1000854c:	701a      	strb	r2, [r3, #0]
1000854e:	3101      	adds	r1, #1
10008550:	0002      	movs	r2, r0
10008552:	3301      	adds	r3, #1
10008554:	1e50      	subs	r0, r2, #1
10008556:	b2c0      	uxtb	r0, r0
10008558:	2a00      	cmp	r2, #0
1000855a:	d1f6      	bne.n	1000854a <_ff_push_n+0xd0>
1000855c:	6828      	ldr	r0, [r5, #0]
1000855e:	e004      	b.n	1000856a <_ff_push_n+0xf0>
10008560:	780a      	ldrb	r2, [r1, #0]
10008562:	7002      	strb	r2, [r0, #0]
10008564:	3101      	adds	r1, #1
10008566:	001f      	movs	r7, r3
10008568:	3001      	adds	r0, #1
1000856a:	1e7b      	subs	r3, r7, #1
1000856c:	b2db      	uxtb	r3, r3
1000856e:	2f00      	cmp	r7, #0
10008570:	d1f6      	bne.n	10008560 <_ff_push_n+0xe6>
10008572:	465b      	mov	r3, fp
10008574:	2b00      	cmp	r3, #0
10008576:	d0a2      	beq.n	100084be <_ff_push_n+0x44>
10008578:	465a      	mov	r2, fp
1000857a:	4651      	mov	r1, sl
1000857c:	f7ff ff5d 	bl	1000843a <_ff_push_const_addr>
10008580:	e79d      	b.n	100084be <_ff_push_n+0x44>
10008582:	6828      	ldr	r0, [r5, #0]
10008584:	e7f5      	b.n	10008572 <_ff_push_n+0xf8>

10008586 <_tu_fifo_write_n>:
10008586:	b5f0      	push	{r4, r5, r6, r7, lr}
10008588:	b085      	sub	sp, #20
1000858a:	0006      	movs	r6, r0
1000858c:	9103      	str	r1, [sp, #12]
1000858e:	1e15      	subs	r5, r2, #0
10008590:	9302      	str	r3, [sp, #8]
10008592:	d100      	bne.n	10008596 <_tu_fifo_write_n+0x10>
10008594:	e06d      	b.n	10008672 <_tu_fifo_write_n+0xec>
10008596:	68c0      	ldr	r0, [r0, #12]
10008598:	2800      	cmp	r0, #0
1000859a:	d003      	beq.n	100085a4 <_tu_fifo_write_n+0x1e>
1000859c:	2101      	movs	r1, #1
1000859e:	4249      	negs	r1, r1
100085a0:	f001 f896 	bl	100096d0 <__mutex_enter_timeout_ms_veneer>
100085a4:	8934      	ldrh	r4, [r6, #8]
100085a6:	b2a4      	uxth	r4, r4
100085a8:	8971      	ldrh	r1, [r6, #10]
100085aa:	b289      	uxth	r1, r1
100085ac:	79f3      	ldrb	r3, [r6, #7]
100085ae:	09db      	lsrs	r3, r3, #7
100085b0:	d11a      	bne.n	100085e8 <_tu_fifo_write_n+0x62>
100085b2:	88b3      	ldrh	r3, [r6, #4]
100085b4:	428c      	cmp	r4, r1
100085b6:	d30f      	bcc.n	100085d8 <_tu_fifo_write_n+0x52>
100085b8:	1a61      	subs	r1, r4, r1
100085ba:	b289      	uxth	r1, r1
100085bc:	428b      	cmp	r3, r1
100085be:	d911      	bls.n	100085e4 <_tu_fifo_write_n+0x5e>
100085c0:	1a5b      	subs	r3, r3, r1
100085c2:	b29b      	uxth	r3, r3
100085c4:	1c2f      	adds	r7, r5, #0
100085c6:	429d      	cmp	r5, r3
100085c8:	d900      	bls.n	100085cc <_tu_fifo_write_n+0x46>
100085ca:	1c1f      	adds	r7, r3, #0
100085cc:	b2bf      	uxth	r7, r7
100085ce:	2f00      	cmp	r7, #0
100085d0:	d047      	beq.n	10008662 <_tu_fifo_write_n+0xdc>
100085d2:	88b2      	ldrh	r2, [r6, #4]
100085d4:	0023      	movs	r3, r4
100085d6:	e035      	b.n	10008644 <_tu_fifo_write_n+0xbe>
100085d8:	1a61      	subs	r1, r4, r1
100085da:	b289      	uxth	r1, r1
100085dc:	005a      	lsls	r2, r3, #1
100085de:	1889      	adds	r1, r1, r2
100085e0:	b289      	uxth	r1, r1
100085e2:	e7eb      	b.n	100085bc <_tu_fifo_write_n+0x36>
100085e4:	2300      	movs	r3, #0
100085e6:	e7ed      	b.n	100085c4 <_tu_fifo_write_n+0x3e>
100085e8:	88b7      	ldrh	r7, [r6, #4]
100085ea:	42af      	cmp	r7, r5
100085ec:	d80e      	bhi.n	1000860c <_tu_fifo_write_n+0x86>
100085ee:	9b02      	ldr	r3, [sp, #8]
100085f0:	2b00      	cmp	r3, #0
100085f2:	d121      	bne.n	10008638 <_tu_fifo_write_n+0xb2>
100085f4:	1bed      	subs	r5, r5, r7
100085f6:	88f3      	ldrh	r3, [r6, #6]
100085f8:	045b      	lsls	r3, r3, #17
100085fa:	0c5a      	lsrs	r2, r3, #17
100085fc:	436a      	muls	r2, r5
100085fe:	9b03      	ldr	r3, [sp, #12]
10008600:	469c      	mov	ip, r3
10008602:	4494      	add	ip, r2
10008604:	4663      	mov	r3, ip
10008606:	9303      	str	r3, [sp, #12]
10008608:	000c      	movs	r4, r1
1000860a:	e7e0      	b.n	100085ce <_tu_fifo_write_n+0x48>
1000860c:	428c      	cmp	r4, r1
1000860e:	d30d      	bcc.n	1000862c <_tu_fifo_write_n+0xa6>
10008610:	1a63      	subs	r3, r4, r1
10008612:	b29b      	uxth	r3, r3
10008614:	195b      	adds	r3, r3, r5
10008616:	007a      	lsls	r2, r7, #1
10008618:	4293      	cmp	r3, r2
1000861a:	db0f      	blt.n	1000863c <_tu_fifo_write_n+0xb6>
1000861c:	1b7a      	subs	r2, r7, r5
1000861e:	b292      	uxth	r2, r2
10008620:	0038      	movs	r0, r7
10008622:	f7ff fdc8 	bl	100081b6 <advance_index>
10008626:	0004      	movs	r4, r0
10008628:	002f      	movs	r7, r5
1000862a:	e7d0      	b.n	100085ce <_tu_fifo_write_n+0x48>
1000862c:	1a63      	subs	r3, r4, r1
1000862e:	b29b      	uxth	r3, r3
10008630:	007a      	lsls	r2, r7, #1
10008632:	189b      	adds	r3, r3, r2
10008634:	b29b      	uxth	r3, r3
10008636:	e7ed      	b.n	10008614 <_tu_fifo_write_n+0x8e>
10008638:	000c      	movs	r4, r1
1000863a:	e7c8      	b.n	100085ce <_tu_fifo_write_n+0x48>
1000863c:	002f      	movs	r7, r5
1000863e:	e7c6      	b.n	100085ce <_tu_fifo_write_n+0x48>
10008640:	1a9b      	subs	r3, r3, r2
10008642:	b29b      	uxth	r3, r3
10008644:	429a      	cmp	r2, r3
10008646:	d9fb      	bls.n	10008640 <_tu_fifo_write_n+0xba>
10008648:	9a02      	ldr	r2, [sp, #8]
1000864a:	9200      	str	r2, [sp, #0]
1000864c:	003a      	movs	r2, r7
1000864e:	9903      	ldr	r1, [sp, #12]
10008650:	0030      	movs	r0, r6
10008652:	f7ff ff12 	bl	1000847a <_ff_push_n>
10008656:	88b0      	ldrh	r0, [r6, #4]
10008658:	003a      	movs	r2, r7
1000865a:	0021      	movs	r1, r4
1000865c:	f7ff fdab 	bl	100081b6 <advance_index>
10008660:	8130      	strh	r0, [r6, #8]
10008662:	68f0      	ldr	r0, [r6, #12]
10008664:	2800      	cmp	r0, #0
10008666:	d001      	beq.n	1000866c <_tu_fifo_write_n+0xe6>
10008668:	f000 fffa 	bl	10009660 <__mutex_exit_veneer>
1000866c:	0038      	movs	r0, r7
1000866e:	b005      	add	sp, #20
10008670:	bdf0      	pop	{r4, r5, r6, r7, pc}
10008672:	0017      	movs	r7, r2
10008674:	e7fa      	b.n	1000866c <_tu_fifo_write_n+0xe6>

10008676 <tu_fifo_config>:
10008676:	b5f0      	push	{r4, r5, r6, r7, lr}
10008678:	b083      	sub	sp, #12
1000867a:	0004      	movs	r4, r0
1000867c:	9101      	str	r1, [sp, #4]
1000867e:	0016      	movs	r6, r2
10008680:	001d      	movs	r5, r3
10008682:	ab08      	add	r3, sp, #32
10008684:	781f      	ldrb	r7, [r3, #0]
10008686:	2380      	movs	r3, #128	; 0x80
10008688:	021b      	lsls	r3, r3, #8
1000868a:	429a      	cmp	r2, r3
1000868c:	d82d      	bhi.n	100086ea <tu_fifo_config+0x74>
1000868e:	68c0      	ldr	r0, [r0, #12]
10008690:	2800      	cmp	r0, #0
10008692:	d003      	beq.n	1000869c <tu_fifo_config+0x26>
10008694:	2101      	movs	r1, #1
10008696:	4249      	negs	r1, r1
10008698:	f001 f81a 	bl	100096d0 <__mutex_enter_timeout_ms_veneer>
1000869c:	6920      	ldr	r0, [r4, #16]
1000869e:	2800      	cmp	r0, #0
100086a0:	d003      	beq.n	100086aa <tu_fifo_config+0x34>
100086a2:	2101      	movs	r1, #1
100086a4:	4249      	negs	r1, r1
100086a6:	f001 f813 	bl	100096d0 <__mutex_enter_timeout_ms_veneer>
100086aa:	9b01      	ldr	r3, [sp, #4]
100086ac:	6023      	str	r3, [r4, #0]
100086ae:	80a6      	strh	r6, [r4, #4]
100086b0:	046d      	lsls	r5, r5, #17
100086b2:	0c6b      	lsrs	r3, r5, #17
100086b4:	88e2      	ldrh	r2, [r4, #6]
100086b6:	0bd2      	lsrs	r2, r2, #15
100086b8:	03d5      	lsls	r5, r2, #15
100086ba:	431d      	orrs	r5, r3
100086bc:	80e5      	strh	r5, [r4, #6]
100086be:	01fb      	lsls	r3, r7, #7
100086c0:	79e2      	ldrb	r2, [r4, #7]
100086c2:	277f      	movs	r7, #127	; 0x7f
100086c4:	4017      	ands	r7, r2
100086c6:	431f      	orrs	r7, r3
100086c8:	71e7      	strb	r7, [r4, #7]
100086ca:	2300      	movs	r3, #0
100086cc:	8163      	strh	r3, [r4, #10]
100086ce:	8123      	strh	r3, [r4, #8]
100086d0:	68e0      	ldr	r0, [r4, #12]
100086d2:	2800      	cmp	r0, #0
100086d4:	d001      	beq.n	100086da <tu_fifo_config+0x64>
100086d6:	f000 ffc3 	bl	10009660 <__mutex_exit_veneer>
100086da:	6920      	ldr	r0, [r4, #16]
100086dc:	2800      	cmp	r0, #0
100086de:	d006      	beq.n	100086ee <tu_fifo_config+0x78>
100086e0:	f000 ffbe 	bl	10009660 <__mutex_exit_veneer>
100086e4:	2001      	movs	r0, #1
100086e6:	b003      	add	sp, #12
100086e8:	bdf0      	pop	{r4, r5, r6, r7, pc}
100086ea:	2000      	movs	r0, #0
100086ec:	e7fb      	b.n	100086e6 <tu_fifo_config+0x70>
100086ee:	2001      	movs	r0, #1
100086f0:	e7f9      	b.n	100086e6 <tu_fifo_config+0x70>

100086f2 <tu_fifo_count>:
100086f2:	8881      	ldrh	r1, [r0, #4]
100086f4:	8903      	ldrh	r3, [r0, #8]
100086f6:	b29b      	uxth	r3, r3
100086f8:	8942      	ldrh	r2, [r0, #10]
100086fa:	b292      	uxth	r2, r2
100086fc:	4293      	cmp	r3, r2
100086fe:	d307      	bcc.n	10008710 <tu_fifo_count+0x1e>
10008700:	1a9b      	subs	r3, r3, r2
10008702:	b29b      	uxth	r3, r3
10008704:	1c08      	adds	r0, r1, #0
10008706:	4299      	cmp	r1, r3
10008708:	d900      	bls.n	1000870c <tu_fifo_count+0x1a>
1000870a:	1c18      	adds	r0, r3, #0
1000870c:	b280      	uxth	r0, r0
1000870e:	4770      	bx	lr
10008710:	1a9b      	subs	r3, r3, r2
10008712:	b29b      	uxth	r3, r3
10008714:	004a      	lsls	r2, r1, #1
10008716:	189b      	adds	r3, r3, r2
10008718:	b29b      	uxth	r3, r3
1000871a:	e7f3      	b.n	10008704 <tu_fifo_count+0x12>

1000871c <tu_fifo_empty>:
1000871c:	0003      	movs	r3, r0
1000871e:	8900      	ldrh	r0, [r0, #8]
10008720:	895b      	ldrh	r3, [r3, #10]
10008722:	1ac0      	subs	r0, r0, r3
10008724:	4243      	negs	r3, r0
10008726:	4158      	adcs	r0, r3
10008728:	b2c0      	uxtb	r0, r0
1000872a:	4770      	bx	lr

1000872c <tu_fifo_full>:
1000872c:	8881      	ldrh	r1, [r0, #4]
1000872e:	8903      	ldrh	r3, [r0, #8]
10008730:	b29b      	uxth	r3, r3
10008732:	8942      	ldrh	r2, [r0, #10]
10008734:	b292      	uxth	r2, r2
10008736:	4293      	cmp	r3, r2
10008738:	d306      	bcc.n	10008748 <tu_fifo_full+0x1c>
1000873a:	1a9b      	subs	r3, r3, r2
1000873c:	b29b      	uxth	r3, r3
1000873e:	2000      	movs	r0, #0
10008740:	428b      	cmp	r3, r1
10008742:	4140      	adcs	r0, r0
10008744:	b2c0      	uxtb	r0, r0
10008746:	4770      	bx	lr
10008748:	1a9b      	subs	r3, r3, r2
1000874a:	b29b      	uxth	r3, r3
1000874c:	004a      	lsls	r2, r1, #1
1000874e:	189b      	adds	r3, r3, r2
10008750:	b29b      	uxth	r3, r3
10008752:	e7f4      	b.n	1000873e <tu_fifo_full+0x12>

10008754 <tu_fifo_remaining>:
10008754:	8882      	ldrh	r2, [r0, #4]
10008756:	8903      	ldrh	r3, [r0, #8]
10008758:	b29b      	uxth	r3, r3
1000875a:	8940      	ldrh	r0, [r0, #10]
1000875c:	b280      	uxth	r0, r0
1000875e:	4283      	cmp	r3, r0
10008760:	d306      	bcc.n	10008770 <tu_fifo_remaining+0x1c>
10008762:	1a1b      	subs	r3, r3, r0
10008764:	b29b      	uxth	r3, r3
10008766:	429a      	cmp	r2, r3
10008768:	d908      	bls.n	1000877c <tu_fifo_remaining+0x28>
1000876a:	1ad3      	subs	r3, r2, r3
1000876c:	b298      	uxth	r0, r3
1000876e:	4770      	bx	lr
10008770:	1a1b      	subs	r3, r3, r0
10008772:	b29b      	uxth	r3, r3
10008774:	0050      	lsls	r0, r2, #1
10008776:	181b      	adds	r3, r3, r0
10008778:	b29b      	uxth	r3, r3
1000877a:	e7f4      	b.n	10008766 <tu_fifo_remaining+0x12>
1000877c:	2000      	movs	r0, #0
1000877e:	e7f6      	b.n	1000876e <tu_fifo_remaining+0x1a>

10008780 <tu_fifo_read>:
10008780:	b570      	push	{r4, r5, r6, lr}
10008782:	0004      	movs	r4, r0
10008784:	000d      	movs	r5, r1
10008786:	6900      	ldr	r0, [r0, #16]
10008788:	2800      	cmp	r0, #0
1000878a:	d003      	beq.n	10008794 <tu_fifo_read+0x14>
1000878c:	2101      	movs	r1, #1
1000878e:	4249      	negs	r1, r1
10008790:	f000 ff9e 	bl	100096d0 <__mutex_enter_timeout_ms_veneer>
10008794:	8922      	ldrh	r2, [r4, #8]
10008796:	b292      	uxth	r2, r2
10008798:	8963      	ldrh	r3, [r4, #10]
1000879a:	b29b      	uxth	r3, r3
1000879c:	0029      	movs	r1, r5
1000879e:	0020      	movs	r0, r4
100087a0:	f7ff fd16 	bl	100081d0 <_tu_fifo_peek>
100087a4:	0005      	movs	r5, r0
100087a6:	8961      	ldrh	r1, [r4, #10]
100087a8:	b289      	uxth	r1, r1
100087aa:	b282      	uxth	r2, r0
100087ac:	88a0      	ldrh	r0, [r4, #4]
100087ae:	f7ff fd02 	bl	100081b6 <advance_index>
100087b2:	8160      	strh	r0, [r4, #10]
100087b4:	6920      	ldr	r0, [r4, #16]
100087b6:	2800      	cmp	r0, #0
100087b8:	d001      	beq.n	100087be <tu_fifo_read+0x3e>
100087ba:	f000 ff51 	bl	10009660 <__mutex_exit_veneer>
100087be:	0028      	movs	r0, r5
100087c0:	bd70      	pop	{r4, r5, r6, pc}

100087c2 <tu_fifo_read_n>:
100087c2:	b510      	push	{r4, lr}
100087c4:	2300      	movs	r3, #0
100087c6:	f7ff fe11 	bl	100083ec <_tu_fifo_read_n>
100087ca:	bd10      	pop	{r4, pc}

100087cc <tu_fifo_write>:
100087cc:	b5f8      	push	{r3, r4, r5, r6, r7, lr}
100087ce:	0004      	movs	r4, r0
100087d0:	000e      	movs	r6, r1
100087d2:	68c0      	ldr	r0, [r0, #12]
100087d4:	2800      	cmp	r0, #0
100087d6:	d003      	beq.n	100087e0 <tu_fifo_write+0x14>
100087d8:	2101      	movs	r1, #1
100087da:	4249      	negs	r1, r1
100087dc:	f000 ff78 	bl	100096d0 <__mutex_enter_timeout_ms_veneer>
100087e0:	8925      	ldrh	r5, [r4, #8]
100087e2:	b2ad      	uxth	r5, r5
100087e4:	0020      	movs	r0, r4
100087e6:	f7ff ffa1 	bl	1000872c <tu_fifo_full>
100087ea:	2800      	cmp	r0, #0
100087ec:	d002      	beq.n	100087f4 <tu_fifo_write+0x28>
100087ee:	79e7      	ldrb	r7, [r4, #7]
100087f0:	09ff      	lsrs	r7, r7, #7
100087f2:	d016      	beq.n	10008822 <tu_fifo_write+0x56>
100087f4:	88a2      	ldrh	r2, [r4, #4]
100087f6:	002b      	movs	r3, r5
100087f8:	e001      	b.n	100087fe <tu_fifo_write+0x32>
100087fa:	1a9b      	subs	r3, r3, r2
100087fc:	b29b      	uxth	r3, r3
100087fe:	429a      	cmp	r2, r3
10008800:	d9fb      	bls.n	100087fa <tu_fifo_write+0x2e>
10008802:	88e2      	ldrh	r2, [r4, #6]
10008804:	0452      	lsls	r2, r2, #17
10008806:	0c52      	lsrs	r2, r2, #17
10008808:	4353      	muls	r3, r2
1000880a:	6821      	ldr	r1, [r4, #0]
1000880c:	18c8      	adds	r0, r1, r3
1000880e:	0031      	movs	r1, r6
10008810:	f7fd fae2 	bl	10005dd8 <__wrap___aeabi_memcpy>
10008814:	88a0      	ldrh	r0, [r4, #4]
10008816:	2201      	movs	r2, #1
10008818:	0029      	movs	r1, r5
1000881a:	f7ff fccc 	bl	100081b6 <advance_index>
1000881e:	8120      	strh	r0, [r4, #8]
10008820:	2701      	movs	r7, #1
10008822:	68e0      	ldr	r0, [r4, #12]
10008824:	2800      	cmp	r0, #0
10008826:	d001      	beq.n	1000882c <tu_fifo_write+0x60>
10008828:	f000 ff1a 	bl	10009660 <__mutex_exit_veneer>
1000882c:	0038      	movs	r0, r7
1000882e:	bdf8      	pop	{r3, r4, r5, r6, r7, pc}

10008830 <tu_fifo_write_n>:
10008830:	b510      	push	{r4, lr}
10008832:	2300      	movs	r3, #0
10008834:	f7ff fea7 	bl	10008586 <_tu_fifo_write_n>
10008838:	bd10      	pop	{r4, pc}

1000883a <tu_fifo_clear>:
1000883a:	b510      	push	{r4, lr}
1000883c:	0004      	movs	r4, r0
1000883e:	68c0      	ldr	r0, [r0, #12]
10008840:	2800      	cmp	r0, #0
10008842:	d003      	beq.n	1000884c <tu_fifo_clear+0x12>
10008844:	2101      	movs	r1, #1
10008846:	4249      	negs	r1, r1
10008848:	f000 ff42 	bl	100096d0 <__mutex_enter_timeout_ms_veneer>
1000884c:	6920      	ldr	r0, [r4, #16]
1000884e:	2800      	cmp	r0, #0
10008850:	d003      	beq.n	1000885a <tu_fifo_clear+0x20>
10008852:	2101      	movs	r1, #1
10008854:	4249      	negs	r1, r1
10008856:	f000 ff3b 	bl	100096d0 <__mutex_enter_timeout_ms_veneer>
1000885a:	2300      	movs	r3, #0
1000885c:	8163      	strh	r3, [r4, #10]
1000885e:	8123      	strh	r3, [r4, #8]
10008860:	68e0      	ldr	r0, [r4, #12]
10008862:	2800      	cmp	r0, #0
10008864:	d001      	beq.n	1000886a <tu_fifo_clear+0x30>
10008866:	f000 fefb 	bl	10009660 <__mutex_exit_veneer>
1000886a:	6920      	ldr	r0, [r4, #16]
1000886c:	2800      	cmp	r0, #0
1000886e:	d001      	beq.n	10008874 <tu_fifo_clear+0x3a>
10008870:	f000 fef6 	bl	10009660 <__mutex_exit_veneer>
10008874:	2001      	movs	r0, #1
10008876:	bd10      	pop	{r4, pc}

10008878 <tu_fifo_set_overwritable>:
10008878:	b570      	push	{r4, r5, r6, lr}
1000887a:	0004      	movs	r4, r0
1000887c:	000d      	movs	r5, r1
1000887e:	68c0      	ldr	r0, [r0, #12]
10008880:	2800      	cmp	r0, #0
10008882:	d003      	beq.n	1000888c <tu_fifo_set_overwritable+0x14>
10008884:	2101      	movs	r1, #1
10008886:	4249      	negs	r1, r1
10008888:	f000 ff22 	bl	100096d0 <__mutex_enter_timeout_ms_veneer>
1000888c:	6920      	ldr	r0, [r4, #16]
1000888e:	2800      	cmp	r0, #0
10008890:	d003      	beq.n	1000889a <tu_fifo_set_overwritable+0x22>
10008892:	2101      	movs	r1, #1
10008894:	4249      	negs	r1, r1
10008896:	f000 ff1b 	bl	100096d0 <__mutex_enter_timeout_ms_veneer>
1000889a:	01ed      	lsls	r5, r5, #7
1000889c:	79e3      	ldrb	r3, [r4, #7]
1000889e:	217f      	movs	r1, #127	; 0x7f
100088a0:	4019      	ands	r1, r3
100088a2:	4329      	orrs	r1, r5
100088a4:	71e1      	strb	r1, [r4, #7]
100088a6:	68e0      	ldr	r0, [r4, #12]
100088a8:	2800      	cmp	r0, #0
100088aa:	d001      	beq.n	100088b0 <tu_fifo_set_overwritable+0x38>
100088ac:	f000 fed8 	bl	10009660 <__mutex_exit_veneer>
100088b0:	6920      	ldr	r0, [r4, #16]
100088b2:	2800      	cmp	r0, #0
100088b4:	d001      	beq.n	100088ba <tu_fifo_set_overwritable+0x42>
100088b6:	f000 fed3 	bl	10009660 <__mutex_exit_veneer>
100088ba:	2001      	movs	r0, #1
100088bc:	bd70      	pop	{r4, r5, r6, pc}

100088be <core1_trampoline>:
100088be:	bd03      	pop	{r0, r1, pc}

100088c0 <core1_wrapper>:
100088c0:	b510      	push	{r4, lr}
100088c2:	0004      	movs	r4, r0
100088c4:	f7f9 fb4a 	bl	10001f5c <irq_init_priorities>
100088c8:	47a0      	blx	r4
100088ca:	bd10      	pop	{r4, pc}

100088cc <multicore_fifo_push_blocking>:
100088cc:	23d0      	movs	r3, #208	; 0xd0
100088ce:	061b      	lsls	r3, r3, #24
100088d0:	6d1b      	ldr	r3, [r3, #80]	; 0x50
100088d2:	079b      	lsls	r3, r3, #30
100088d4:	d5fa      	bpl.n	100088cc <multicore_fifo_push_blocking>
100088d6:	23d0      	movs	r3, #208	; 0xd0
100088d8:	061b      	lsls	r3, r3, #24
100088da:	6558      	str	r0, [r3, #84]	; 0x54
100088dc:	bf40      	sev
100088de:	4770      	bx	lr

100088e0 <multicore_fifo_pop_blocking>:
100088e0:	e000      	b.n	100088e4 <multicore_fifo_pop_blocking+0x4>
100088e2:	bf20      	wfe
100088e4:	23d0      	movs	r3, #208	; 0xd0
100088e6:	061b      	lsls	r3, r3, #24
100088e8:	6d1b      	ldr	r3, [r3, #80]	; 0x50
100088ea:	07db      	lsls	r3, r3, #31
100088ec:	d5f9      	bpl.n	100088e2 <multicore_fifo_pop_blocking+0x2>
100088ee:	23d0      	movs	r3, #208	; 0xd0
100088f0:	061b      	lsls	r3, r3, #24
100088f2:	6d98      	ldr	r0, [r3, #88]	; 0x58
100088f4:	4770      	bx	lr

100088f6 <multicore_launch_core1_raw>:
100088f6:	b5f0      	push	{r4, r5, r6, r7, lr}
100088f8:	b087      	sub	sp, #28
100088fa:	0004      	movs	r4, r0
100088fc:	000d      	movs	r5, r1
100088fe:	0017      	movs	r7, r2
10008900:	200f      	movs	r0, #15
10008902:	f7f9 f853 	bl	100019ac <irq_is_enabled>
10008906:	0006      	movs	r6, r0
10008908:	2100      	movs	r1, #0
1000890a:	200f      	movs	r0, #15
1000890c:	f7f9 f86a 	bl	100019e4 <irq_set_enabled>
10008910:	2300      	movs	r3, #0
10008912:	9300      	str	r3, [sp, #0]
10008914:	9301      	str	r3, [sp, #4]
10008916:	3301      	adds	r3, #1
10008918:	9302      	str	r3, [sp, #8]
1000891a:	9703      	str	r7, [sp, #12]
1000891c:	9504      	str	r5, [sp, #16]
1000891e:	9405      	str	r4, [sp, #20]
10008920:	2500      	movs	r5, #0
10008922:	e000      	b.n	10008926 <multicore_launch_core1_raw+0x30>
10008924:	2500      	movs	r5, #0
10008926:	00ab      	lsls	r3, r5, #2
10008928:	466a      	mov	r2, sp
1000892a:	589c      	ldr	r4, [r3, r2]
1000892c:	2c00      	cmp	r4, #0
1000892e:	d012      	beq.n	10008956 <multicore_launch_core1_raw+0x60>
10008930:	0020      	movs	r0, r4
10008932:	f7ff ffcb 	bl	100088cc <multicore_fifo_push_blocking>
10008936:	f7ff ffd3 	bl	100088e0 <multicore_fifo_pop_blocking>
1000893a:	4284      	cmp	r4, r0
1000893c:	d1f2      	bne.n	10008924 <multicore_launch_core1_raw+0x2e>
1000893e:	3501      	adds	r5, #1
10008940:	2d05      	cmp	r5, #5
10008942:	d9f0      	bls.n	10008926 <multicore_launch_core1_raw+0x30>
10008944:	0031      	movs	r1, r6
10008946:	200f      	movs	r0, #15
10008948:	f7f9 f84c 	bl	100019e4 <irq_set_enabled>
1000894c:	b007      	add	sp, #28
1000894e:	bdf0      	pop	{r4, r5, r6, r7, pc}
10008950:	23d0      	movs	r3, #208	; 0xd0
10008952:	061b      	lsls	r3, r3, #24
10008954:	6d9b      	ldr	r3, [r3, #88]	; 0x58
10008956:	23d0      	movs	r3, #208	; 0xd0
10008958:	061b      	lsls	r3, r3, #24
1000895a:	6d1b      	ldr	r3, [r3, #80]	; 0x50
1000895c:	07db      	lsls	r3, r3, #31
1000895e:	d4f7      	bmi.n	10008950 <multicore_launch_core1_raw+0x5a>
10008960:	bf40      	sev
10008962:	e7e5      	b.n	10008930 <multicore_launch_core1_raw+0x3a>

10008964 <multicore_launch_core1_with_stack>:
10008964:	b510      	push	{r4, lr}
10008966:	000b      	movs	r3, r1
10008968:	0791      	lsls	r1, r2, #30
1000896a:	d111      	bne.n	10008990 <multicore_launch_core1_with_stack+0x2c>
1000896c:	2103      	movs	r1, #3
1000896e:	438a      	bics	r2, r1
10008970:	189a      	adds	r2, r3, r2
10008972:	0011      	movs	r1, r2
10008974:	390c      	subs	r1, #12
10008976:	6008      	str	r0, [r1, #0]
10008978:	0010      	movs	r0, r2
1000897a:	3808      	subs	r0, #8
1000897c:	6003      	str	r3, [r0, #0]
1000897e:	3a04      	subs	r2, #4
10008980:	4b06      	ldr	r3, [pc, #24]	; (1000899c <multicore_launch_core1_with_stack+0x38>)
10008982:	6013      	str	r3, [r2, #0]
10008984:	4b06      	ldr	r3, [pc, #24]	; (100089a0 <multicore_launch_core1_with_stack+0x3c>)
10008986:	689a      	ldr	r2, [r3, #8]
10008988:	4806      	ldr	r0, [pc, #24]	; (100089a4 <multicore_launch_core1_with_stack+0x40>)
1000898a:	f7ff ffb4 	bl	100088f6 <multicore_launch_core1_raw>
1000898e:	bd10      	pop	{r4, pc}
10008990:	4b05      	ldr	r3, [pc, #20]	; (100089a8 <multicore_launch_core1_with_stack+0x44>)
10008992:	4a06      	ldr	r2, [pc, #24]	; (100089ac <multicore_launch_core1_with_stack+0x48>)
10008994:	2176      	movs	r1, #118	; 0x76
10008996:	4806      	ldr	r0, [pc, #24]	; (100089b0 <multicore_launch_core1_with_stack+0x4c>)
10008998:	f7fa ffa8 	bl	100038ec <__assert_func>
1000899c:	100088c1 	.word	0x100088c1
100089a0:	e000ed00 	.word	0xe000ed00
100089a4:	100088bf 	.word	0x100088bf
100089a8:	1000b0d8 	.word	0x1000b0d8
100089ac:	1000b0f4 	.word	0x1000b0f4
100089b0:	1000b074 	.word	0x1000b074

100089b4 <multicore_launch_core1>:
100089b4:	b510      	push	{r4, lr}
100089b6:	4a06      	ldr	r2, [pc, #24]	; (100089d0 <multicore_launch_core1+0x1c>)
100089b8:	4b06      	ldr	r3, [pc, #24]	; (100089d4 <multicore_launch_core1+0x20>)
100089ba:	429a      	cmp	r2, r3
100089bc:	d305      	bcc.n	100089ca <multicore_launch_core1+0x16>
100089be:	0011      	movs	r1, r2
100089c0:	2280      	movs	r2, #128	; 0x80
100089c2:	0112      	lsls	r2, r2, #4
100089c4:	f7ff ffce 	bl	10008964 <multicore_launch_core1_with_stack>
100089c8:	bd10      	pop	{r4, pc}
100089ca:	2101      	movs	r1, #1
100089cc:	4249      	negs	r1, r1
100089ce:	e7f7      	b.n	100089c0 <multicore_launch_core1+0xc>
100089d0:	20040800 	.word	0x20040800
100089d4:	20040000 	.word	0x20040000

100089d8 <i2c_write_blocking_internal>:
100089d8:	b5f0      	push	{r4, r5, r6, r7, lr}
100089da:	46de      	mov	lr, fp
100089dc:	4657      	mov	r7, sl
100089de:	464e      	mov	r6, r9
100089e0:	4645      	mov	r5, r8
100089e2:	b5e0      	push	{r5, r6, r7, lr}
100089e4:	b085      	sub	sp, #20
100089e6:	0006      	movs	r6, r0
100089e8:	0010      	movs	r0, r2
100089ea:	001c      	movs	r4, r3
100089ec:	9302      	str	r3, [sp, #8]
100089ee:	ab0e      	add	r3, sp, #56	; 0x38
100089f0:	781a      	ldrb	r2, [r3, #0]
100089f2:	9203      	str	r2, [sp, #12]
100089f4:	9d0f      	ldr	r5, [sp, #60]	; 0x3c
100089f6:	9f10      	ldr	r7, [sp, #64]	; 0x40
100089f8:	6833      	ldr	r3, [r6, #0]
100089fa:	2200      	movs	r2, #0
100089fc:	66da      	str	r2, [r3, #108]	; 0x6c
100089fe:	6833      	ldr	r3, [r6, #0]
10008a00:	6059      	str	r1, [r3, #4]
10008a02:	6833      	ldr	r3, [r6, #0]
10008a04:	3201      	adds	r2, #1
10008a06:	66da      	str	r2, [r3, #108]	; 0x6c
10008a08:	46a2      	mov	sl, r4
10008a0a:	2300      	movs	r3, #0
10008a0c:	4698      	mov	r8, r3
10008a0e:	469b      	mov	fp, r3
10008a10:	2400      	movs	r4, #0
10008a12:	e02b      	b.n	10008a6c <i2c_write_blocking_internal+0x94>
10008a14:	7932      	ldrb	r2, [r6, #4]
10008a16:	2a00      	cmp	r2, #0
10008a18:	d031      	beq.n	10008a7e <i2c_write_blocking_internal+0xa6>
10008a1a:	2201      	movs	r2, #1
10008a1c:	e02f      	b.n	10008a7e <i2c_write_blocking_internal+0xa6>
10008a1e:	9903      	ldr	r1, [sp, #12]
10008a20:	2900      	cmp	r1, #0
10008a22:	d001      	beq.n	10008a28 <i2c_write_blocking_internal+0x50>
10008a24:	2100      	movs	r1, #0
10008a26:	e02e      	b.n	10008a86 <i2c_write_blocking_internal+0xae>
10008a28:	2101      	movs	r1, #1
10008a2a:	e02c      	b.n	10008a86 <i2c_write_blocking_internal+0xae>
10008a2c:	0038      	movs	r0, r7
10008a2e:	47a8      	blx	r5
10008a30:	0003      	movs	r3, r0
10008a32:	4304      	orrs	r4, r0
10008a34:	b2e4      	uxtb	r4, r4
10008a36:	2b00      	cmp	r3, #0
10008a38:	d106      	bne.n	10008a48 <i2c_write_blocking_internal+0x70>
10008a3a:	6832      	ldr	r2, [r6, #0]
10008a3c:	6b52      	ldr	r2, [r2, #52]	; 0x34
10008a3e:	06d2      	lsls	r2, r2, #27
10008a40:	d402      	bmi.n	10008a48 <i2c_write_blocking_internal+0x70>
10008a42:	2d00      	cmp	r5, #0
10008a44:	d1f2      	bne.n	10008a2c <i2c_write_blocking_internal+0x54>
10008a46:	e7f6      	b.n	10008a36 <i2c_write_blocking_internal+0x5e>
10008a48:	2b00      	cmp	r3, #0
10008a4a:	d109      	bne.n	10008a60 <i2c_write_blocking_internal+0x88>
10008a4c:	6832      	ldr	r2, [r6, #0]
10008a4e:	2180      	movs	r1, #128	; 0x80
10008a50:	5851      	ldr	r1, [r2, r1]
10008a52:	468b      	mov	fp, r1
10008a54:	2900      	cmp	r1, #0
10008a56:	d11f      	bne.n	10008a98 <i2c_write_blocking_internal+0xc0>
10008a58:	2c00      	cmp	r4, #0
10008a5a:	d12f      	bne.n	10008abc <i2c_write_blocking_internal+0xe4>
10008a5c:	45c1      	cmp	r9, r8
10008a5e:	d01e      	beq.n	10008a9e <i2c_write_blocking_internal+0xc6>
10008a60:	2c00      	cmp	r4, #0
10008a62:	d133      	bne.n	10008acc <i2c_write_blocking_internal+0xf4>
10008a64:	2201      	movs	r2, #1
10008a66:	4694      	mov	ip, r2
10008a68:	44e0      	add	r8, ip
10008a6a:	9801      	ldr	r0, [sp, #4]
10008a6c:	45d0      	cmp	r8, sl
10008a6e:	da2d      	bge.n	10008acc <i2c_write_blocking_internal+0xf4>
10008a70:	9a02      	ldr	r2, [sp, #8]
10008a72:	3a01      	subs	r2, #1
10008a74:	4691      	mov	r9, r2
10008a76:	4642      	mov	r2, r8
10008a78:	2a00      	cmp	r2, #0
10008a7a:	d0cb      	beq.n	10008a14 <i2c_write_blocking_internal+0x3c>
10008a7c:	2200      	movs	r2, #0
10008a7e:	0292      	lsls	r2, r2, #10
10008a80:	45c1      	cmp	r9, r8
10008a82:	d0cc      	beq.n	10008a1e <i2c_write_blocking_internal+0x46>
10008a84:	2100      	movs	r1, #0
10008a86:	0249      	lsls	r1, r1, #9
10008a88:	430a      	orrs	r2, r1
10008a8a:	1c41      	adds	r1, r0, #1
10008a8c:	9101      	str	r1, [sp, #4]
10008a8e:	7800      	ldrb	r0, [r0, #0]
10008a90:	6831      	ldr	r1, [r6, #0]
10008a92:	4302      	orrs	r2, r0
10008a94:	610a      	str	r2, [r1, #16]
10008a96:	e7d4      	b.n	10008a42 <i2c_write_blocking_internal+0x6a>
10008a98:	6d52      	ldr	r2, [r2, #84]	; 0x54
10008a9a:	2401      	movs	r4, #1
10008a9c:	e00e      	b.n	10008abc <i2c_write_blocking_internal+0xe4>
10008a9e:	9a03      	ldr	r2, [sp, #12]
10008aa0:	2a00      	cmp	r2, #0
10008aa2:	d1dd      	bne.n	10008a60 <i2c_write_blocking_internal+0x88>
10008aa4:	e00a      	b.n	10008abc <i2c_write_blocking_internal+0xe4>
10008aa6:	0038      	movs	r0, r7
10008aa8:	47a8      	blx	r5
10008aaa:	0003      	movs	r3, r0
10008aac:	4304      	orrs	r4, r0
10008aae:	b2e4      	uxtb	r4, r4
10008ab0:	2b00      	cmp	r3, #0
10008ab2:	d106      	bne.n	10008ac2 <i2c_write_blocking_internal+0xea>
10008ab4:	6832      	ldr	r2, [r6, #0]
10008ab6:	6b52      	ldr	r2, [r2, #52]	; 0x34
10008ab8:	0592      	lsls	r2, r2, #22
10008aba:	d402      	bmi.n	10008ac2 <i2c_write_blocking_internal+0xea>
10008abc:	2d00      	cmp	r5, #0
10008abe:	d1f2      	bne.n	10008aa6 <i2c_write_blocking_internal+0xce>
10008ac0:	e7f6      	b.n	10008ab0 <i2c_write_blocking_internal+0xd8>
10008ac2:	2b00      	cmp	r3, #0
10008ac4:	d1cc      	bne.n	10008a60 <i2c_write_blocking_internal+0x88>
10008ac6:	6832      	ldr	r2, [r6, #0]
10008ac8:	6e12      	ldr	r2, [r2, #96]	; 0x60
10008aca:	e7c9      	b.n	10008a60 <i2c_write_blocking_internal+0x88>
10008acc:	2c00      	cmp	r4, #0
10008ace:	d009      	beq.n	10008ae4 <i2c_write_blocking_internal+0x10c>
10008ad0:	2b00      	cmp	r3, #0
10008ad2:	d115      	bne.n	10008b00 <i2c_write_blocking_internal+0x128>
10008ad4:	465b      	mov	r3, fp
10008ad6:	2b00      	cmp	r3, #0
10008ad8:	d016      	beq.n	10008b08 <i2c_write_blocking_internal+0x130>
10008ada:	07db      	lsls	r3, r3, #31
10008adc:	d418      	bmi.n	10008b10 <i2c_write_blocking_internal+0x138>
10008ade:	465b      	mov	r3, fp
10008ae0:	071b      	lsls	r3, r3, #28
10008ae2:	d509      	bpl.n	10008af8 <i2c_write_blocking_internal+0x120>
10008ae4:	9b03      	ldr	r3, [sp, #12]
10008ae6:	7133      	strb	r3, [r6, #4]
10008ae8:	4640      	mov	r0, r8
10008aea:	b005      	add	sp, #20
10008aec:	bcf0      	pop	{r4, r5, r6, r7}
10008aee:	46bb      	mov	fp, r7
10008af0:	46b2      	mov	sl, r6
10008af2:	46a9      	mov	r9, r5
10008af4:	46a0      	mov	r8, r4
10008af6:	bdf0      	pop	{r4, r5, r6, r7, pc}
10008af8:	2302      	movs	r3, #2
10008afa:	425b      	negs	r3, r3
10008afc:	4698      	mov	r8, r3
10008afe:	e7f1      	b.n	10008ae4 <i2c_write_blocking_internal+0x10c>
10008b00:	2301      	movs	r3, #1
10008b02:	425b      	negs	r3, r3
10008b04:	4698      	mov	r8, r3
10008b06:	e7ed      	b.n	10008ae4 <i2c_write_blocking_internal+0x10c>
10008b08:	2302      	movs	r3, #2
10008b0a:	425b      	negs	r3, r3
10008b0c:	4698      	mov	r8, r3
10008b0e:	e7e9      	b.n	10008ae4 <i2c_write_blocking_internal+0x10c>
10008b10:	2302      	movs	r3, #2
10008b12:	425b      	negs	r3, r3
10008b14:	4698      	mov	r8, r3
10008b16:	e7e5      	b.n	10008ae4 <i2c_write_blocking_internal+0x10c>

10008b18 <i2c_read_blocking_internal>:
10008b18:	b5f0      	push	{r4, r5, r6, r7, lr}
10008b1a:	46de      	mov	lr, fp
10008b1c:	4657      	mov	r7, sl
10008b1e:	464e      	mov	r6, r9
10008b20:	4645      	mov	r5, r8
10008b22:	b5e0      	push	{r5, r6, r7, lr}
10008b24:	b083      	sub	sp, #12
10008b26:	0005      	movs	r5, r0
10008b28:	4691      	mov	r9, r2
10008b2a:	469a      	mov	sl, r3
10008b2c:	ab0c      	add	r3, sp, #48	; 0x30
10008b2e:	781b      	ldrb	r3, [r3, #0]
10008b30:	9301      	str	r3, [sp, #4]
10008b32:	9e0d      	ldr	r6, [sp, #52]	; 0x34
10008b34:	9f0e      	ldr	r7, [sp, #56]	; 0x38
10008b36:	6803      	ldr	r3, [r0, #0]
10008b38:	2200      	movs	r2, #0
10008b3a:	66da      	str	r2, [r3, #108]	; 0x6c
10008b3c:	6803      	ldr	r3, [r0, #0]
10008b3e:	6059      	str	r1, [r3, #4]
10008b40:	6803      	ldr	r3, [r0, #0]
10008b42:	3201      	adds	r2, #1
10008b44:	66da      	str	r2, [r3, #108]	; 0x6c
10008b46:	46d3      	mov	fp, sl
10008b48:	2300      	movs	r3, #0
10008b4a:	4698      	mov	r8, r3
10008b4c:	2400      	movs	r4, #0
10008b4e:	e02a      	b.n	10008ba6 <i2c_read_blocking_internal+0x8e>
10008b50:	7929      	ldrb	r1, [r5, #4]
10008b52:	2900      	cmp	r1, #0
10008b54:	d033      	beq.n	10008bbe <i2c_read_blocking_internal+0xa6>
10008b56:	2101      	movs	r1, #1
10008b58:	e031      	b.n	10008bbe <i2c_read_blocking_internal+0xa6>
10008b5a:	9801      	ldr	r0, [sp, #4]
10008b5c:	2800      	cmp	r0, #0
10008b5e:	d001      	beq.n	10008b64 <i2c_read_blocking_internal+0x4c>
10008b60:	2000      	movs	r0, #0
10008b62:	e030      	b.n	10008bc6 <i2c_read_blocking_internal+0xae>
10008b64:	2001      	movs	r0, #1
10008b66:	e02e      	b.n	10008bc6 <i2c_read_blocking_internal+0xae>
10008b68:	0038      	movs	r0, r7
10008b6a:	47b0      	blx	r6
10008b6c:	0003      	movs	r3, r0
10008b6e:	4304      	orrs	r4, r0
10008b70:	b2e4      	uxtb	r4, r4
10008b72:	2c00      	cmp	r4, #0
10008b74:	d10d      	bne.n	10008b92 <i2c_read_blocking_internal+0x7a>
10008b76:	682a      	ldr	r2, [r5, #0]
10008b78:	6f92      	ldr	r2, [r2, #120]	; 0x78
10008b7a:	2a00      	cmp	r2, #0
10008b7c:	d109      	bne.n	10008b92 <i2c_read_blocking_internal+0x7a>
10008b7e:	682a      	ldr	r2, [r5, #0]
10008b80:	2180      	movs	r1, #128	; 0x80
10008b82:	5851      	ldr	r1, [r2, r1]
10008b84:	6d54      	ldr	r4, [r2, #84]	; 0x54
10008b86:	1e62      	subs	r2, r4, #1
10008b88:	4194      	sbcs	r4, r2
10008b8a:	b2e4      	uxtb	r4, r4
10008b8c:	2e00      	cmp	r6, #0
10008b8e:	d1eb      	bne.n	10008b68 <i2c_read_blocking_internal+0x50>
10008b90:	e7ef      	b.n	10008b72 <i2c_read_blocking_internal+0x5a>
10008b92:	2c00      	cmp	r4, #0
10008b94:	d11e      	bne.n	10008bd4 <i2c_read_blocking_internal+0xbc>
10008b96:	682a      	ldr	r2, [r5, #0]
10008b98:	6912      	ldr	r2, [r2, #16]
10008b9a:	4649      	mov	r1, r9
10008b9c:	700a      	strb	r2, [r1, #0]
10008b9e:	2201      	movs	r2, #1
10008ba0:	4694      	mov	ip, r2
10008ba2:	44e0      	add	r8, ip
10008ba4:	44e1      	add	r9, ip
10008ba6:	45d8      	cmp	r8, fp
10008ba8:	da14      	bge.n	10008bd4 <i2c_read_blocking_internal+0xbc>
10008baa:	4652      	mov	r2, sl
10008bac:	1e54      	subs	r4, r2, #1
10008bae:	682a      	ldr	r2, [r5, #0]
10008bb0:	6f51      	ldr	r1, [r2, #116]	; 0x74
10008bb2:	2910      	cmp	r1, #16
10008bb4:	d0fb      	beq.n	10008bae <i2c_read_blocking_internal+0x96>
10008bb6:	4641      	mov	r1, r8
10008bb8:	2900      	cmp	r1, #0
10008bba:	d0c9      	beq.n	10008b50 <i2c_read_blocking_internal+0x38>
10008bbc:	2100      	movs	r1, #0
10008bbe:	0289      	lsls	r1, r1, #10
10008bc0:	4544      	cmp	r4, r8
10008bc2:	d0ca      	beq.n	10008b5a <i2c_read_blocking_internal+0x42>
10008bc4:	2000      	movs	r0, #0
10008bc6:	0240      	lsls	r0, r0, #9
10008bc8:	4308      	orrs	r0, r1
10008bca:	2180      	movs	r1, #128	; 0x80
10008bcc:	0049      	lsls	r1, r1, #1
10008bce:	4301      	orrs	r1, r0
10008bd0:	6111      	str	r1, [r2, #16]
10008bd2:	e7d4      	b.n	10008b7e <i2c_read_blocking_internal+0x66>
10008bd4:	2c00      	cmp	r4, #0
10008bd6:	d004      	beq.n	10008be2 <i2c_read_blocking_internal+0xca>
10008bd8:	2b00      	cmp	r3, #0
10008bda:	d00c      	beq.n	10008bf6 <i2c_read_blocking_internal+0xde>
10008bdc:	2301      	movs	r3, #1
10008bde:	425b      	negs	r3, r3
10008be0:	4698      	mov	r8, r3
10008be2:	9b01      	ldr	r3, [sp, #4]
10008be4:	712b      	strb	r3, [r5, #4]
10008be6:	4640      	mov	r0, r8
10008be8:	b003      	add	sp, #12
10008bea:	bcf0      	pop	{r4, r5, r6, r7}
10008bec:	46bb      	mov	fp, r7
10008bee:	46b2      	mov	sl, r6
10008bf0:	46a9      	mov	r9, r5
10008bf2:	46a0      	mov	r8, r4
10008bf4:	bdf0      	pop	{r4, r5, r6, r7, pc}
10008bf6:	2302      	movs	r3, #2
10008bf8:	425b      	negs	r3, r3
10008bfa:	4698      	mov	r8, r3
10008bfc:	e7f1      	b.n	10008be2 <i2c_read_blocking_internal+0xca>
	...

10008c00 <i2c_set_baudrate>:
10008c00:	b5f0      	push	{r4, r5, r6, r7, lr}
10008c02:	46d6      	mov	lr, sl
10008c04:	464f      	mov	r7, r9
10008c06:	4646      	mov	r6, r8
10008c08:	b5c0      	push	{r6, r7, lr}
10008c0a:	0005      	movs	r5, r0
10008c0c:	000c      	movs	r4, r1
10008c0e:	2005      	movs	r0, #5
10008c10:	f7fa fd2e 	bl	10003670 <clock_get_hz>
10008c14:	0006      	movs	r6, r0
10008c16:	0860      	lsrs	r0, r4, #1
10008c18:	1980      	adds	r0, r0, r6
10008c1a:	0021      	movs	r1, r4
10008c1c:	f7fc f814 	bl	10004c48 <__wrap___aeabi_uidiv>
10008c20:	0007      	movs	r7, r0
10008c22:	0043      	lsls	r3, r0, #1
10008c24:	4699      	mov	r9, r3
10008c26:	4481      	add	r9, r0
10008c28:	2105      	movs	r1, #5
10008c2a:	4648      	mov	r0, r9
10008c2c:	f7fc f80c 	bl	10004c48 <__wrap___aeabi_uidiv>
10008c30:	4680      	mov	r8, r0
10008c32:	1a3b      	subs	r3, r7, r0
10008c34:	469a      	mov	sl, r3
10008c36:	4b28      	ldr	r3, [pc, #160]	; (10008cd8 <i2c_set_baudrate+0xd8>)
10008c38:	429c      	cmp	r4, r3
10008c3a:	d824      	bhi.n	10008c86 <i2c_set_baudrate+0x86>
10008c3c:	0070      	lsls	r0, r6, #1
10008c3e:	1980      	adds	r0, r0, r6
10008c40:	4926      	ldr	r1, [pc, #152]	; (10008cdc <i2c_set_baudrate+0xdc>)
10008c42:	f7fc f801 	bl	10004c48 <__wrap___aeabi_uidiv>
10008c46:	1c44      	adds	r4, r0, #1
10008c48:	4643      	mov	r3, r8
10008c4a:	3b02      	subs	r3, #2
10008c4c:	42a3      	cmp	r3, r4
10008c4e:	d321      	bcc.n	10008c94 <i2c_set_baudrate+0x94>
10008c50:	682b      	ldr	r3, [r5, #0]
10008c52:	2200      	movs	r2, #0
10008c54:	66da      	str	r2, [r3, #108]	; 0x6c
10008c56:	6829      	ldr	r1, [r5, #0]
10008c58:	680a      	ldr	r2, [r1, #0]
10008c5a:	2304      	movs	r3, #4
10008c5c:	4053      	eors	r3, r2
10008c5e:	2206      	movs	r2, #6
10008c60:	401a      	ands	r2, r3
10008c62:	2380      	movs	r3, #128	; 0x80
10008c64:	015b      	lsls	r3, r3, #5
10008c66:	430b      	orrs	r3, r1
10008c68:	601a      	str	r2, [r3, #0]
10008c6a:	682b      	ldr	r3, [r5, #0]
10008c6c:	4652      	mov	r2, sl
10008c6e:	61da      	str	r2, [r3, #28]
10008c70:	682b      	ldr	r3, [r5, #0]
10008c72:	4642      	mov	r2, r8
10008c74:	621a      	str	r2, [r3, #32]
10008c76:	464b      	mov	r3, r9
10008c78:	2b4f      	cmp	r3, #79	; 0x4f
10008c7a:	d911      	bls.n	10008ca0 <i2c_set_baudrate+0xa0>
10008c7c:	2150      	movs	r1, #80	; 0x50
10008c7e:	4648      	mov	r0, r9
10008c80:	f7fb ffe2 	bl	10004c48 <__wrap___aeabi_uidiv>
10008c84:	e00d      	b.n	10008ca2 <i2c_set_baudrate+0xa2>
10008c86:	0070      	lsls	r0, r6, #1
10008c88:	1980      	adds	r0, r0, r6
10008c8a:	4915      	ldr	r1, [pc, #84]	; (10008ce0 <i2c_set_baudrate+0xe0>)
10008c8c:	f7fb ffdc 	bl	10004c48 <__wrap___aeabi_uidiv>
10008c90:	1c44      	adds	r4, r0, #1
10008c92:	e7d9      	b.n	10008c48 <i2c_set_baudrate+0x48>
10008c94:	4b13      	ldr	r3, [pc, #76]	; (10008ce4 <i2c_set_baudrate+0xe4>)
10008c96:	4a14      	ldr	r2, [pc, #80]	; (10008ce8 <i2c_set_baudrate+0xe8>)
10008c98:	215d      	movs	r1, #93	; 0x5d
10008c9a:	4814      	ldr	r0, [pc, #80]	; (10008cec <i2c_set_baudrate+0xec>)
10008c9c:	f7fa fe26 	bl	100038ec <__assert_func>
10008ca0:	2001      	movs	r0, #1
10008ca2:	23a0      	movs	r3, #160	; 0xa0
10008ca4:	682a      	ldr	r2, [r5, #0]
10008ca6:	50d0      	str	r0, [r2, r3]
10008ca8:	682a      	ldr	r2, [r5, #0]
10008caa:	0011      	movs	r1, r2
10008cac:	317c      	adds	r1, #124	; 0x7c
10008cae:	6fd0      	ldr	r0, [r2, #124]	; 0x7c
10008cb0:	4044      	eors	r4, r0
10008cb2:	0424      	lsls	r4, r4, #16
10008cb4:	0c24      	lsrs	r4, r4, #16
10008cb6:	2380      	movs	r3, #128	; 0x80
10008cb8:	015b      	lsls	r3, r3, #5
10008cba:	430b      	orrs	r3, r1
10008cbc:	601c      	str	r4, [r3, #0]
10008cbe:	682b      	ldr	r3, [r5, #0]
10008cc0:	2201      	movs	r2, #1
10008cc2:	66da      	str	r2, [r3, #108]	; 0x6c
10008cc4:	0039      	movs	r1, r7
10008cc6:	0030      	movs	r0, r6
10008cc8:	f7fb ffbe 	bl	10004c48 <__wrap___aeabi_uidiv>
10008ccc:	bce0      	pop	{r5, r6, r7}
10008cce:	46ba      	mov	sl, r7
10008cd0:	46b1      	mov	r9, r6
10008cd2:	46a8      	mov	r8, r5
10008cd4:	bdf0      	pop	{r4, r5, r6, r7, pc}
10008cd6:	46c0      	nop			; (mov r8, r8)
10008cd8:	000f423f 	.word	0x000f423f
10008cdc:	00989680 	.word	0x00989680
10008ce0:	017d7840 	.word	0x017d7840
10008ce4:	1000b118 	.word	0x1000b118
10008ce8:	1000b194 	.word	0x1000b194
10008cec:	1000b138 	.word	0x1000b138

10008cf0 <i2c_init>:
10008cf0:	b510      	push	{r4, lr}
10008cf2:	4b11      	ldr	r3, [pc, #68]	; (10008d38 <i2c_init+0x48>)
10008cf4:	4298      	cmp	r0, r3
10008cf6:	d01c      	beq.n	10008d32 <i2c_init+0x42>
10008cf8:	2210      	movs	r2, #16
10008cfa:	4b10      	ldr	r3, [pc, #64]	; (10008d3c <i2c_init+0x4c>)
10008cfc:	601a      	str	r2, [r3, #0]
10008cfe:	4b10      	ldr	r3, [pc, #64]	; (10008d40 <i2c_init+0x50>)
10008d00:	601a      	str	r2, [r3, #0]
10008d02:	4b10      	ldr	r3, [pc, #64]	; (10008d44 <i2c_init+0x54>)
10008d04:	689b      	ldr	r3, [r3, #8]
10008d06:	0014      	movs	r4, r2
10008d08:	439c      	bics	r4, r3
10008d0a:	1e23      	subs	r3, r4, #0
10008d0c:	d1f9      	bne.n	10008d02 <i2c_init+0x12>
10008d0e:	7104      	strb	r4, [r0, #4]
10008d10:	6802      	ldr	r2, [r0, #0]
10008d12:	66d4      	str	r4, [r2, #108]	; 0x6c
10008d14:	6802      	ldr	r2, [r0, #0]
10008d16:	2466      	movs	r4, #102	; 0x66
10008d18:	34ff      	adds	r4, #255	; 0xff
10008d1a:	6014      	str	r4, [r2, #0]
10008d1c:	6802      	ldr	r2, [r0, #0]
10008d1e:	63d3      	str	r3, [r2, #60]	; 0x3c
10008d20:	6802      	ldr	r2, [r0, #0]
10008d22:	6393      	str	r3, [r2, #56]	; 0x38
10008d24:	3388      	adds	r3, #136	; 0x88
10008d26:	2203      	movs	r2, #3
10008d28:	6804      	ldr	r4, [r0, #0]
10008d2a:	50e2      	str	r2, [r4, r3]
10008d2c:	f7ff ff68 	bl	10008c00 <i2c_set_baudrate>
10008d30:	bd10      	pop	{r4, pc}
10008d32:	2208      	movs	r2, #8
10008d34:	e7e1      	b.n	10008cfa <i2c_init+0xa>
10008d36:	46c0      	nop			; (mov r8, r8)
10008d38:	20000de8 	.word	0x20000de8
10008d3c:	4000e000 	.word	0x4000e000
10008d40:	4000f000 	.word	0x4000f000
10008d44:	4000c000 	.word	0x4000c000

10008d48 <i2c_write_blocking>:
10008d48:	b530      	push	{r4, r5, lr}
10008d4a:	b085      	sub	sp, #20
10008d4c:	ac08      	add	r4, sp, #32
10008d4e:	7825      	ldrb	r5, [r4, #0]
10008d50:	2400      	movs	r4, #0
10008d52:	9402      	str	r4, [sp, #8]
10008d54:	9401      	str	r4, [sp, #4]
10008d56:	9500      	str	r5, [sp, #0]
10008d58:	f7ff fe3e 	bl	100089d8 <i2c_write_blocking_internal>
10008d5c:	b005      	add	sp, #20
10008d5e:	bd30      	pop	{r4, r5, pc}

10008d60 <i2c_read_blocking>:
10008d60:	b530      	push	{r4, r5, lr}
10008d62:	b085      	sub	sp, #20
10008d64:	ac08      	add	r4, sp, #32
10008d66:	7825      	ldrb	r5, [r4, #0]
10008d68:	2400      	movs	r4, #0
10008d6a:	9402      	str	r4, [sp, #8]
10008d6c:	9401      	str	r4, [sp, #4]
10008d6e:	9500      	str	r5, [sp, #0]
10008d70:	f7ff fed2 	bl	10008b18 <i2c_read_blocking_internal>
10008d74:	b005      	add	sp, #20
10008d76:	bd30      	pop	{r4, r5, pc}

10008d78 <malloc>:
10008d78:	b510      	push	{r4, lr}
10008d7a:	4b03      	ldr	r3, [pc, #12]	; (10008d88 <malloc+0x10>)
10008d7c:	0001      	movs	r1, r0
10008d7e:	6818      	ldr	r0, [r3, #0]
10008d80:	f000 f80e 	bl	10008da0 <_malloc_r>
10008d84:	bd10      	pop	{r4, pc}
10008d86:	46c0      	nop			; (mov r8, r8)
10008d88:	20000df8 	.word	0x20000df8

10008d8c <free>:
10008d8c:	b510      	push	{r4, lr}
10008d8e:	4b03      	ldr	r3, [pc, #12]	; (10008d9c <free+0x10>)
10008d90:	0001      	movs	r1, r0
10008d92:	6818      	ldr	r0, [r3, #0]
10008d94:	f000 fb6c 	bl	10009470 <_free_r>
10008d98:	bd10      	pop	{r4, pc}
10008d9a:	46c0      	nop			; (mov r8, r8)
10008d9c:	20000df8 	.word	0x20000df8

10008da0 <_malloc_r>:
10008da0:	b5f0      	push	{r4, r5, r6, r7, lr}
10008da2:	464e      	mov	r6, r9
10008da4:	4645      	mov	r5, r8
10008da6:	46de      	mov	lr, fp
10008da8:	4657      	mov	r7, sl
10008daa:	b5e0      	push	{r5, r6, r7, lr}
10008dac:	000d      	movs	r5, r1
10008dae:	350b      	adds	r5, #11
10008db0:	0006      	movs	r6, r0
10008db2:	b083      	sub	sp, #12
10008db4:	2d16      	cmp	r5, #22
10008db6:	d822      	bhi.n	10008dfe <_malloc_r+0x5e>
10008db8:	2910      	cmp	r1, #16
10008dba:	d900      	bls.n	10008dbe <_malloc_r+0x1e>
10008dbc:	e0b2      	b.n	10008f24 <_malloc_r+0x184>
10008dbe:	f000 fab1 	bl	10009324 <__malloc_lock>
10008dc2:	2510      	movs	r5, #16
10008dc4:	2318      	movs	r3, #24
10008dc6:	2002      	movs	r0, #2
10008dc8:	4fcc      	ldr	r7, [pc, #816]	; (100090fc <_malloc_r+0x35c>)
10008dca:	18fb      	adds	r3, r7, r3
10008dcc:	001a      	movs	r2, r3
10008dce:	685c      	ldr	r4, [r3, #4]
10008dd0:	3a08      	subs	r2, #8
10008dd2:	4294      	cmp	r4, r2
10008dd4:	d100      	bne.n	10008dd8 <_malloc_r+0x38>
10008dd6:	e0b5      	b.n	10008f44 <_malloc_r+0x1a4>
10008dd8:	2303      	movs	r3, #3
10008dda:	6862      	ldr	r2, [r4, #4]
10008ddc:	439a      	bics	r2, r3
10008dde:	0013      	movs	r3, r2
10008de0:	68e2      	ldr	r2, [r4, #12]
10008de2:	68a1      	ldr	r1, [r4, #8]
10008de4:	60ca      	str	r2, [r1, #12]
10008de6:	6091      	str	r1, [r2, #8]
10008de8:	2201      	movs	r2, #1
10008dea:	18e3      	adds	r3, r4, r3
10008dec:	6859      	ldr	r1, [r3, #4]
10008dee:	0030      	movs	r0, r6
10008df0:	430a      	orrs	r2, r1
10008df2:	605a      	str	r2, [r3, #4]
10008df4:	f000 fa9e 	bl	10009334 <__malloc_unlock>
10008df8:	0020      	movs	r0, r4
10008dfa:	3008      	adds	r0, #8
10008dfc:	e095      	b.n	10008f2a <_malloc_r+0x18a>
10008dfe:	2307      	movs	r3, #7
10008e00:	439d      	bics	r5, r3
10008e02:	d500      	bpl.n	10008e06 <_malloc_r+0x66>
10008e04:	e08e      	b.n	10008f24 <_malloc_r+0x184>
10008e06:	42a9      	cmp	r1, r5
10008e08:	d900      	bls.n	10008e0c <_malloc_r+0x6c>
10008e0a:	e08b      	b.n	10008f24 <_malloc_r+0x184>
10008e0c:	f000 fa8a 	bl	10009324 <__malloc_lock>
10008e10:	23fc      	movs	r3, #252	; 0xfc
10008e12:	005b      	lsls	r3, r3, #1
10008e14:	429d      	cmp	r5, r3
10008e16:	d200      	bcs.n	10008e1a <_malloc_r+0x7a>
10008e18:	e1a7      	b.n	1000916a <_malloc_r+0x3ca>
10008e1a:	0a68      	lsrs	r0, r5, #9
10008e1c:	d100      	bne.n	10008e20 <_malloc_r+0x80>
10008e1e:	e08b      	b.n	10008f38 <_malloc_r+0x198>
10008e20:	2804      	cmp	r0, #4
10008e22:	d900      	bls.n	10008e26 <_malloc_r+0x86>
10008e24:	e17a      	b.n	1000911c <_malloc_r+0x37c>
10008e26:	2338      	movs	r3, #56	; 0x38
10008e28:	4698      	mov	r8, r3
10008e2a:	09a8      	lsrs	r0, r5, #6
10008e2c:	4480      	add	r8, r0
10008e2e:	3039      	adds	r0, #57	; 0x39
10008e30:	00c1      	lsls	r1, r0, #3
10008e32:	4fb2      	ldr	r7, [pc, #712]	; (100090fc <_malloc_r+0x35c>)
10008e34:	1879      	adds	r1, r7, r1
10008e36:	684c      	ldr	r4, [r1, #4]
10008e38:	3908      	subs	r1, #8
10008e3a:	42a1      	cmp	r1, r4
10008e3c:	d00e      	beq.n	10008e5c <_malloc_r+0xbc>
10008e3e:	2303      	movs	r3, #3
10008e40:	469c      	mov	ip, r3
10008e42:	e004      	b.n	10008e4e <_malloc_r+0xae>
10008e44:	2a00      	cmp	r2, #0
10008e46:	dacb      	bge.n	10008de0 <_malloc_r+0x40>
10008e48:	68e4      	ldr	r4, [r4, #12]
10008e4a:	42a1      	cmp	r1, r4
10008e4c:	d006      	beq.n	10008e5c <_malloc_r+0xbc>
10008e4e:	4662      	mov	r2, ip
10008e50:	6863      	ldr	r3, [r4, #4]
10008e52:	4393      	bics	r3, r2
10008e54:	1b5a      	subs	r2, r3, r5
10008e56:	2a0f      	cmp	r2, #15
10008e58:	ddf4      	ble.n	10008e44 <_malloc_r+0xa4>
10008e5a:	4640      	mov	r0, r8
10008e5c:	003a      	movs	r2, r7
10008e5e:	693c      	ldr	r4, [r7, #16]
10008e60:	3208      	adds	r2, #8
10008e62:	4294      	cmp	r4, r2
10008e64:	d100      	bne.n	10008e68 <_malloc_r+0xc8>
10008e66:	e078      	b.n	10008f5a <_malloc_r+0x1ba>
10008e68:	2303      	movs	r3, #3
10008e6a:	6861      	ldr	r1, [r4, #4]
10008e6c:	4399      	bics	r1, r3
10008e6e:	4689      	mov	r9, r1
10008e70:	000b      	movs	r3, r1
10008e72:	1b49      	subs	r1, r1, r5
10008e74:	290f      	cmp	r1, #15
10008e76:	dd00      	ble.n	10008e7a <_malloc_r+0xda>
10008e78:	e17b      	b.n	10009172 <_malloc_r+0x3d2>
10008e7a:	617a      	str	r2, [r7, #20]
10008e7c:	613a      	str	r2, [r7, #16]
10008e7e:	2900      	cmp	r1, #0
10008e80:	dab2      	bge.n	10008de8 <_malloc_r+0x48>
10008e82:	2280      	movs	r2, #128	; 0x80
10008e84:	0092      	lsls	r2, r2, #2
10008e86:	4591      	cmp	r9, r2
10008e88:	d300      	bcc.n	10008e8c <_malloc_r+0xec>
10008e8a:	e10f      	b.n	100090ac <_malloc_r+0x30c>
10008e8c:	0959      	lsrs	r1, r3, #5
10008e8e:	08da      	lsrs	r2, r3, #3
10008e90:	2301      	movs	r3, #1
10008e92:	408b      	lsls	r3, r1
10008e94:	00d2      	lsls	r2, r2, #3
10008e96:	6879      	ldr	r1, [r7, #4]
10008e98:	19d2      	adds	r2, r2, r7
10008e9a:	430b      	orrs	r3, r1
10008e9c:	6891      	ldr	r1, [r2, #8]
10008e9e:	607b      	str	r3, [r7, #4]
10008ea0:	60e2      	str	r2, [r4, #12]
10008ea2:	60a1      	str	r1, [r4, #8]
10008ea4:	6094      	str	r4, [r2, #8]
10008ea6:	60cc      	str	r4, [r1, #12]
10008ea8:	2101      	movs	r1, #1
10008eaa:	1082      	asrs	r2, r0, #2
10008eac:	4091      	lsls	r1, r2
10008eae:	4299      	cmp	r1, r3
10008eb0:	d859      	bhi.n	10008f66 <_malloc_r+0x1c6>
10008eb2:	420b      	tst	r3, r1
10008eb4:	d105      	bne.n	10008ec2 <_malloc_r+0x122>
10008eb6:	2203      	movs	r2, #3
10008eb8:	4390      	bics	r0, r2
10008eba:	0049      	lsls	r1, r1, #1
10008ebc:	3004      	adds	r0, #4
10008ebe:	420b      	tst	r3, r1
10008ec0:	d0fb      	beq.n	10008eba <_malloc_r+0x11a>
10008ec2:	2303      	movs	r3, #3
10008ec4:	4698      	mov	r8, r3
10008ec6:	00c3      	lsls	r3, r0, #3
10008ec8:	4699      	mov	r9, r3
10008eca:	44b9      	add	r9, r7
10008ecc:	46cc      	mov	ip, r9
10008ece:	4682      	mov	sl, r0
10008ed0:	4663      	mov	r3, ip
10008ed2:	68dc      	ldr	r4, [r3, #12]
10008ed4:	45a4      	cmp	ip, r4
10008ed6:	d107      	bne.n	10008ee8 <_malloc_r+0x148>
10008ed8:	e12c      	b.n	10009134 <_malloc_r+0x394>
10008eda:	2a00      	cmp	r2, #0
10008edc:	db00      	blt.n	10008ee0 <_malloc_r+0x140>
10008ede:	e135      	b.n	1000914c <_malloc_r+0x3ac>
10008ee0:	68e4      	ldr	r4, [r4, #12]
10008ee2:	45a4      	cmp	ip, r4
10008ee4:	d100      	bne.n	10008ee8 <_malloc_r+0x148>
10008ee6:	e125      	b.n	10009134 <_malloc_r+0x394>
10008ee8:	4642      	mov	r2, r8
10008eea:	6863      	ldr	r3, [r4, #4]
10008eec:	4393      	bics	r3, r2
10008eee:	1b5a      	subs	r2, r3, r5
10008ef0:	2a0f      	cmp	r2, #15
10008ef2:	ddf2      	ble.n	10008eda <_malloc_r+0x13a>
10008ef4:	2001      	movs	r0, #1
10008ef6:	4680      	mov	r8, r0
10008ef8:	1961      	adds	r1, r4, r5
10008efa:	4305      	orrs	r5, r0
10008efc:	6065      	str	r5, [r4, #4]
10008efe:	68a0      	ldr	r0, [r4, #8]
10008f00:	68e5      	ldr	r5, [r4, #12]
10008f02:	3708      	adds	r7, #8
10008f04:	60c5      	str	r5, [r0, #12]
10008f06:	60a8      	str	r0, [r5, #8]
10008f08:	4640      	mov	r0, r8
10008f0a:	4310      	orrs	r0, r2
10008f0c:	60f9      	str	r1, [r7, #12]
10008f0e:	60b9      	str	r1, [r7, #8]
10008f10:	6048      	str	r0, [r1, #4]
10008f12:	60cf      	str	r7, [r1, #12]
10008f14:	0030      	movs	r0, r6
10008f16:	608f      	str	r7, [r1, #8]
10008f18:	50e2      	str	r2, [r4, r3]
10008f1a:	f000 fa0b 	bl	10009334 <__malloc_unlock>
10008f1e:	0020      	movs	r0, r4
10008f20:	3008      	adds	r0, #8
10008f22:	e002      	b.n	10008f2a <_malloc_r+0x18a>
10008f24:	230c      	movs	r3, #12
10008f26:	2000      	movs	r0, #0
10008f28:	6033      	str	r3, [r6, #0]
10008f2a:	b003      	add	sp, #12
10008f2c:	bcf0      	pop	{r4, r5, r6, r7}
10008f2e:	46bb      	mov	fp, r7
10008f30:	46b2      	mov	sl, r6
10008f32:	46a9      	mov	r9, r5
10008f34:	46a0      	mov	r8, r4
10008f36:	bdf0      	pop	{r4, r5, r6, r7, pc}
10008f38:	2180      	movs	r1, #128	; 0x80
10008f3a:	233f      	movs	r3, #63	; 0x3f
10008f3c:	2040      	movs	r0, #64	; 0x40
10008f3e:	4698      	mov	r8, r3
10008f40:	0089      	lsls	r1, r1, #2
10008f42:	e776      	b.n	10008e32 <_malloc_r+0x92>
10008f44:	68dc      	ldr	r4, [r3, #12]
10008f46:	3002      	adds	r0, #2
10008f48:	42a3      	cmp	r3, r4
10008f4a:	d000      	beq.n	10008f4e <_malloc_r+0x1ae>
10008f4c:	e744      	b.n	10008dd8 <_malloc_r+0x38>
10008f4e:	003a      	movs	r2, r7
10008f50:	693c      	ldr	r4, [r7, #16]
10008f52:	3208      	adds	r2, #8
10008f54:	4294      	cmp	r4, r2
10008f56:	d000      	beq.n	10008f5a <_malloc_r+0x1ba>
10008f58:	e786      	b.n	10008e68 <_malloc_r+0xc8>
10008f5a:	2101      	movs	r1, #1
10008f5c:	687b      	ldr	r3, [r7, #4]
10008f5e:	1082      	asrs	r2, r0, #2
10008f60:	4091      	lsls	r1, r2
10008f62:	4299      	cmp	r1, r3
10008f64:	d9a5      	bls.n	10008eb2 <_malloc_r+0x112>
10008f66:	2303      	movs	r3, #3
10008f68:	68bc      	ldr	r4, [r7, #8]
10008f6a:	6862      	ldr	r2, [r4, #4]
10008f6c:	439a      	bics	r2, r3
10008f6e:	4691      	mov	r9, r2
10008f70:	4295      	cmp	r5, r2
10008f72:	d803      	bhi.n	10008f7c <_malloc_r+0x1dc>
10008f74:	1b53      	subs	r3, r2, r5
10008f76:	2b0f      	cmp	r3, #15
10008f78:	dd00      	ble.n	10008f7c <_malloc_r+0x1dc>
10008f7a:	e089      	b.n	10009090 <_malloc_r+0x2f0>
10008f7c:	0023      	movs	r3, r4
10008f7e:	444b      	add	r3, r9
10008f80:	4a5f      	ldr	r2, [pc, #380]	; (10009100 <_malloc_r+0x360>)
10008f82:	9301      	str	r3, [sp, #4]
10008f84:	4b5f      	ldr	r3, [pc, #380]	; (10009104 <_malloc_r+0x364>)
10008f86:	4693      	mov	fp, r2
10008f88:	681b      	ldr	r3, [r3, #0]
10008f8a:	6812      	ldr	r2, [r2, #0]
10008f8c:	18eb      	adds	r3, r5, r3
10008f8e:	3201      	adds	r2, #1
10008f90:	d100      	bne.n	10008f94 <_malloc_r+0x1f4>
10008f92:	e13d      	b.n	10009210 <_malloc_r+0x470>
10008f94:	4a5c      	ldr	r2, [pc, #368]	; (10009108 <_malloc_r+0x368>)
10008f96:	4694      	mov	ip, r2
10008f98:	4463      	add	r3, ip
10008f9a:	0b1b      	lsrs	r3, r3, #12
10008f9c:	031b      	lsls	r3, r3, #12
10008f9e:	9300      	str	r3, [sp, #0]
10008fa0:	0030      	movs	r0, r6
10008fa2:	9900      	ldr	r1, [sp, #0]
10008fa4:	f000 f9ce 	bl	10009344 <_sbrk_r>
10008fa8:	0003      	movs	r3, r0
10008faa:	4680      	mov	r8, r0
10008fac:	3301      	adds	r3, #1
10008fae:	d100      	bne.n	10008fb2 <_malloc_r+0x212>
10008fb0:	e0fa      	b.n	100091a8 <_malloc_r+0x408>
10008fb2:	9b01      	ldr	r3, [sp, #4]
10008fb4:	4283      	cmp	r3, r0
10008fb6:	d900      	bls.n	10008fba <_malloc_r+0x21a>
10008fb8:	e0f4      	b.n	100091a4 <_malloc_r+0x404>
10008fba:	4b54      	ldr	r3, [pc, #336]	; (1000910c <_malloc_r+0x36c>)
10008fbc:	9800      	ldr	r0, [sp, #0]
10008fbe:	001a      	movs	r2, r3
10008fc0:	469a      	mov	sl, r3
10008fc2:	6812      	ldr	r2, [r2, #0]
10008fc4:	0003      	movs	r3, r0
10008fc6:	4694      	mov	ip, r2
10008fc8:	4651      	mov	r1, sl
10008fca:	4463      	add	r3, ip
10008fcc:	600b      	str	r3, [r1, #0]
10008fce:	9901      	ldr	r1, [sp, #4]
10008fd0:	001a      	movs	r2, r3
10008fd2:	4541      	cmp	r1, r8
10008fd4:	d100      	bne.n	10008fd8 <_malloc_r+0x238>
10008fd6:	e151      	b.n	1000927c <_malloc_r+0x4dc>
10008fd8:	465b      	mov	r3, fp
10008fda:	681b      	ldr	r3, [r3, #0]
10008fdc:	3301      	adds	r3, #1
10008fde:	d100      	bne.n	10008fe2 <_malloc_r+0x242>
10008fe0:	e156      	b.n	10009290 <_malloc_r+0x4f0>
10008fe2:	4643      	mov	r3, r8
10008fe4:	9901      	ldr	r1, [sp, #4]
10008fe6:	1a5b      	subs	r3, r3, r1
10008fe8:	189a      	adds	r2, r3, r2
10008fea:	4653      	mov	r3, sl
10008fec:	601a      	str	r2, [r3, #0]
10008fee:	2307      	movs	r3, #7
10008ff0:	4642      	mov	r2, r8
10008ff2:	4641      	mov	r1, r8
10008ff4:	401a      	ands	r2, r3
10008ff6:	9201      	str	r2, [sp, #4]
10008ff8:	4219      	tst	r1, r3
10008ffa:	d100      	bne.n	10008ffe <_malloc_r+0x25e>
10008ffc:	e112      	b.n	10009224 <_malloc_r+0x484>
10008ffe:	2308      	movs	r3, #8
10009000:	4698      	mov	r8, r3
10009002:	1a88      	subs	r0, r1, r2
10009004:	4b42      	ldr	r3, [pc, #264]	; (10009110 <_malloc_r+0x370>)
10009006:	9900      	ldr	r1, [sp, #0]
10009008:	4480      	add	r8, r0
1000900a:	4441      	add	r1, r8
1000900c:	1a9b      	subs	r3, r3, r2
1000900e:	1a5b      	subs	r3, r3, r1
10009010:	051b      	lsls	r3, r3, #20
10009012:	0d1b      	lsrs	r3, r3, #20
10009014:	9100      	str	r1, [sp, #0]
10009016:	0030      	movs	r0, r6
10009018:	0019      	movs	r1, r3
1000901a:	469b      	mov	fp, r3
1000901c:	f000 f992 	bl	10009344 <_sbrk_r>
10009020:	1c43      	adds	r3, r0, #1
10009022:	d100      	bne.n	10009026 <_malloc_r+0x286>
10009024:	e150      	b.n	100092c8 <_malloc_r+0x528>
10009026:	4643      	mov	r3, r8
10009028:	1ac0      	subs	r0, r0, r3
1000902a:	0003      	movs	r3, r0
1000902c:	445b      	add	r3, fp
1000902e:	9300      	str	r3, [sp, #0]
10009030:	4653      	mov	r3, sl
10009032:	4652      	mov	r2, sl
10009034:	681b      	ldr	r3, [r3, #0]
10009036:	2101      	movs	r1, #1
10009038:	445b      	add	r3, fp
1000903a:	6013      	str	r3, [r2, #0]
1000903c:	4642      	mov	r2, r8
1000903e:	4640      	mov	r0, r8
10009040:	60ba      	str	r2, [r7, #8]
10009042:	9a00      	ldr	r2, [sp, #0]
10009044:	430a      	orrs	r2, r1
10009046:	6042      	str	r2, [r0, #4]
10009048:	42bc      	cmp	r4, r7
1000904a:	d100      	bne.n	1000904e <_malloc_r+0x2ae>
1000904c:	e124      	b.n	10009298 <_malloc_r+0x4f8>
1000904e:	464a      	mov	r2, r9
10009050:	2a0f      	cmp	r2, #15
10009052:	d800      	bhi.n	10009056 <_malloc_r+0x2b6>
10009054:	e122      	b.n	1000929c <_malloc_r+0x4fc>
10009056:	2007      	movs	r0, #7
10009058:	3a0c      	subs	r2, #12
1000905a:	4382      	bics	r2, r0
1000905c:	6860      	ldr	r0, [r4, #4]
1000905e:	4001      	ands	r1, r0
10009060:	2005      	movs	r0, #5
10009062:	4311      	orrs	r1, r2
10009064:	6061      	str	r1, [r4, #4]
10009066:	18a1      	adds	r1, r4, r2
10009068:	6048      	str	r0, [r1, #4]
1000906a:	6088      	str	r0, [r1, #8]
1000906c:	2a0f      	cmp	r2, #15
1000906e:	d900      	bls.n	10009072 <_malloc_r+0x2d2>
10009070:	e135      	b.n	100092de <_malloc_r+0x53e>
10009072:	4642      	mov	r2, r8
10009074:	4644      	mov	r4, r8
10009076:	6852      	ldr	r2, [r2, #4]
10009078:	4926      	ldr	r1, [pc, #152]	; (10009114 <_malloc_r+0x374>)
1000907a:	6808      	ldr	r0, [r1, #0]
1000907c:	4298      	cmp	r0, r3
1000907e:	d200      	bcs.n	10009082 <_malloc_r+0x2e2>
10009080:	600b      	str	r3, [r1, #0]
10009082:	4925      	ldr	r1, [pc, #148]	; (10009118 <_malloc_r+0x378>)
10009084:	6808      	ldr	r0, [r1, #0]
10009086:	4298      	cmp	r0, r3
10009088:	d300      	bcc.n	1000908c <_malloc_r+0x2ec>
1000908a:	e08f      	b.n	100091ac <_malloc_r+0x40c>
1000908c:	600b      	str	r3, [r1, #0]
1000908e:	e08d      	b.n	100091ac <_malloc_r+0x40c>
10009090:	2201      	movs	r2, #1
10009092:	0029      	movs	r1, r5
10009094:	4313      	orrs	r3, r2
10009096:	4311      	orrs	r1, r2
10009098:	1965      	adds	r5, r4, r5
1000909a:	6061      	str	r1, [r4, #4]
1000909c:	0030      	movs	r0, r6
1000909e:	60bd      	str	r5, [r7, #8]
100090a0:	606b      	str	r3, [r5, #4]
100090a2:	f000 f947 	bl	10009334 <__malloc_unlock>
100090a6:	0020      	movs	r0, r4
100090a8:	3008      	adds	r0, #8
100090aa:	e73e      	b.n	10008f2a <_malloc_r+0x18a>
100090ac:	0a5a      	lsrs	r2, r3, #9
100090ae:	2a04      	cmp	r2, #4
100090b0:	d972      	bls.n	10009198 <_malloc_r+0x3f8>
100090b2:	2a14      	cmp	r2, #20
100090b4:	d900      	bls.n	100090b8 <_malloc_r+0x318>
100090b6:	e0c5      	b.n	10009244 <_malloc_r+0x4a4>
100090b8:	0011      	movs	r1, r2
100090ba:	325c      	adds	r2, #92	; 0x5c
100090bc:	315b      	adds	r1, #91	; 0x5b
100090be:	00d2      	lsls	r2, r2, #3
100090c0:	2308      	movs	r3, #8
100090c2:	425b      	negs	r3, r3
100090c4:	469c      	mov	ip, r3
100090c6:	18ba      	adds	r2, r7, r2
100090c8:	4494      	add	ip, r2
100090ca:	4663      	mov	r3, ip
100090cc:	689a      	ldr	r2, [r3, #8]
100090ce:	2303      	movs	r3, #3
100090d0:	4698      	mov	r8, r3
100090d2:	4594      	cmp	ip, r2
100090d4:	d100      	bne.n	100090d8 <_malloc_r+0x338>
100090d6:	e09e      	b.n	10009216 <_malloc_r+0x476>
100090d8:	4643      	mov	r3, r8
100090da:	6851      	ldr	r1, [r2, #4]
100090dc:	4399      	bics	r1, r3
100090de:	4549      	cmp	r1, r9
100090e0:	d902      	bls.n	100090e8 <_malloc_r+0x348>
100090e2:	6892      	ldr	r2, [r2, #8]
100090e4:	4594      	cmp	ip, r2
100090e6:	d1f7      	bne.n	100090d8 <_malloc_r+0x338>
100090e8:	68d3      	ldr	r3, [r2, #12]
100090ea:	469c      	mov	ip, r3
100090ec:	687b      	ldr	r3, [r7, #4]
100090ee:	4661      	mov	r1, ip
100090f0:	60a2      	str	r2, [r4, #8]
100090f2:	60e1      	str	r1, [r4, #12]
100090f4:	608c      	str	r4, [r1, #8]
100090f6:	60d4      	str	r4, [r2, #12]
100090f8:	e6d6      	b.n	10008ea8 <_malloc_r+0x108>
100090fa:	46c0      	nop			; (mov r8, r8)
100090fc:	20001228 	.word	0x20001228
10009100:	20001630 	.word	0x20001630
10009104:	20001860 	.word	0x20001860
10009108:	0000100f 	.word	0x0000100f
1000910c:	20001830 	.word	0x20001830
10009110:	00001008 	.word	0x00001008
10009114:	20001858 	.word	0x20001858
10009118:	2000185c 	.word	0x2000185c
1000911c:	2814      	cmp	r0, #20
1000911e:	d952      	bls.n	100091c6 <_malloc_r+0x426>
10009120:	2854      	cmp	r0, #84	; 0x54
10009122:	d900      	bls.n	10009126 <_malloc_r+0x386>
10009124:	e096      	b.n	10009254 <_malloc_r+0x4b4>
10009126:	236e      	movs	r3, #110	; 0x6e
10009128:	4698      	mov	r8, r3
1000912a:	0b28      	lsrs	r0, r5, #12
1000912c:	4480      	add	r8, r0
1000912e:	306f      	adds	r0, #111	; 0x6f
10009130:	00c1      	lsls	r1, r0, #3
10009132:	e67e      	b.n	10008e32 <_malloc_r+0x92>
10009134:	2308      	movs	r3, #8
10009136:	469b      	mov	fp, r3
10009138:	3b07      	subs	r3, #7
1000913a:	44dc      	add	ip, fp
1000913c:	469b      	mov	fp, r3
1000913e:	44da      	add	sl, fp
10009140:	4643      	mov	r3, r8
10009142:	4652      	mov	r2, sl
10009144:	4213      	tst	r3, r2
10009146:	d000      	beq.n	1000914a <_malloc_r+0x3aa>
10009148:	e6c2      	b.n	10008ed0 <_malloc_r+0x130>
1000914a:	e04c      	b.n	100091e6 <_malloc_r+0x446>
1000914c:	2201      	movs	r2, #1
1000914e:	18e3      	adds	r3, r4, r3
10009150:	6859      	ldr	r1, [r3, #4]
10009152:	0030      	movs	r0, r6
10009154:	430a      	orrs	r2, r1
10009156:	605a      	str	r2, [r3, #4]
10009158:	68e3      	ldr	r3, [r4, #12]
1000915a:	68a2      	ldr	r2, [r4, #8]
1000915c:	60d3      	str	r3, [r2, #12]
1000915e:	609a      	str	r2, [r3, #8]
10009160:	f000 f8e8 	bl	10009334 <__malloc_unlock>
10009164:	0020      	movs	r0, r4
10009166:	3008      	adds	r0, #8
10009168:	e6df      	b.n	10008f2a <_malloc_r+0x18a>
1000916a:	002b      	movs	r3, r5
1000916c:	08e8      	lsrs	r0, r5, #3
1000916e:	3308      	adds	r3, #8
10009170:	e62a      	b.n	10008dc8 <_malloc_r+0x28>
10009172:	2301      	movs	r3, #1
10009174:	1960      	adds	r0, r4, r5
10009176:	431d      	orrs	r5, r3
10009178:	6065      	str	r5, [r4, #4]
1000917a:	6178      	str	r0, [r7, #20]
1000917c:	6138      	str	r0, [r7, #16]
1000917e:	60c2      	str	r2, [r0, #12]
10009180:	6082      	str	r2, [r0, #8]
10009182:	001a      	movs	r2, r3
10009184:	464b      	mov	r3, r9
10009186:	430a      	orrs	r2, r1
10009188:	6042      	str	r2, [r0, #4]
1000918a:	0030      	movs	r0, r6
1000918c:	50e1      	str	r1, [r4, r3]
1000918e:	f000 f8d1 	bl	10009334 <__malloc_unlock>
10009192:	0020      	movs	r0, r4
10009194:	3008      	adds	r0, #8
10009196:	e6c8      	b.n	10008f2a <_malloc_r+0x18a>
10009198:	099a      	lsrs	r2, r3, #6
1000919a:	0011      	movs	r1, r2
1000919c:	3239      	adds	r2, #57	; 0x39
1000919e:	3138      	adds	r1, #56	; 0x38
100091a0:	00d2      	lsls	r2, r2, #3
100091a2:	e78d      	b.n	100090c0 <_malloc_r+0x320>
100091a4:	42bc      	cmp	r4, r7
100091a6:	d060      	beq.n	1000926a <_malloc_r+0x4ca>
100091a8:	68bc      	ldr	r4, [r7, #8]
100091aa:	6862      	ldr	r2, [r4, #4]
100091ac:	2303      	movs	r3, #3
100091ae:	439a      	bics	r2, r3
100091b0:	1b53      	subs	r3, r2, r5
100091b2:	4295      	cmp	r5, r2
100091b4:	d802      	bhi.n	100091bc <_malloc_r+0x41c>
100091b6:	2b0f      	cmp	r3, #15
100091b8:	dd00      	ble.n	100091bc <_malloc_r+0x41c>
100091ba:	e769      	b.n	10009090 <_malloc_r+0x2f0>
100091bc:	0030      	movs	r0, r6
100091be:	f000 f8b9 	bl	10009334 <__malloc_unlock>
100091c2:	2000      	movs	r0, #0
100091c4:	e6b1      	b.n	10008f2a <_malloc_r+0x18a>
100091c6:	235b      	movs	r3, #91	; 0x5b
100091c8:	4698      	mov	r8, r3
100091ca:	4480      	add	r8, r0
100091cc:	305c      	adds	r0, #92	; 0x5c
100091ce:	00c1      	lsls	r1, r0, #3
100091d0:	e62f      	b.n	10008e32 <_malloc_r+0x92>
100091d2:	2308      	movs	r3, #8
100091d4:	425b      	negs	r3, r3
100091d6:	469c      	mov	ip, r3
100091d8:	44e1      	add	r9, ip
100091da:	464b      	mov	r3, r9
100091dc:	689b      	ldr	r3, [r3, #8]
100091de:	3801      	subs	r0, #1
100091e0:	454b      	cmp	r3, r9
100091e2:	d000      	beq.n	100091e6 <_malloc_r+0x446>
100091e4:	e098      	b.n	10009318 <_malloc_r+0x578>
100091e6:	4643      	mov	r3, r8
100091e8:	4203      	tst	r3, r0
100091ea:	d1f2      	bne.n	100091d2 <_malloc_r+0x432>
100091ec:	687b      	ldr	r3, [r7, #4]
100091ee:	438b      	bics	r3, r1
100091f0:	607b      	str	r3, [r7, #4]
100091f2:	0049      	lsls	r1, r1, #1
100091f4:	4299      	cmp	r1, r3
100091f6:	d900      	bls.n	100091fa <_malloc_r+0x45a>
100091f8:	e6b5      	b.n	10008f66 <_malloc_r+0x1c6>
100091fa:	2900      	cmp	r1, #0
100091fc:	d104      	bne.n	10009208 <_malloc_r+0x468>
100091fe:	e6b2      	b.n	10008f66 <_malloc_r+0x1c6>
10009200:	2204      	movs	r2, #4
10009202:	4694      	mov	ip, r2
10009204:	0049      	lsls	r1, r1, #1
10009206:	44e2      	add	sl, ip
10009208:	420b      	tst	r3, r1
1000920a:	d0f9      	beq.n	10009200 <_malloc_r+0x460>
1000920c:	4650      	mov	r0, sl
1000920e:	e65a      	b.n	10008ec6 <_malloc_r+0x126>
10009210:	3310      	adds	r3, #16
10009212:	9300      	str	r3, [sp, #0]
10009214:	e6c4      	b.n	10008fa0 <_malloc_r+0x200>
10009216:	1089      	asrs	r1, r1, #2
10009218:	3b02      	subs	r3, #2
1000921a:	408b      	lsls	r3, r1
1000921c:	6879      	ldr	r1, [r7, #4]
1000921e:	430b      	orrs	r3, r1
10009220:	607b      	str	r3, [r7, #4]
10009222:	e764      	b.n	100090ee <_malloc_r+0x34e>
10009224:	9b00      	ldr	r3, [sp, #0]
10009226:	0030      	movs	r0, r6
10009228:	4443      	add	r3, r8
1000922a:	425b      	negs	r3, r3
1000922c:	051b      	lsls	r3, r3, #20
1000922e:	0d1b      	lsrs	r3, r3, #20
10009230:	0019      	movs	r1, r3
10009232:	469b      	mov	fp, r3
10009234:	f000 f886 	bl	10009344 <_sbrk_r>
10009238:	1c43      	adds	r3, r0, #1
1000923a:	d000      	beq.n	1000923e <_malloc_r+0x49e>
1000923c:	e6f3      	b.n	10009026 <_malloc_r+0x286>
1000923e:	2300      	movs	r3, #0
10009240:	469b      	mov	fp, r3
10009242:	e6f5      	b.n	10009030 <_malloc_r+0x290>
10009244:	2a54      	cmp	r2, #84	; 0x54
10009246:	d82b      	bhi.n	100092a0 <_malloc_r+0x500>
10009248:	0b1a      	lsrs	r2, r3, #12
1000924a:	0011      	movs	r1, r2
1000924c:	326f      	adds	r2, #111	; 0x6f
1000924e:	316e      	adds	r1, #110	; 0x6e
10009250:	00d2      	lsls	r2, r2, #3
10009252:	e735      	b.n	100090c0 <_malloc_r+0x320>
10009254:	23aa      	movs	r3, #170	; 0xaa
10009256:	005b      	lsls	r3, r3, #1
10009258:	4298      	cmp	r0, r3
1000925a:	d82b      	bhi.n	100092b4 <_malloc_r+0x514>
1000925c:	3bdd      	subs	r3, #221	; 0xdd
1000925e:	4698      	mov	r8, r3
10009260:	0be8      	lsrs	r0, r5, #15
10009262:	4480      	add	r8, r0
10009264:	3078      	adds	r0, #120	; 0x78
10009266:	00c1      	lsls	r1, r0, #3
10009268:	e5e3      	b.n	10008e32 <_malloc_r+0x92>
1000926a:	4b2c      	ldr	r3, [pc, #176]	; (1000931c <_malloc_r+0x57c>)
1000926c:	9a00      	ldr	r2, [sp, #0]
1000926e:	469a      	mov	sl, r3
10009270:	681b      	ldr	r3, [r3, #0]
10009272:	469c      	mov	ip, r3
10009274:	4653      	mov	r3, sl
10009276:	4462      	add	r2, ip
10009278:	601a      	str	r2, [r3, #0]
1000927a:	e6ad      	b.n	10008fd8 <_malloc_r+0x238>
1000927c:	0509      	lsls	r1, r1, #20
1000927e:	d000      	beq.n	10009282 <_malloc_r+0x4e2>
10009280:	e6aa      	b.n	10008fd8 <_malloc_r+0x238>
10009282:	0002      	movs	r2, r0
10009284:	68bc      	ldr	r4, [r7, #8]
10009286:	444a      	add	r2, r9
10009288:	3101      	adds	r1, #1
1000928a:	430a      	orrs	r2, r1
1000928c:	6062      	str	r2, [r4, #4]
1000928e:	e6f3      	b.n	10009078 <_malloc_r+0x2d8>
10009290:	465b      	mov	r3, fp
10009292:	4642      	mov	r2, r8
10009294:	601a      	str	r2, [r3, #0]
10009296:	e6aa      	b.n	10008fee <_malloc_r+0x24e>
10009298:	4644      	mov	r4, r8
1000929a:	e6ed      	b.n	10009078 <_malloc_r+0x2d8>
1000929c:	6041      	str	r1, [r0, #4]
1000929e:	e78d      	b.n	100091bc <_malloc_r+0x41c>
100092a0:	21aa      	movs	r1, #170	; 0xaa
100092a2:	0049      	lsls	r1, r1, #1
100092a4:	428a      	cmp	r2, r1
100092a6:	d824      	bhi.n	100092f2 <_malloc_r+0x552>
100092a8:	0bda      	lsrs	r2, r3, #15
100092aa:	0011      	movs	r1, r2
100092ac:	3278      	adds	r2, #120	; 0x78
100092ae:	3177      	adds	r1, #119	; 0x77
100092b0:	00d2      	lsls	r2, r2, #3
100092b2:	e705      	b.n	100090c0 <_malloc_r+0x320>
100092b4:	4b1a      	ldr	r3, [pc, #104]	; (10009320 <_malloc_r+0x580>)
100092b6:	4298      	cmp	r0, r3
100092b8:	d824      	bhi.n	10009304 <_malloc_r+0x564>
100092ba:	237c      	movs	r3, #124	; 0x7c
100092bc:	4698      	mov	r8, r3
100092be:	0ca8      	lsrs	r0, r5, #18
100092c0:	4480      	add	r8, r0
100092c2:	307d      	adds	r0, #125	; 0x7d
100092c4:	00c1      	lsls	r1, r0, #3
100092c6:	e5b4      	b.n	10008e32 <_malloc_r+0x92>
100092c8:	9a00      	ldr	r2, [sp, #0]
100092ca:	9b01      	ldr	r3, [sp, #4]
100092cc:	4694      	mov	ip, r2
100092ce:	4642      	mov	r2, r8
100092d0:	3b08      	subs	r3, #8
100092d2:	4463      	add	r3, ip
100092d4:	1a9b      	subs	r3, r3, r2
100092d6:	9300      	str	r3, [sp, #0]
100092d8:	2300      	movs	r3, #0
100092da:	469b      	mov	fp, r3
100092dc:	e6a8      	b.n	10009030 <_malloc_r+0x290>
100092de:	0021      	movs	r1, r4
100092e0:	0030      	movs	r0, r6
100092e2:	3108      	adds	r1, #8
100092e4:	f000 f8c4 	bl	10009470 <_free_r>
100092e8:	4653      	mov	r3, sl
100092ea:	68bc      	ldr	r4, [r7, #8]
100092ec:	681b      	ldr	r3, [r3, #0]
100092ee:	6862      	ldr	r2, [r4, #4]
100092f0:	e6c2      	b.n	10009078 <_malloc_r+0x2d8>
100092f2:	490b      	ldr	r1, [pc, #44]	; (10009320 <_malloc_r+0x580>)
100092f4:	428a      	cmp	r2, r1
100092f6:	d80b      	bhi.n	10009310 <_malloc_r+0x570>
100092f8:	0c9a      	lsrs	r2, r3, #18
100092fa:	0011      	movs	r1, r2
100092fc:	327d      	adds	r2, #125	; 0x7d
100092fe:	317c      	adds	r1, #124	; 0x7c
10009300:	00d2      	lsls	r2, r2, #3
10009302:	e6dd      	b.n	100090c0 <_malloc_r+0x320>
10009304:	21fe      	movs	r1, #254	; 0xfe
10009306:	237e      	movs	r3, #126	; 0x7e
10009308:	207f      	movs	r0, #127	; 0x7f
1000930a:	4698      	mov	r8, r3
1000930c:	0089      	lsls	r1, r1, #2
1000930e:	e590      	b.n	10008e32 <_malloc_r+0x92>
10009310:	22fe      	movs	r2, #254	; 0xfe
10009312:	217e      	movs	r1, #126	; 0x7e
10009314:	0092      	lsls	r2, r2, #2
10009316:	e6d3      	b.n	100090c0 <_malloc_r+0x320>
10009318:	687b      	ldr	r3, [r7, #4]
1000931a:	e76a      	b.n	100091f2 <_malloc_r+0x452>
1000931c:	20001830 	.word	0x20001830
10009320:	00000554 	.word	0x00000554

10009324 <__malloc_lock>:
10009324:	b510      	push	{r4, lr}
10009326:	4802      	ldr	r0, [pc, #8]	; (10009330 <__malloc_lock+0xc>)
10009328:	f000 f984 	bl	10009634 <__retarget_lock_acquire_recursive>
1000932c:	bd10      	pop	{r4, pc}
1000932e:	46c0      	nop			; (mov r8, r8)
10009330:	2000182c 	.word	0x2000182c

10009334 <__malloc_unlock>:
10009334:	b510      	push	{r4, lr}
10009336:	4802      	ldr	r0, [pc, #8]	; (10009340 <__malloc_unlock+0xc>)
10009338:	f000 f97e 	bl	10009638 <__retarget_lock_release_recursive>
1000933c:	bd10      	pop	{r4, pc}
1000933e:	46c0      	nop			; (mov r8, r8)
10009340:	2000182c 	.word	0x2000182c

10009344 <_sbrk_r>:
10009344:	2300      	movs	r3, #0
10009346:	b570      	push	{r4, r5, r6, lr}
10009348:	4d06      	ldr	r5, [pc, #24]	; (10009364 <_sbrk_r+0x20>)
1000934a:	0004      	movs	r4, r0
1000934c:	0008      	movs	r0, r1
1000934e:	602b      	str	r3, [r5, #0]
10009350:	f7fa faac 	bl	100038ac <_sbrk>
10009354:	1c43      	adds	r3, r0, #1
10009356:	d000      	beq.n	1000935a <_sbrk_r+0x16>
10009358:	bd70      	pop	{r4, r5, r6, pc}
1000935a:	682b      	ldr	r3, [r5, #0]
1000935c:	2b00      	cmp	r3, #0
1000935e:	d0fb      	beq.n	10009358 <_sbrk_r+0x14>
10009360:	6023      	str	r3, [r4, #0]
10009362:	e7f9      	b.n	10009358 <_sbrk_r+0x14>
10009364:	20001f04 	.word	0x20001f04

10009368 <strcpy>:
10009368:	0003      	movs	r3, r0
1000936a:	780a      	ldrb	r2, [r1, #0]
1000936c:	3101      	adds	r1, #1
1000936e:	701a      	strb	r2, [r3, #0]
10009370:	3301      	adds	r3, #1
10009372:	2a00      	cmp	r2, #0
10009374:	d1f9      	bne.n	1000936a <strcpy+0x2>
10009376:	4770      	bx	lr

10009378 <strlen>:
10009378:	b510      	push	{r4, lr}
1000937a:	0783      	lsls	r3, r0, #30
1000937c:	d00a      	beq.n	10009394 <strlen+0x1c>
1000937e:	0003      	movs	r3, r0
10009380:	2103      	movs	r1, #3
10009382:	e002      	b.n	1000938a <strlen+0x12>
10009384:	3301      	adds	r3, #1
10009386:	420b      	tst	r3, r1
10009388:	d005      	beq.n	10009396 <strlen+0x1e>
1000938a:	781a      	ldrb	r2, [r3, #0]
1000938c:	2a00      	cmp	r2, #0
1000938e:	d1f9      	bne.n	10009384 <strlen+0xc>
10009390:	1a18      	subs	r0, r3, r0
10009392:	bd10      	pop	{r4, pc}
10009394:	0003      	movs	r3, r0
10009396:	6819      	ldr	r1, [r3, #0]
10009398:	4a0c      	ldr	r2, [pc, #48]	; (100093cc <strlen+0x54>)
1000939a:	4c0d      	ldr	r4, [pc, #52]	; (100093d0 <strlen+0x58>)
1000939c:	188a      	adds	r2, r1, r2
1000939e:	438a      	bics	r2, r1
100093a0:	4222      	tst	r2, r4
100093a2:	d10f      	bne.n	100093c4 <strlen+0x4c>
100093a4:	6859      	ldr	r1, [r3, #4]
100093a6:	4a09      	ldr	r2, [pc, #36]	; (100093cc <strlen+0x54>)
100093a8:	3304      	adds	r3, #4
100093aa:	188a      	adds	r2, r1, r2
100093ac:	438a      	bics	r2, r1
100093ae:	4222      	tst	r2, r4
100093b0:	d108      	bne.n	100093c4 <strlen+0x4c>
100093b2:	6859      	ldr	r1, [r3, #4]
100093b4:	4a05      	ldr	r2, [pc, #20]	; (100093cc <strlen+0x54>)
100093b6:	3304      	adds	r3, #4
100093b8:	188a      	adds	r2, r1, r2
100093ba:	438a      	bics	r2, r1
100093bc:	4222      	tst	r2, r4
100093be:	d0f1      	beq.n	100093a4 <strlen+0x2c>
100093c0:	e000      	b.n	100093c4 <strlen+0x4c>
100093c2:	3301      	adds	r3, #1
100093c4:	781a      	ldrb	r2, [r3, #0]
100093c6:	2a00      	cmp	r2, #0
100093c8:	d1fb      	bne.n	100093c2 <strlen+0x4a>
100093ca:	e7e1      	b.n	10009390 <strlen+0x18>
100093cc:	fefefeff 	.word	0xfefefeff
100093d0:	80808080 	.word	0x80808080

100093d4 <_malloc_trim_r>:
100093d4:	b5f8      	push	{r3, r4, r5, r6, r7, lr}
100093d6:	000c      	movs	r4, r1
100093d8:	0005      	movs	r5, r0
100093da:	f7ff ffa3 	bl	10009324 <__malloc_lock>
100093de:	4f20      	ldr	r7, [pc, #128]	; (10009460 <_malloc_trim_r+0x8c>)
100093e0:	68bb      	ldr	r3, [r7, #8]
100093e2:	685e      	ldr	r6, [r3, #4]
100093e4:	2303      	movs	r3, #3
100093e6:	439e      	bics	r6, r3
100093e8:	4b1e      	ldr	r3, [pc, #120]	; (10009464 <_malloc_trim_r+0x90>)
100093ea:	1b34      	subs	r4, r6, r4
100093ec:	469c      	mov	ip, r3
100093ee:	4464      	add	r4, ip
100093f0:	0b24      	lsrs	r4, r4, #12
100093f2:	3c01      	subs	r4, #1
100093f4:	3311      	adds	r3, #17
100093f6:	0324      	lsls	r4, r4, #12
100093f8:	429c      	cmp	r4, r3
100093fa:	db07      	blt.n	1000940c <_malloc_trim_r+0x38>
100093fc:	2100      	movs	r1, #0
100093fe:	0028      	movs	r0, r5
10009400:	f7ff ffa0 	bl	10009344 <_sbrk_r>
10009404:	68bb      	ldr	r3, [r7, #8]
10009406:	199b      	adds	r3, r3, r6
10009408:	4298      	cmp	r0, r3
1000940a:	d004      	beq.n	10009416 <_malloc_trim_r+0x42>
1000940c:	0028      	movs	r0, r5
1000940e:	f7ff ff91 	bl	10009334 <__malloc_unlock>
10009412:	2000      	movs	r0, #0
10009414:	bdf8      	pop	{r3, r4, r5, r6, r7, pc}
10009416:	0028      	movs	r0, r5
10009418:	4261      	negs	r1, r4
1000941a:	f7ff ff93 	bl	10009344 <_sbrk_r>
1000941e:	1c43      	adds	r3, r0, #1
10009420:	d00d      	beq.n	1000943e <_malloc_trim_r+0x6a>
10009422:	2201      	movs	r2, #1
10009424:	68bb      	ldr	r3, [r7, #8]
10009426:	1b36      	subs	r6, r6, r4
10009428:	4316      	orrs	r6, r2
1000942a:	605e      	str	r6, [r3, #4]
1000942c:	4b0e      	ldr	r3, [pc, #56]	; (10009468 <_malloc_trim_r+0x94>)
1000942e:	0028      	movs	r0, r5
10009430:	681a      	ldr	r2, [r3, #0]
10009432:	1b14      	subs	r4, r2, r4
10009434:	601c      	str	r4, [r3, #0]
10009436:	f7ff ff7d 	bl	10009334 <__malloc_unlock>
1000943a:	2001      	movs	r0, #1
1000943c:	e7ea      	b.n	10009414 <_malloc_trim_r+0x40>
1000943e:	2100      	movs	r1, #0
10009440:	0028      	movs	r0, r5
10009442:	f7ff ff7f 	bl	10009344 <_sbrk_r>
10009446:	68ba      	ldr	r2, [r7, #8]
10009448:	1a83      	subs	r3, r0, r2
1000944a:	2b0f      	cmp	r3, #15
1000944c:	ddde      	ble.n	1000940c <_malloc_trim_r+0x38>
1000944e:	4907      	ldr	r1, [pc, #28]	; (1000946c <_malloc_trim_r+0x98>)
10009450:	6809      	ldr	r1, [r1, #0]
10009452:	1a40      	subs	r0, r0, r1
10009454:	4904      	ldr	r1, [pc, #16]	; (10009468 <_malloc_trim_r+0x94>)
10009456:	6008      	str	r0, [r1, #0]
10009458:	2101      	movs	r1, #1
1000945a:	430b      	orrs	r3, r1
1000945c:	6053      	str	r3, [r2, #4]
1000945e:	e7d5      	b.n	1000940c <_malloc_trim_r+0x38>
10009460:	20001228 	.word	0x20001228
10009464:	00000fef 	.word	0x00000fef
10009468:	20001830 	.word	0x20001830
1000946c:	20001630 	.word	0x20001630

10009470 <_free_r>:
10009470:	b5f0      	push	{r4, r5, r6, r7, lr}
10009472:	46c6      	mov	lr, r8
10009474:	0005      	movs	r5, r0
10009476:	000c      	movs	r4, r1
10009478:	b500      	push	{lr}
1000947a:	2900      	cmp	r1, #0
1000947c:	d04f      	beq.n	1000951e <_free_r+0xae>
1000947e:	f7ff ff51 	bl	10009324 <__malloc_lock>
10009482:	0021      	movs	r1, r4
10009484:	3908      	subs	r1, #8
10009486:	684c      	ldr	r4, [r1, #4]
10009488:	2601      	movs	r6, #1
1000948a:	0022      	movs	r2, r4
1000948c:	2003      	movs	r0, #3
1000948e:	43b2      	bics	r2, r6
10009490:	188f      	adds	r7, r1, r2
10009492:	687b      	ldr	r3, [r7, #4]
10009494:	4383      	bics	r3, r0
10009496:	4862      	ldr	r0, [pc, #392]	; (10009620 <_free_r+0x1b0>)
10009498:	4698      	mov	r8, r3
1000949a:	6883      	ldr	r3, [r0, #8]
1000949c:	42bb      	cmp	r3, r7
1000949e:	d06a      	beq.n	10009576 <_free_r+0x106>
100094a0:	4643      	mov	r3, r8
100094a2:	607b      	str	r3, [r7, #4]
100094a4:	4226      	tst	r6, r4
100094a6:	d11e      	bne.n	100094e6 <_free_r+0x76>
100094a8:	2308      	movs	r3, #8
100094aa:	469c      	mov	ip, r3
100094ac:	680c      	ldr	r4, [r1, #0]
100094ae:	4484      	add	ip, r0
100094b0:	1b09      	subs	r1, r1, r4
100094b2:	1912      	adds	r2, r2, r4
100094b4:	688c      	ldr	r4, [r1, #8]
100094b6:	4564      	cmp	r4, ip
100094b8:	d04f      	beq.n	1000955a <_free_r+0xea>
100094ba:	68cb      	ldr	r3, [r1, #12]
100094bc:	60e3      	str	r3, [r4, #12]
100094be:	609c      	str	r4, [r3, #8]
100094c0:	4643      	mov	r3, r8
100094c2:	18fc      	adds	r4, r7, r3
100094c4:	6864      	ldr	r4, [r4, #4]
100094c6:	4234      	tst	r4, r6
100094c8:	d111      	bne.n	100094ee <_free_r+0x7e>
100094ca:	68bb      	ldr	r3, [r7, #8]
100094cc:	4c55      	ldr	r4, [pc, #340]	; (10009624 <_free_r+0x1b4>)
100094ce:	4442      	add	r2, r8
100094d0:	42a3      	cmp	r3, r4
100094d2:	d100      	bne.n	100094d6 <_free_r+0x66>
100094d4:	e07e      	b.n	100095d4 <_free_r+0x164>
100094d6:	68fc      	ldr	r4, [r7, #12]
100094d8:	60dc      	str	r4, [r3, #12]
100094da:	60a3      	str	r3, [r4, #8]
100094dc:	2301      	movs	r3, #1
100094de:	4313      	orrs	r3, r2
100094e0:	604b      	str	r3, [r1, #4]
100094e2:	508a      	str	r2, [r1, r2]
100094e4:	e006      	b.n	100094f4 <_free_r+0x84>
100094e6:	18fc      	adds	r4, r7, r3
100094e8:	6864      	ldr	r4, [r4, #4]
100094ea:	4234      	tst	r4, r6
100094ec:	d0ed      	beq.n	100094ca <_free_r+0x5a>
100094ee:	4316      	orrs	r6, r2
100094f0:	604e      	str	r6, [r1, #4]
100094f2:	603a      	str	r2, [r7, #0]
100094f4:	2380      	movs	r3, #128	; 0x80
100094f6:	009b      	lsls	r3, r3, #2
100094f8:	429a      	cmp	r2, r3
100094fa:	d213      	bcs.n	10009524 <_free_r+0xb4>
100094fc:	0954      	lsrs	r4, r2, #5
100094fe:	08d3      	lsrs	r3, r2, #3
10009500:	2201      	movs	r2, #1
10009502:	40a2      	lsls	r2, r4
10009504:	6844      	ldr	r4, [r0, #4]
10009506:	00db      	lsls	r3, r3, #3
10009508:	4322      	orrs	r2, r4
1000950a:	6042      	str	r2, [r0, #4]
1000950c:	1818      	adds	r0, r3, r0
1000950e:	6883      	ldr	r3, [r0, #8]
10009510:	60c8      	str	r0, [r1, #12]
10009512:	608b      	str	r3, [r1, #8]
10009514:	6081      	str	r1, [r0, #8]
10009516:	60d9      	str	r1, [r3, #12]
10009518:	0028      	movs	r0, r5
1000951a:	f7ff ff0b 	bl	10009334 <__malloc_unlock>
1000951e:	bc80      	pop	{r7}
10009520:	46b8      	mov	r8, r7
10009522:	bdf0      	pop	{r4, r5, r6, r7, pc}
10009524:	0a53      	lsrs	r3, r2, #9
10009526:	2b04      	cmp	r3, #4
10009528:	d83e      	bhi.n	100095a8 <_free_r+0x138>
1000952a:	0994      	lsrs	r4, r2, #6
1000952c:	0026      	movs	r6, r4
1000952e:	3439      	adds	r4, #57	; 0x39
10009530:	3638      	adds	r6, #56	; 0x38
10009532:	00e4      	lsls	r4, r4, #3
10009534:	1904      	adds	r4, r0, r4
10009536:	6823      	ldr	r3, [r4, #0]
10009538:	3c08      	subs	r4, #8
1000953a:	2703      	movs	r7, #3
1000953c:	429c      	cmp	r4, r3
1000953e:	d042      	beq.n	100095c6 <_free_r+0x156>
10009540:	6858      	ldr	r0, [r3, #4]
10009542:	43b8      	bics	r0, r7
10009544:	4290      	cmp	r0, r2
10009546:	d902      	bls.n	1000954e <_free_r+0xde>
10009548:	689b      	ldr	r3, [r3, #8]
1000954a:	429c      	cmp	r4, r3
1000954c:	d1f8      	bne.n	10009540 <_free_r+0xd0>
1000954e:	68dc      	ldr	r4, [r3, #12]
10009550:	60cc      	str	r4, [r1, #12]
10009552:	608b      	str	r3, [r1, #8]
10009554:	60a1      	str	r1, [r4, #8]
10009556:	60d9      	str	r1, [r3, #12]
10009558:	e7de      	b.n	10009518 <_free_r+0xa8>
1000955a:	4643      	mov	r3, r8
1000955c:	18f8      	adds	r0, r7, r3
1000955e:	6840      	ldr	r0, [r0, #4]
10009560:	4230      	tst	r0, r6
10009562:	d157      	bne.n	10009614 <_free_r+0x1a4>
10009564:	68fb      	ldr	r3, [r7, #12]
10009566:	68b8      	ldr	r0, [r7, #8]
10009568:	4442      	add	r2, r8
1000956a:	4316      	orrs	r6, r2
1000956c:	60c3      	str	r3, [r0, #12]
1000956e:	6098      	str	r0, [r3, #8]
10009570:	604e      	str	r6, [r1, #4]
10009572:	508a      	str	r2, [r1, r2]
10009574:	e7d0      	b.n	10009518 <_free_r+0xa8>
10009576:	0013      	movs	r3, r2
10009578:	4443      	add	r3, r8
1000957a:	4226      	tst	r6, r4
1000957c:	d106      	bne.n	1000958c <_free_r+0x11c>
1000957e:	680a      	ldr	r2, [r1, #0]
10009580:	1a89      	subs	r1, r1, r2
10009582:	688c      	ldr	r4, [r1, #8]
10009584:	189b      	adds	r3, r3, r2
10009586:	68ca      	ldr	r2, [r1, #12]
10009588:	60e2      	str	r2, [r4, #12]
1000958a:	6094      	str	r4, [r2, #8]
1000958c:	2201      	movs	r2, #1
1000958e:	431a      	orrs	r2, r3
10009590:	604a      	str	r2, [r1, #4]
10009592:	4a25      	ldr	r2, [pc, #148]	; (10009628 <_free_r+0x1b8>)
10009594:	6081      	str	r1, [r0, #8]
10009596:	6812      	ldr	r2, [r2, #0]
10009598:	429a      	cmp	r2, r3
1000959a:	d8bd      	bhi.n	10009518 <_free_r+0xa8>
1000959c:	4b23      	ldr	r3, [pc, #140]	; (1000962c <_free_r+0x1bc>)
1000959e:	0028      	movs	r0, r5
100095a0:	6819      	ldr	r1, [r3, #0]
100095a2:	f7ff ff17 	bl	100093d4 <_malloc_trim_r>
100095a6:	e7b7      	b.n	10009518 <_free_r+0xa8>
100095a8:	2b14      	cmp	r3, #20
100095aa:	d907      	bls.n	100095bc <_free_r+0x14c>
100095ac:	2b54      	cmp	r3, #84	; 0x54
100095ae:	d81a      	bhi.n	100095e6 <_free_r+0x176>
100095b0:	0b14      	lsrs	r4, r2, #12
100095b2:	0026      	movs	r6, r4
100095b4:	346f      	adds	r4, #111	; 0x6f
100095b6:	366e      	adds	r6, #110	; 0x6e
100095b8:	00e4      	lsls	r4, r4, #3
100095ba:	e7bb      	b.n	10009534 <_free_r+0xc4>
100095bc:	001e      	movs	r6, r3
100095be:	335c      	adds	r3, #92	; 0x5c
100095c0:	365b      	adds	r6, #91	; 0x5b
100095c2:	00dc      	lsls	r4, r3, #3
100095c4:	e7b6      	b.n	10009534 <_free_r+0xc4>
100095c6:	2201      	movs	r2, #1
100095c8:	10b6      	asrs	r6, r6, #2
100095ca:	40b2      	lsls	r2, r6
100095cc:	6846      	ldr	r6, [r0, #4]
100095ce:	4332      	orrs	r2, r6
100095d0:	6042      	str	r2, [r0, #4]
100095d2:	e7bd      	b.n	10009550 <_free_r+0xe0>
100095d4:	60d9      	str	r1, [r3, #12]
100095d6:	6099      	str	r1, [r3, #8]
100095d8:	60cb      	str	r3, [r1, #12]
100095da:	608b      	str	r3, [r1, #8]
100095dc:	2301      	movs	r3, #1
100095de:	4313      	orrs	r3, r2
100095e0:	604b      	str	r3, [r1, #4]
100095e2:	508a      	str	r2, [r1, r2]
100095e4:	e798      	b.n	10009518 <_free_r+0xa8>
100095e6:	24aa      	movs	r4, #170	; 0xaa
100095e8:	0064      	lsls	r4, r4, #1
100095ea:	42a3      	cmp	r3, r4
100095ec:	d805      	bhi.n	100095fa <_free_r+0x18a>
100095ee:	0bd4      	lsrs	r4, r2, #15
100095f0:	0026      	movs	r6, r4
100095f2:	3478      	adds	r4, #120	; 0x78
100095f4:	3677      	adds	r6, #119	; 0x77
100095f6:	00e4      	lsls	r4, r4, #3
100095f8:	e79c      	b.n	10009534 <_free_r+0xc4>
100095fa:	4c0d      	ldr	r4, [pc, #52]	; (10009630 <_free_r+0x1c0>)
100095fc:	42a3      	cmp	r3, r4
100095fe:	d805      	bhi.n	1000960c <_free_r+0x19c>
10009600:	0c94      	lsrs	r4, r2, #18
10009602:	0026      	movs	r6, r4
10009604:	347d      	adds	r4, #125	; 0x7d
10009606:	367c      	adds	r6, #124	; 0x7c
10009608:	00e4      	lsls	r4, r4, #3
1000960a:	e793      	b.n	10009534 <_free_r+0xc4>
1000960c:	24fe      	movs	r4, #254	; 0xfe
1000960e:	267e      	movs	r6, #126	; 0x7e
10009610:	00a4      	lsls	r4, r4, #2
10009612:	e78f      	b.n	10009534 <_free_r+0xc4>
10009614:	0033      	movs	r3, r6
10009616:	4313      	orrs	r3, r2
10009618:	604b      	str	r3, [r1, #4]
1000961a:	603a      	str	r2, [r7, #0]
1000961c:	e77c      	b.n	10009518 <_free_r+0xa8>
1000961e:	46c0      	nop			; (mov r8, r8)
10009620:	20001228 	.word	0x20001228
10009624:	20001230 	.word	0x20001230
10009628:	20001634 	.word	0x20001634
1000962c:	20001860 	.word	0x20001860
10009630:	00000554 	.word	0x00000554

10009634 <__retarget_lock_acquire_recursive>:
10009634:	4770      	bx	lr
10009636:	46c0      	nop			; (mov r8, r8)

10009638 <__retarget_lock_release_recursive>:
10009638:	4770      	bx	lr
1000963a:	46c0      	nop			; (mov r8, r8)

1000963c <_fini>:
1000963c:	b5f8      	push	{r3, r4, r5, r6, r7, lr}
1000963e:	46c0      	nop			; (mov r8, r8)

10009640 <__sem_release_veneer>:
10009640:	b401      	push	{r0}
10009642:	4802      	ldr	r0, [pc, #8]	; (1000964c <__sem_release_veneer+0xc>)
10009644:	4684      	mov	ip, r0
10009646:	bc01      	pop	{r0}
10009648:	4760      	bx	ip
1000964a:	bf00      	nop
1000964c:	20000101 	.word	0x20000101

10009650 <__flash_do_cmd_veneer>:
10009650:	b401      	push	{r0}
10009652:	4802      	ldr	r0, [pc, #8]	; (1000965c <__flash_do_cmd_veneer+0xc>)
10009654:	4684      	mov	ip, r0
10009656:	bc01      	pop	{r0}
10009658:	4760      	bx	ip
1000965a:	bf00      	nop
1000965c:	200003b5 	.word	0x200003b5

10009660 <__mutex_exit_veneer>:
10009660:	b401      	push	{r0}
10009662:	4802      	ldr	r0, [pc, #8]	; (1000966c <__mutex_exit_veneer+0xc>)
10009664:	4684      	mov	ip, r0
10009666:	bc01      	pop	{r0}
10009668:	4760      	bx	ip
1000966a:	bf00      	nop
1000966c:	20000301 	.word	0x20000301

10009670 <__e15_is_critical_frame_period_veneer>:
10009670:	b401      	push	{r0}
10009672:	4802      	ldr	r0, [pc, #8]	; (1000967c <__e15_is_critical_frame_period_veneer+0xc>)
10009674:	4684      	mov	ip, r0
10009676:	bc01      	pop	{r0}
10009678:	4760      	bx	ip
1000967a:	bf00      	nop
1000967c:	20000769 	.word	0x20000769

10009680 <____aeabi_ldiv0_veneer>:
10009680:	b401      	push	{r0}
10009682:	4802      	ldr	r0, [pc, #8]	; (1000968c <____aeabi_ldiv0_veneer+0xc>)
10009684:	4684      	mov	ip, r0
10009686:	bc01      	pop	{r0}
10009688:	4760      	bx	ip
1000968a:	bf00      	nop
1000968c:	20000bed 	.word	0x20000bed

10009690 <__reset_non_control_endpoints_veneer>:
10009690:	b401      	push	{r0}
10009692:	4802      	ldr	r0, [pc, #8]	; (1000969c <__reset_non_control_endpoints_veneer+0xc>)
10009694:	4684      	mov	ip, r0
10009696:	bc01      	pop	{r0}
10009698:	4760      	bx	ip
1000969a:	bf00      	nop
1000969c:	2000048d 	.word	0x2000048d

100096a0 <____aeabi_idiv0_veneer>:
100096a0:	b401      	push	{r0}
100096a2:	4802      	ldr	r0, [pc, #8]	; (100096ac <____aeabi_idiv0_veneer+0xc>)
100096a4:	4684      	mov	ip, r0
100096a6:	bc01      	pop	{r0}
100096a8:	4760      	bx	ip
100096aa:	bf00      	nop
100096ac:	20000bed 	.word	0x20000bed

100096b0 <__sem_acquire_blocking_veneer>:
100096b0:	b401      	push	{r0}
100096b2:	4802      	ldr	r0, [pc, #8]	; (100096bc <__sem_acquire_blocking_veneer+0xc>)
100096b4:	4684      	mov	ip, r0
100096b6:	bc01      	pop	{r0}
100096b8:	4760      	bx	ip
100096ba:	bf00      	nop
100096bc:	200000c1 	.word	0x200000c1

100096c0 <__mutex_try_enter_veneer>:
100096c0:	b401      	push	{r0}
100096c2:	4802      	ldr	r0, [pc, #8]	; (100096cc <__mutex_try_enter_veneer+0xc>)
100096c4:	4684      	mov	ip, r0
100096c6:	bc01      	pop	{r0}
100096c8:	4760      	bx	ip
100096ca:	bf00      	nop
100096cc:	20000193 	.word	0x20000193

100096d0 <__mutex_enter_timeout_ms_veneer>:
100096d0:	b401      	push	{r0}
100096d2:	4802      	ldr	r0, [pc, #8]	; (100096dc <__mutex_enter_timeout_ms_veneer+0xc>)
100096d4:	4684      	mov	ip, r0
100096d6:	bc01      	pop	{r0}
100096d8:	4760      	bx	ip
100096da:	bf00      	nop
100096dc:	20000299 	.word	0x20000299

100096e0 <__dcd_event_handler_veneer>:
100096e0:	b401      	push	{r0}
100096e2:	4802      	ldr	r0, [pc, #8]	; (100096ec <__dcd_event_handler_veneer+0xc>)
100096e4:	4684      	mov	ip, r0
100096e6:	bc01      	pop	{r0}
100096e8:	4760      	bx	ip
100096ea:	bf00      	nop
100096ec:	200009ed 	.word	0x200009ed

100096f0 <__e15_is_bulkin_ep_veneer>:
100096f0:	b401      	push	{r0}
100096f2:	4802      	ldr	r0, [pc, #8]	; (100096fc <__e15_is_bulkin_ep_veneer+0xc>)
100096f4:	4684      	mov	ip, r0
100096f6:	bc01      	pop	{r0}
100096f8:	4760      	bx	ip
100096fa:	bf00      	nop
100096fc:	2000073d 	.word	0x2000073d

10009700 <__mutex_try_enter_block_until_veneer>:
10009700:	b401      	push	{r0}
10009702:	4802      	ldr	r0, [pc, #8]	; (1000970c <__mutex_try_enter_block_until_veneer+0xc>)
10009704:	4684      	mov	ip, r0
10009706:	bc01      	pop	{r0}
10009708:	4760      	bx	ip
1000970a:	bf00      	nop
1000970c:	20000265 	.word	0x20000265

10009710 <__hw_endpoint_start_next_buffer_veneer>:
10009710:	b401      	push	{r0}
10009712:	4802      	ldr	r0, [pc, #8]	; (1000971c <__hw_endpoint_start_next_buffer_veneer+0xc>)
10009714:	4684      	mov	ip, r0
10009716:	bc01      	pop	{r0}
10009718:	4760      	bx	ip
1000971a:	bf00      	nop
1000971c:	20000915 	.word	0x20000915

10009720 <__hw_endpoint_reset_transfer_veneer>:
10009720:	b401      	push	{r0}
10009722:	4802      	ldr	r0, [pc, #8]	; (1000972c <__hw_endpoint_reset_transfer_veneer+0xc>)
10009724:	4684      	mov	ip, r0
10009726:	bc01      	pop	{r0}
10009728:	4760      	bx	ip
1000972a:	bf00      	nop
1000972c:	200008b1 	.word	0x200008b1

10009730 <___hw_endpoint_buffer_control_update32_veneer>:
10009730:	b401      	push	{r0}
10009732:	4802      	ldr	r0, [pc, #8]	; (1000973c <___hw_endpoint_buffer_control_update32_veneer+0xc>)
10009734:	4684      	mov	ip, r0
10009736:	bc01      	pop	{r0}
10009738:	4760      	bx	ip
1000973a:	bf00      	nop
1000973c:	200008bd 	.word	0x200008bd

10009740 <__mutex_enter_blocking_veneer>:
10009740:	b401      	push	{r0}
10009742:	4802      	ldr	r0, [pc, #8]	; (1000974c <__mutex_enter_blocking_veneer+0xc>)
10009744:	4684      	mov	ip, r0
10009746:	bc01      	pop	{r0}
10009748:	4760      	bx	ip
1000974a:	bf00      	nop
1000974c:	2000014b 	.word	0x2000014b

Disassembly of section .data:

200000c0 <sem_acquire_blocking>:
200000c0:	6802      	ldr	r2, [r0, #0]
200000c2:	f3ef 8110 	mrs	r1, PRIMASK
200000c6:	b672      	cpsid	i
200000c8:	6813      	ldr	r3, [r2, #0]
200000ca:	2b00      	cmp	r3, #0
200000cc:	d0fc      	beq.n	200000c8 <sem_acquire_blocking+0x8>
200000ce:	f3bf 8f5f 	dmb	sy
200000d2:	2204      	movs	r2, #4
200000d4:	5e83      	ldrsh	r3, [r0, r2]
200000d6:	2b00      	cmp	r3, #0
200000d8:	dc08      	bgt.n	200000ec <sem_acquire_blocking+0x2c>
200000da:	6803      	ldr	r3, [r0, #0]
200000dc:	f3bf 8f5f 	dmb	sy
200000e0:	2200      	movs	r2, #0
200000e2:	601a      	str	r2, [r3, #0]
200000e4:	f381 8810 	msr	PRIMASK, r1
200000e8:	bf20      	wfe
200000ea:	e7e9      	b.n	200000c0 <sem_acquire_blocking>
200000ec:	3b01      	subs	r3, #1
200000ee:	8083      	strh	r3, [r0, #4]
200000f0:	6803      	ldr	r3, [r0, #0]
200000f2:	f3bf 8f5f 	dmb	sy
200000f6:	2200      	movs	r2, #0
200000f8:	601a      	str	r2, [r3, #0]
200000fa:	f381 8810 	msr	PRIMASK, r1
200000fe:	4770      	bx	lr

20000100 <sem_release>:
20000100:	b510      	push	{r4, lr}
20000102:	6802      	ldr	r2, [r0, #0]
20000104:	f3ef 8110 	mrs	r1, PRIMASK
20000108:	b672      	cpsid	i
2000010a:	6813      	ldr	r3, [r2, #0]
2000010c:	2b00      	cmp	r3, #0
2000010e:	d0fc      	beq.n	2000010a <sem_release+0xa>
20000110:	f3bf 8f5f 	dmb	sy
20000114:	2204      	movs	r2, #4
20000116:	5e83      	ldrsh	r3, [r0, r2]
20000118:	2406      	movs	r4, #6
2000011a:	5f02      	ldrsh	r2, [r0, r4]
2000011c:	4293      	cmp	r3, r2
2000011e:	da0b      	bge.n	20000138 <sem_release+0x38>
20000120:	3301      	adds	r3, #1
20000122:	8083      	strh	r3, [r0, #4]
20000124:	6803      	ldr	r3, [r0, #0]
20000126:	f3bf 8f5f 	dmb	sy
2000012a:	2200      	movs	r2, #0
2000012c:	601a      	str	r2, [r3, #0]
2000012e:	f381 8810 	msr	PRIMASK, r1
20000132:	bf40      	sev
20000134:	2001      	movs	r0, #1
20000136:	bd10      	pop	{r4, pc}
20000138:	6803      	ldr	r3, [r0, #0]
2000013a:	f3bf 8f5f 	dmb	sy
2000013e:	2200      	movs	r2, #0
20000140:	601a      	str	r2, [r3, #0]
20000142:	f381 8810 	msr	PRIMASK, r1
20000146:	2000      	movs	r0, #0
20000148:	e7f5      	b.n	20000136 <sem_release+0x36>

2000014a <mutex_enter_blocking>:
2000014a:	b510      	push	{r4, lr}
2000014c:	23d0      	movs	r3, #208	; 0xd0
2000014e:	061b      	lsls	r3, r3, #24
20000150:	2400      	movs	r4, #0
20000152:	571c      	ldrsb	r4, [r3, r4]
20000154:	6802      	ldr	r2, [r0, #0]
20000156:	f3ef 8110 	mrs	r1, PRIMASK
2000015a:	b672      	cpsid	i
2000015c:	6813      	ldr	r3, [r2, #0]
2000015e:	2b00      	cmp	r3, #0
20000160:	d0fc      	beq.n	2000015c <mutex_enter_blocking+0x12>
20000162:	f3bf 8f5f 	dmb	sy
20000166:	2304      	movs	r3, #4
20000168:	56c3      	ldrsb	r3, [r0, r3]
2000016a:	2b00      	cmp	r3, #0
2000016c:	db08      	blt.n	20000180 <mutex_enter_blocking+0x36>
2000016e:	6803      	ldr	r3, [r0, #0]
20000170:	f3bf 8f5f 	dmb	sy
20000174:	2200      	movs	r2, #0
20000176:	601a      	str	r2, [r3, #0]
20000178:	f381 8810 	msr	PRIMASK, r1
2000017c:	bf20      	wfe
2000017e:	e7e9      	b.n	20000154 <mutex_enter_blocking+0xa>
20000180:	7104      	strb	r4, [r0, #4]
20000182:	6803      	ldr	r3, [r0, #0]
20000184:	f3bf 8f5f 	dmb	sy
20000188:	2200      	movs	r2, #0
2000018a:	601a      	str	r2, [r3, #0]
2000018c:	f381 8810 	msr	PRIMASK, r1
20000190:	bd10      	pop	{r4, pc}

20000192 <mutex_try_enter>:
20000192:	0003      	movs	r3, r0
20000194:	6800      	ldr	r0, [r0, #0]
20000196:	f3ef 8c10 	mrs	ip, PRIMASK
2000019a:	b672      	cpsid	i
2000019c:	6802      	ldr	r2, [r0, #0]
2000019e:	2a00      	cmp	r2, #0
200001a0:	d0fc      	beq.n	2000019c <mutex_try_enter+0xa>
200001a2:	f3bf 8f5f 	dmb	sy
200001a6:	2204      	movs	r2, #4
200001a8:	569a      	ldrsb	r2, [r3, r2]
200001aa:	2a00      	cmp	r2, #0
200001ac:	db0b      	blt.n	200001c6 <mutex_try_enter+0x34>
200001ae:	2900      	cmp	r1, #0
200001b0:	d010      	beq.n	200001d4 <mutex_try_enter+0x42>
200001b2:	600a      	str	r2, [r1, #0]
200001b4:	2000      	movs	r0, #0
200001b6:	681b      	ldr	r3, [r3, #0]
200001b8:	f3bf 8f5f 	dmb	sy
200001bc:	2200      	movs	r2, #0
200001be:	601a      	str	r2, [r3, #0]
200001c0:	f38c 8810 	msr	PRIMASK, ip
200001c4:	4770      	bx	lr
200001c6:	22d0      	movs	r2, #208	; 0xd0
200001c8:	0612      	lsls	r2, r2, #24
200001ca:	7812      	ldrb	r2, [r2, #0]
200001cc:	b252      	sxtb	r2, r2
200001ce:	711a      	strb	r2, [r3, #4]
200001d0:	2001      	movs	r0, #1
200001d2:	e7f0      	b.n	200001b6 <mutex_try_enter+0x24>
200001d4:	2000      	movs	r0, #0
200001d6:	e7ee      	b.n	200001b6 <mutex_try_enter+0x24>

200001d8 <mutex_enter_block_until>:
200001d8:	b5f8      	push	{r3, r4, r5, r6, r7, lr}
200001da:	46ce      	mov	lr, r9
200001dc:	4647      	mov	r7, r8
200001de:	b580      	push	{r7, lr}
200001e0:	0004      	movs	r4, r0
200001e2:	0017      	movs	r7, r2
200001e4:	4698      	mov	r8, r3
200001e6:	6803      	ldr	r3, [r0, #0]
200001e8:	2b00      	cmp	r3, #0
200001ea:	d020      	beq.n	2000022e <mutex_enter_block_until+0x56>
200001ec:	23d0      	movs	r3, #208	; 0xd0
200001ee:	061b      	lsls	r3, r3, #24
200001f0:	781b      	ldrb	r3, [r3, #0]
200001f2:	b25b      	sxtb	r3, r3
200001f4:	4699      	mov	r9, r3
200001f6:	6826      	ldr	r6, [r4, #0]
200001f8:	f3ef 8c10 	mrs	ip, PRIMASK
200001fc:	b672      	cpsid	i
200001fe:	6835      	ldr	r5, [r6, #0]
20000200:	2d00      	cmp	r5, #0
20000202:	d0fc      	beq.n	200001fe <mutex_enter_block_until+0x26>
20000204:	f3bf 8f5f 	dmb	sy
20000208:	2504      	movs	r5, #4
2000020a:	5765      	ldrsb	r5, [r4, r5]
2000020c:	2d00      	cmp	r5, #0
2000020e:	db14      	blt.n	2000023a <mutex_enter_block_until+0x62>
20000210:	6823      	ldr	r3, [r4, #0]
20000212:	f3bf 8f5f 	dmb	sy
20000216:	2200      	movs	r2, #0
20000218:	601a      	str	r2, [r3, #0]
2000021a:	f38c 8810 	msr	PRIMASK, ip
2000021e:	0038      	movs	r0, r7
20000220:	4641      	mov	r1, r8
20000222:	f000 fce5 	bl	20000bf0 <__best_effort_wfe_or_timeout_veneer>
20000226:	2800      	cmp	r0, #0
20000228:	d0e5      	beq.n	200001f6 <mutex_enter_block_until+0x1e>
2000022a:	2000      	movs	r0, #0
2000022c:	e00f      	b.n	2000024e <mutex_enter_block_until+0x76>
2000022e:	4b0a      	ldr	r3, [pc, #40]	; (20000258 <mutex_enter_block_until+0x80>)
20000230:	4a0a      	ldr	r2, [pc, #40]	; (2000025c <mutex_enter_block_until+0x84>)
20000232:	2185      	movs	r1, #133	; 0x85
20000234:	480a      	ldr	r0, [pc, #40]	; (20000260 <mutex_enter_block_until+0x88>)
20000236:	f000 fceb 	bl	20000c10 <____assert_func_veneer>
2000023a:	464b      	mov	r3, r9
2000023c:	7123      	strb	r3, [r4, #4]
2000023e:	6823      	ldr	r3, [r4, #0]
20000240:	f3bf 8f5f 	dmb	sy
20000244:	2200      	movs	r2, #0
20000246:	601a      	str	r2, [r3, #0]
20000248:	f38c 8810 	msr	PRIMASK, ip
2000024c:	2001      	movs	r0, #1
2000024e:	bcc0      	pop	{r6, r7}
20000250:	46b9      	mov	r9, r7
20000252:	46b0      	mov	r8, r6
20000254:	bdf8      	pop	{r3, r4, r5, r6, r7, pc}
20000256:	46c0      	nop			; (mov r8, r8)
20000258:	10009c1c 	.word	0x10009c1c
2000025c:	10009cf4 	.word	0x10009cf4
20000260:	10009bc8 	.word	0x10009bc8

20000264 <mutex_try_enter_block_until>:
20000264:	b570      	push	{r4, r5, r6, lr}
20000266:	b082      	sub	sp, #8
20000268:	0006      	movs	r6, r0
2000026a:	0015      	movs	r5, r2
2000026c:	001c      	movs	r4, r3
2000026e:	a901      	add	r1, sp, #4
20000270:	f7ff ff8f 	bl	20000192 <mutex_try_enter>
20000274:	2800      	cmp	r0, #0
20000276:	d107      	bne.n	20000288 <mutex_try_enter_block_until+0x24>
20000278:	9b01      	ldr	r3, [sp, #4]
2000027a:	b25b      	sxtb	r3, r3
2000027c:	22d0      	movs	r2, #208	; 0xd0
2000027e:	0612      	lsls	r2, r2, #24
20000280:	7812      	ldrb	r2, [r2, #0]
20000282:	b252      	sxtb	r2, r2
20000284:	4293      	cmp	r3, r2
20000286:	d101      	bne.n	2000028c <mutex_try_enter_block_until+0x28>
20000288:	b002      	add	sp, #8
2000028a:	bd70      	pop	{r4, r5, r6, pc}
2000028c:	002a      	movs	r2, r5
2000028e:	0023      	movs	r3, r4
20000290:	0030      	movs	r0, r6
20000292:	f7ff ffa1 	bl	200001d8 <mutex_enter_block_until>
20000296:	e7f7      	b.n	20000288 <mutex_try_enter_block_until+0x24>

20000298 <mutex_enter_timeout_ms>:
20000298:	b5f8      	push	{r3, r4, r5, r6, r7, lr}
2000029a:	0006      	movs	r6, r0
2000029c:	000f      	movs	r7, r1
2000029e:	f000 fcc7 	bl	20000c30 <__time_us_64_veneer>
200002a2:	0004      	movs	r4, r0
200002a4:	1e0d      	subs	r5, r1, #0
200002a6:	db12      	blt.n	200002ce <mutex_enter_timeout_ms+0x36>
200002a8:	22fa      	movs	r2, #250	; 0xfa
200002aa:	0092      	lsls	r2, r2, #2
200002ac:	2300      	movs	r3, #0
200002ae:	0038      	movs	r0, r7
200002b0:	2100      	movs	r1, #0
200002b2:	f000 fcc5 	bl	20000c40 <____wrap___aeabi_lmul_veneer>
200002b6:	0022      	movs	r2, r4
200002b8:	002b      	movs	r3, r5
200002ba:	1812      	adds	r2, r2, r0
200002bc:	414b      	adcs	r3, r1
200002be:	2b00      	cmp	r3, #0
200002c0:	db0b      	blt.n	200002da <mutex_enter_timeout_ms+0x42>
200002c2:	2b00      	cmp	r3, #0
200002c4:	db0d      	blt.n	200002e2 <mutex_enter_timeout_ms+0x4a>
200002c6:	0030      	movs	r0, r6
200002c8:	f7ff ff86 	bl	200001d8 <mutex_enter_block_until>
200002cc:	bdf8      	pop	{r3, r4, r5, r6, r7, pc}
200002ce:	4b08      	ldr	r3, [pc, #32]	; (200002f0 <mutex_enter_timeout_ms+0x58>)
200002d0:	4a08      	ldr	r2, [pc, #32]	; (200002f4 <mutex_enter_timeout_ms+0x5c>)
200002d2:	213f      	movs	r1, #63	; 0x3f
200002d4:	4808      	ldr	r0, [pc, #32]	; (200002f8 <mutex_enter_timeout_ms+0x60>)
200002d6:	f000 fc9b 	bl	20000c10 <____assert_func_veneer>
200002da:	2201      	movs	r2, #1
200002dc:	4252      	negs	r2, r2
200002de:	4b07      	ldr	r3, [pc, #28]	; (200002fc <mutex_enter_timeout_ms+0x64>)
200002e0:	e7ef      	b.n	200002c2 <mutex_enter_timeout_ms+0x2a>
200002e2:	4b03      	ldr	r3, [pc, #12]	; (200002f0 <mutex_enter_timeout_ms+0x58>)
200002e4:	4a03      	ldr	r2, [pc, #12]	; (200002f4 <mutex_enter_timeout_ms+0x5c>)
200002e6:	213f      	movs	r1, #63	; 0x3f
200002e8:	4803      	ldr	r0, [pc, #12]	; (200002f8 <mutex_enter_timeout_ms+0x60>)
200002ea:	f000 fc91 	bl	20000c10 <____assert_func_veneer>
200002ee:	46c0      	nop			; (mov r8, r8)
200002f0:	10009c30 	.word	0x10009c30
200002f4:	10009d0c 	.word	0x10009d0c
200002f8:	10009c4c 	.word	0x10009c4c
200002fc:	7fffffff 	.word	0x7fffffff

20000300 <mutex_exit>:
20000300:	b510      	push	{r4, lr}
20000302:	6802      	ldr	r2, [r0, #0]
20000304:	f3ef 8110 	mrs	r1, PRIMASK
20000308:	b672      	cpsid	i
2000030a:	6813      	ldr	r3, [r2, #0]
2000030c:	2b00      	cmp	r3, #0
2000030e:	d0fc      	beq.n	2000030a <mutex_exit+0xa>
20000310:	f3bf 8f5f 	dmb	sy
20000314:	2304      	movs	r3, #4
20000316:	56c3      	ldrsb	r3, [r0, r3]
20000318:	2b00      	cmp	r3, #0
2000031a:	db0a      	blt.n	20000332 <mutex_exit+0x32>
2000031c:	23ff      	movs	r3, #255	; 0xff
2000031e:	7103      	strb	r3, [r0, #4]
20000320:	6803      	ldr	r3, [r0, #0]
20000322:	f3bf 8f5f 	dmb	sy
20000326:	2200      	movs	r2, #0
20000328:	601a      	str	r2, [r3, #0]
2000032a:	f381 8810 	msr	PRIMASK, r1
2000032e:	bf40      	sev
20000330:	bd10      	pop	{r4, pc}
20000332:	4b03      	ldr	r3, [pc, #12]	; (20000340 <mutex_exit+0x40>)
20000334:	4a03      	ldr	r2, [pc, #12]	; (20000344 <mutex_exit+0x44>)
20000336:	21b4      	movs	r1, #180	; 0xb4
20000338:	4803      	ldr	r0, [pc, #12]	; (20000348 <mutex_exit+0x48>)
2000033a:	f000 fc69 	bl	20000c10 <____assert_func_veneer>
2000033e:	46c0      	nop			; (mov r8, r8)
20000340:	10009cb0 	.word	0x10009cb0
20000344:	10009ce8 	.word	0x10009ce8
20000348:	10009bc8 	.word	0x10009bc8

2000034c <flash_init_boot2_copyout>:
2000034c:	4b09      	ldr	r3, [pc, #36]	; (20000374 <flash_init_boot2_copyout+0x28>)
2000034e:	781b      	ldrb	r3, [r3, #0]
20000350:	2b00      	cmp	r3, #0
20000352:	d008      	beq.n	20000366 <flash_init_boot2_copyout+0x1a>
20000354:	e00c      	b.n	20000370 <flash_init_boot2_copyout+0x24>
20000356:	009a      	lsls	r2, r3, #2
20000358:	2180      	movs	r1, #128	; 0x80
2000035a:	0549      	lsls	r1, r1, #21
2000035c:	1851      	adds	r1, r2, r1
2000035e:	6808      	ldr	r0, [r1, #0]
20000360:	4905      	ldr	r1, [pc, #20]	; (20000378 <flash_init_boot2_copyout+0x2c>)
20000362:	5050      	str	r0, [r2, r1]
20000364:	3301      	adds	r3, #1
20000366:	2b3f      	cmp	r3, #63	; 0x3f
20000368:	ddf5      	ble.n	20000356 <flash_init_boot2_copyout+0xa>
2000036a:	4b02      	ldr	r3, [pc, #8]	; (20000374 <flash_init_boot2_copyout+0x28>)
2000036c:	2201      	movs	r2, #1
2000036e:	701a      	strb	r2, [r3, #0]
20000370:	4770      	bx	lr
20000372:	46c0      	nop			; (mov r8, r8)
20000374:	2000258b 	.word	0x2000258b
20000378:	20001cb8 	.word	0x20001cb8

2000037c <flash_enable_xip_via_boot2>:
2000037c:	b510      	push	{r4, lr}
2000037e:	4b02      	ldr	r3, [pc, #8]	; (20000388 <flash_enable_xip_via_boot2+0xc>)
20000380:	3301      	adds	r3, #1
20000382:	4798      	blx	r3
20000384:	bd10      	pop	{r4, pc}
20000386:	46c0      	nop			; (mov r8, r8)
20000388:	20001cb8 	.word	0x20001cb8

2000038c <flash_cs_force>:
2000038c:	2800      	cmp	r0, #0
2000038e:	d00a      	beq.n	200003a6 <flash_cs_force+0x1a>
20000390:	2303      	movs	r3, #3
20000392:	021b      	lsls	r3, r3, #8
20000394:	4a05      	ldr	r2, [pc, #20]	; (200003ac <flash_cs_force+0x20>)
20000396:	6812      	ldr	r2, [r2, #0]
20000398:	4053      	eors	r3, r2
2000039a:	22c0      	movs	r2, #192	; 0xc0
2000039c:	0092      	lsls	r2, r2, #2
2000039e:	4013      	ands	r3, r2
200003a0:	4a03      	ldr	r2, [pc, #12]	; (200003b0 <flash_cs_force+0x24>)
200003a2:	6013      	str	r3, [r2, #0]
200003a4:	4770      	bx	lr
200003a6:	2302      	movs	r3, #2
200003a8:	e7f3      	b.n	20000392 <flash_cs_force+0x6>
200003aa:	46c0      	nop			; (mov r8, r8)
200003ac:	4001800c 	.word	0x4001800c
200003b0:	4001900c 	.word	0x4001900c

200003b4 <flash_do_cmd>:
200003b4:	b5f0      	push	{r4, r5, r6, r7, lr}
200003b6:	46d6      	mov	lr, sl
200003b8:	464f      	mov	r7, r9
200003ba:	4646      	mov	r6, r8
200003bc:	b5c0      	push	{r6, r7, lr}
200003be:	0007      	movs	r7, r0
200003c0:	000e      	movs	r6, r1
200003c2:	0015      	movs	r5, r2
200003c4:	2318      	movs	r3, #24
200003c6:	469a      	mov	sl, r3
200003c8:	881b      	ldrh	r3, [r3, #0]
200003ca:	2214      	movs	r2, #20
200003cc:	4690      	mov	r8, r2
200003ce:	8810      	ldrh	r0, [r2, #0]
200003d0:	4928      	ldr	r1, [pc, #160]	; (20000474 <flash_do_cmd+0xc0>)
200003d2:	4798      	blx	r3
200003d4:	4681      	mov	r9, r0
200003d6:	4653      	mov	r3, sl
200003d8:	881b      	ldrh	r3, [r3, #0]
200003da:	4642      	mov	r2, r8
200003dc:	8810      	ldrh	r0, [r2, #0]
200003de:	4926      	ldr	r1, [pc, #152]	; (20000478 <flash_do_cmd+0xc4>)
200003e0:	4798      	blx	r3
200003e2:	0004      	movs	r4, r0
200003e4:	4653      	mov	r3, sl
200003e6:	881b      	ldrh	r3, [r3, #0]
200003e8:	4642      	mov	r2, r8
200003ea:	8810      	ldrh	r0, [r2, #0]
200003ec:	4923      	ldr	r1, [pc, #140]	; (2000047c <flash_do_cmd+0xc8>)
200003ee:	4798      	blx	r3
200003f0:	4680      	mov	r8, r0
200003f2:	464b      	mov	r3, r9
200003f4:	2b00      	cmp	r3, #0
200003f6:	d00c      	beq.n	20000412 <flash_do_cmd+0x5e>
200003f8:	2c00      	cmp	r4, #0
200003fa:	d00a      	beq.n	20000412 <flash_do_cmd+0x5e>
200003fc:	2800      	cmp	r0, #0
200003fe:	d008      	beq.n	20000412 <flash_do_cmd+0x5e>
20000400:	f7ff ffa4 	bl	2000034c <flash_init_boot2_copyout>
20000404:	47c8      	blx	r9
20000406:	47a0      	blx	r4
20000408:	2000      	movs	r0, #0
2000040a:	f7ff ffbf 	bl	2000038c <flash_cs_force>
2000040e:	002a      	movs	r2, r5
20000410:	e00f      	b.n	20000432 <flash_do_cmd+0x7e>
20000412:	4b1b      	ldr	r3, [pc, #108]	; (20000480 <flash_do_cmd+0xcc>)
20000414:	4a1b      	ldr	r2, [pc, #108]	; (20000484 <flash_do_cmd+0xd0>)
20000416:	2180      	movs	r1, #128	; 0x80
20000418:	481b      	ldr	r0, [pc, #108]	; (20000488 <flash_do_cmd+0xd4>)
2000041a:	f000 fbf9 	bl	20000c10 <____assert_func_veneer>
2000041e:	2b00      	cmp	r3, #0
20000420:	d007      	beq.n	20000432 <flash_do_cmd+0x7e>
20000422:	2a00      	cmp	r2, #0
20000424:	d005      	beq.n	20000432 <flash_do_cmd+0x7e>
20000426:	23c0      	movs	r3, #192	; 0xc0
20000428:	055b      	lsls	r3, r3, #21
2000042a:	6e1b      	ldr	r3, [r3, #96]	; 0x60
2000042c:	7033      	strb	r3, [r6, #0]
2000042e:	3a01      	subs	r2, #1
20000430:	3601      	adds	r6, #1
20000432:	002b      	movs	r3, r5
20000434:	4313      	orrs	r3, r2
20000436:	d012      	beq.n	2000045e <flash_do_cmd+0xaa>
20000438:	23c0      	movs	r3, #192	; 0xc0
2000043a:	055b      	lsls	r3, r3, #21
2000043c:	6a9c      	ldr	r4, [r3, #40]	; 0x28
2000043e:	2308      	movs	r3, #8
20000440:	4023      	ands	r3, r4
20000442:	07a1      	lsls	r1, r4, #30
20000444:	d5eb      	bpl.n	2000041e <flash_do_cmd+0x6a>
20000446:	2d00      	cmp	r5, #0
20000448:	d0e9      	beq.n	2000041e <flash_do_cmd+0x6a>
2000044a:	1b51      	subs	r1, r2, r5
2000044c:	290d      	cmp	r1, #13
2000044e:	d8e6      	bhi.n	2000041e <flash_do_cmd+0x6a>
20000450:	7838      	ldrb	r0, [r7, #0]
20000452:	21c0      	movs	r1, #192	; 0xc0
20000454:	0549      	lsls	r1, r1, #21
20000456:	6608      	str	r0, [r1, #96]	; 0x60
20000458:	3d01      	subs	r5, #1
2000045a:	3701      	adds	r7, #1
2000045c:	e7df      	b.n	2000041e <flash_do_cmd+0x6a>
2000045e:	2001      	movs	r0, #1
20000460:	f7ff ff94 	bl	2000038c <flash_cs_force>
20000464:	47c0      	blx	r8
20000466:	f7ff ff89 	bl	2000037c <flash_enable_xip_via_boot2>
2000046a:	bce0      	pop	{r5, r6, r7}
2000046c:	46ba      	mov	sl, r7
2000046e:	46b1      	mov	r9, r6
20000470:	46a8      	mov	r8, r5
20000472:	bdf0      	pop	{r4, r5, r6, r7, pc}
20000474:	00004649 	.word	0x00004649
20000478:	00005845 	.word	0x00005845
2000047c:	00004346 	.word	0x00004346
20000480:	1000ad08 	.word	0x1000ad08
20000484:	1000ad48 	.word	0x1000ad48
20000488:	1000abfc 	.word	0x1000abfc

2000048c <reset_non_control_endpoints>:
2000048c:	b510      	push	{r4, lr}
2000048e:	2300      	movs	r3, #0
20000490:	e008      	b.n	200004a4 <reset_non_control_endpoints+0x18>
20000492:	3301      	adds	r3, #1
20000494:	00da      	lsls	r2, r3, #3
20000496:	2100      	movs	r1, #0
20000498:	4808      	ldr	r0, [pc, #32]	; (200004bc <reset_non_control_endpoints+0x30>)
2000049a:	5011      	str	r1, [r2, r0]
2000049c:	4684      	mov	ip, r0
2000049e:	4462      	add	r2, ip
200004a0:	6051      	str	r1, [r2, #4]
200004a2:	b2db      	uxtb	r3, r3
200004a4:	2b0e      	cmp	r3, #14
200004a6:	d9f4      	bls.n	20000492 <reset_non_control_endpoints+0x6>
200004a8:	22f0      	movs	r2, #240	; 0xf0
200004aa:	0092      	lsls	r2, r2, #2
200004ac:	2100      	movs	r1, #0
200004ae:	4804      	ldr	r0, [pc, #16]	; (200004c0 <reset_non_control_endpoints+0x34>)
200004b0:	f000 fbde 	bl	20000c70 <____wrap_memset_veneer>
200004b4:	4b03      	ldr	r3, [pc, #12]	; (200004c4 <reset_non_control_endpoints+0x38>)
200004b6:	4a04      	ldr	r2, [pc, #16]	; (200004c8 <reset_non_control_endpoints+0x3c>)
200004b8:	601a      	str	r2, [r3, #0]
200004ba:	bd10      	pop	{r4, pc}
200004bc:	50100000 	.word	0x50100000
200004c0:	20001f54 	.word	0x20001f54
200004c4:	20002318 	.word	0x20002318
200004c8:	50100180 	.word	0x50100180

200004cc <hw_handle_buff_status>:
200004cc:	b5f0      	push	{r4, r5, r6, r7, lr}
200004ce:	46ce      	mov	lr, r9
200004d0:	4647      	mov	r7, r8
200004d2:	b580      	push	{r7, lr}
200004d4:	b085      	sub	sp, #20
200004d6:	4b23      	ldr	r3, [pc, #140]	; (20000564 <hw_handle_buff_status+0x98>)
200004d8:	6d9f      	ldr	r7, [r3, #88]	; 0x58
200004da:	2400      	movs	r4, #0
200004dc:	2601      	movs	r6, #1
200004de:	e003      	b.n	200004e8 <hw_handle_buff_status+0x1c>
200004e0:	43b7      	bics	r7, r6
200004e2:	0076      	lsls	r6, r6, #1
200004e4:	3401      	adds	r4, #1
200004e6:	b2e4      	uxtb	r4, r4
200004e8:	2f00      	cmp	r7, #0
200004ea:	d036      	beq.n	2000055a <hw_handle_buff_status+0x8e>
200004ec:	2c1f      	cmp	r4, #31
200004ee:	d834      	bhi.n	2000055a <hw_handle_buff_status+0x8e>
200004f0:	423e      	tst	r6, r7
200004f2:	d0f6      	beq.n	200004e2 <hw_handle_buff_status+0x16>
200004f4:	4b1c      	ldr	r3, [pc, #112]	; (20000568 <hw_handle_buff_status+0x9c>)
200004f6:	659e      	str	r6, [r3, #88]	; 0x58
200004f8:	0863      	lsrs	r3, r4, #1
200004fa:	4699      	mov	r9, r3
200004fc:	2301      	movs	r3, #1
200004fe:	4063      	eors	r3, r4
20000500:	2201      	movs	r2, #1
20000502:	401a      	ands	r2, r3
20000504:	4690      	mov	r8, r2
20000506:	464b      	mov	r3, r9
20000508:	005d      	lsls	r5, r3, #1
2000050a:	4445      	add	r5, r8
2000050c:	016d      	lsls	r5, r5, #5
2000050e:	4b17      	ldr	r3, [pc, #92]	; (2000056c <hw_handle_buff_status+0xa0>)
20000510:	18ed      	adds	r5, r5, r3
20000512:	0028      	movs	r0, r5
20000514:	f000 fa42 	bl	2000099c <hw_endpoint_xfer_continue>
20000518:	2800      	cmp	r0, #0
2000051a:	d0e1      	beq.n	200004e0 <hw_handle_buff_status+0x14>
2000051c:	464b      	mov	r3, r9
2000051e:	005b      	lsls	r3, r3, #1
20000520:	4443      	add	r3, r8
20000522:	015b      	lsls	r3, r3, #5
20000524:	4a11      	ldr	r2, [pc, #68]	; (2000056c <hw_handle_buff_status+0xa0>)
20000526:	18d3      	adds	r3, r2, r3
20000528:	789a      	ldrb	r2, [r3, #2]
2000052a:	4691      	mov	r9, r2
2000052c:	8adb      	ldrh	r3, [r3, #22]
2000052e:	4698      	mov	r8, r3
20000530:	220c      	movs	r2, #12
20000532:	2100      	movs	r1, #0
20000534:	a801      	add	r0, sp, #4
20000536:	f000 fb9b 	bl	20000c70 <____wrap_memset_veneer>
2000053a:	2307      	movs	r3, #7
2000053c:	466a      	mov	r2, sp
2000053e:	7153      	strb	r3, [r2, #5]
20000540:	466b      	mov	r3, sp
20000542:	464a      	mov	r2, r9
20000544:	721a      	strb	r2, [r3, #8]
20000546:	4643      	mov	r3, r8
20000548:	9303      	str	r3, [sp, #12]
2000054a:	2101      	movs	r1, #1
2000054c:	a801      	add	r0, sp, #4
2000054e:	f000 fa4d 	bl	200009ec <dcd_event_handler>
20000552:	0028      	movs	r0, r5
20000554:	f000 f9ac 	bl	200008b0 <hw_endpoint_reset_transfer>
20000558:	e7c2      	b.n	200004e0 <hw_handle_buff_status+0x14>
2000055a:	b005      	add	sp, #20
2000055c:	bcc0      	pop	{r6, r7}
2000055e:	46b9      	mov	r9, r7
20000560:	46b0      	mov	r8, r6
20000562:	bdf0      	pop	{r4, r5, r6, r7, pc}
20000564:	50110000 	.word	0x50110000
20000568:	50113000 	.word	0x50113000
2000056c:	20001f14 	.word	0x20001f14

20000570 <dcd_rp2040_irq>:
20000570:	b5f0      	push	{r4, r5, r6, r7, lr}
20000572:	b085      	sub	sp, #20
20000574:	4a68      	ldr	r2, [pc, #416]	; (20000718 <dcd_rp2040_irq+0x1a8>)
20000576:	2398      	movs	r3, #152	; 0x98
20000578:	58d5      	ldr	r5, [r2, r3]
2000057a:	2380      	movs	r3, #128	; 0x80
2000057c:	029b      	lsls	r3, r3, #10
2000057e:	002c      	movs	r4, r5
20000580:	401c      	ands	r4, r3
20000582:	421d      	tst	r5, r3
20000584:	d04a      	beq.n	2000061c <dcd_rp2040_irq+0xac>
20000586:	4b65      	ldr	r3, [pc, #404]	; (2000071c <dcd_rp2040_irq+0x1ac>)
20000588:	6a9a      	ldr	r2, [r3, #40]	; 0x28
2000058a:	4b65      	ldr	r3, [pc, #404]	; (20000720 <dcd_rp2040_irq+0x1b0>)
2000058c:	601a      	str	r2, [r3, #0]
2000058e:	2400      	movs	r4, #0
20000590:	2600      	movs	r6, #0
20000592:	e009      	b.n	200005a8 <dcd_rp2040_irq+0x38>
20000594:	4b63      	ldr	r3, [pc, #396]	; (20000724 <dcd_rp2040_irq+0x1b4>)
20000596:	1899      	adds	r1, r3, r2
20000598:	313c      	adds	r1, #60	; 0x3c
2000059a:	2300      	movs	r3, #0
2000059c:	700b      	strb	r3, [r1, #0]
2000059e:	f000 f9b9 	bl	20000914 <hw_endpoint_start_next_buffer>
200005a2:	003e      	movs	r6, r7
200005a4:	3401      	adds	r4, #1
200005a6:	b2e4      	uxtb	r4, r4
200005a8:	2c0f      	cmp	r4, #15
200005aa:	d817      	bhi.n	200005dc <dcd_rp2040_irq+0x6c>
200005ac:	01a2      	lsls	r2, r4, #6
200005ae:	0010      	movs	r0, r2
200005b0:	3020      	adds	r0, #32
200005b2:	4b5c      	ldr	r3, [pc, #368]	; (20000724 <dcd_rp2040_irq+0x1b4>)
200005b4:	18c0      	adds	r0, r0, r3
200005b6:	189b      	adds	r3, r3, r2
200005b8:	333b      	adds	r3, #59	; 0x3b
200005ba:	781b      	ldrb	r3, [r3, #0]
200005bc:	2b02      	cmp	r3, #2
200005be:	d1f1      	bne.n	200005a4 <dcd_rp2040_irq+0x34>
200005c0:	4b58      	ldr	r3, [pc, #352]	; (20000724 <dcd_rp2040_irq+0x1b4>)
200005c2:	189b      	adds	r3, r3, r2
200005c4:	333a      	adds	r3, #58	; 0x3a
200005c6:	781f      	ldrb	r7, [r3, #0]
200005c8:	2f00      	cmp	r7, #0
200005ca:	d0eb      	beq.n	200005a4 <dcd_rp2040_irq+0x34>
200005cc:	4b55      	ldr	r3, [pc, #340]	; (20000724 <dcd_rp2040_irq+0x1b4>)
200005ce:	189b      	adds	r3, r3, r2
200005d0:	333c      	adds	r3, #60	; 0x3c
200005d2:	781b      	ldrb	r3, [r3, #0]
200005d4:	2b00      	cmp	r3, #0
200005d6:	d1dd      	bne.n	20000594 <dcd_rp2040_irq+0x24>
200005d8:	003e      	movs	r6, r7
200005da:	e7e3      	b.n	200005a4 <dcd_rp2040_irq+0x34>
200005dc:	2e00      	cmp	r6, #0
200005de:	d108      	bne.n	200005f2 <dcd_rp2040_irq+0x82>
200005e0:	4b51      	ldr	r3, [pc, #324]	; (20000728 <dcd_rp2040_irq+0x1b8>)
200005e2:	781b      	ldrb	r3, [r3, #0]
200005e4:	2b00      	cmp	r3, #0
200005e6:	d104      	bne.n	200005f2 <dcd_rp2040_irq+0x82>
200005e8:	4a50      	ldr	r2, [pc, #320]	; (2000072c <dcd_rp2040_irq+0x1bc>)
200005ea:	3390      	adds	r3, #144	; 0x90
200005ec:	2180      	movs	r1, #128	; 0x80
200005ee:	0289      	lsls	r1, r1, #10
200005f0:	50d1      	str	r1, [r2, r3]
200005f2:	4b49      	ldr	r3, [pc, #292]	; (20000718 <dcd_rp2040_irq+0x1a8>)
200005f4:	6c9c      	ldr	r4, [r3, #72]	; 0x48
200005f6:	0564      	lsls	r4, r4, #21
200005f8:	0d64      	lsrs	r4, r4, #21
200005fa:	220c      	movs	r2, #12
200005fc:	2100      	movs	r1, #0
200005fe:	a801      	add	r0, sp, #4
20000600:	f000 fb36 	bl	20000c70 <____wrap_memset_veneer>
20000604:	2300      	movs	r3, #0
20000606:	466a      	mov	r2, sp
20000608:	7113      	strb	r3, [r2, #4]
2000060a:	3303      	adds	r3, #3
2000060c:	7153      	strb	r3, [r2, #5]
2000060e:	9402      	str	r4, [sp, #8]
20000610:	2101      	movs	r1, #1
20000612:	a801      	add	r0, sp, #4
20000614:	f000 f9ea 	bl	200009ec <dcd_event_handler>
20000618:	2480      	movs	r4, #128	; 0x80
2000061a:	02a4      	lsls	r4, r4, #10
2000061c:	06eb      	lsls	r3, r5, #27
2000061e:	d409      	bmi.n	20000634 <dcd_rp2040_irq+0xc4>
20000620:	03eb      	lsls	r3, r5, #15
20000622:	d529      	bpl.n	20000678 <dcd_rp2040_irq+0x108>
20000624:	2380      	movs	r3, #128	; 0x80
20000626:	025b      	lsls	r3, r3, #9
20000628:	431c      	orrs	r4, r3
2000062a:	ab01      	add	r3, sp, #4
2000062c:	4a40      	ldr	r2, [pc, #256]	; (20000730 <dcd_rp2040_irq+0x1c0>)
2000062e:	801a      	strh	r2, [r3, #0]
20000630:	2600      	movs	r6, #0
20000632:	e00b      	b.n	2000064c <dcd_rp2040_irq+0xdc>
20000634:	2310      	movs	r3, #16
20000636:	431c      	orrs	r4, r3
20000638:	f7ff ff48 	bl	200004cc <hw_handle_buff_status>
2000063c:	e7f0      	b.n	20000620 <dcd_rp2040_irq+0xb0>
2000063e:	ab01      	add	r3, sp, #4
20000640:	5d98      	ldrb	r0, [r3, r6]
20000642:	f000 fadd 	bl	20000c00 <__hw_endpoint_get_by_addr_veneer>
20000646:	2301      	movs	r3, #1
20000648:	70c3      	strb	r3, [r0, #3]
2000064a:	3601      	adds	r6, #1
2000064c:	2e01      	cmp	r6, #1
2000064e:	d9f6      	bls.n	2000063e <dcd_rp2040_irq+0xce>
20000650:	ae01      	add	r6, sp, #4
20000652:	220c      	movs	r2, #12
20000654:	2100      	movs	r1, #0
20000656:	0030      	movs	r0, r6
20000658:	f000 fb0a 	bl	20000c70 <____wrap_memset_veneer>
2000065c:	2306      	movs	r3, #6
2000065e:	7073      	strb	r3, [r6, #1]
20000660:	4a34      	ldr	r2, [pc, #208]	; (20000734 <dcd_rp2040_irq+0x1c4>)
20000662:	ab02      	add	r3, sp, #8
20000664:	ca03      	ldmia	r2!, {r0, r1}
20000666:	c303      	stmia	r3!, {r0, r1}
20000668:	2101      	movs	r1, #1
2000066a:	0030      	movs	r0, r6
2000066c:	f000 f9be 	bl	200009ec <dcd_event_handler>
20000670:	4b2e      	ldr	r3, [pc, #184]	; (2000072c <dcd_rp2040_irq+0x1bc>)
20000672:	2280      	movs	r2, #128	; 0x80
20000674:	0292      	lsls	r2, r2, #10
20000676:	651a      	str	r2, [r3, #80]	; 0x50
20000678:	04eb      	lsls	r3, r5, #19
2000067a:	d407      	bmi.n	2000068c <dcd_rp2040_irq+0x11c>
2000067c:	046b      	lsls	r3, r5, #17
2000067e:	d41e      	bmi.n	200006be <dcd_rp2040_irq+0x14e>
20000680:	042b      	lsls	r3, r5, #16
20000682:	d42f      	bmi.n	200006e4 <dcd_rp2040_irq+0x174>
20000684:	42ac      	cmp	r4, r5
20000686:	d141      	bne.n	2000070c <dcd_rp2040_irq+0x19c>
20000688:	b005      	add	sp, #20
2000068a:	bdf0      	pop	{r4, r5, r6, r7, pc}
2000068c:	2380      	movs	r3, #128	; 0x80
2000068e:	015b      	lsls	r3, r3, #5
20000690:	431c      	orrs	r4, r3
20000692:	4b21      	ldr	r3, [pc, #132]	; (20000718 <dcd_rp2040_irq+0x1a8>)
20000694:	2200      	movs	r2, #0
20000696:	601a      	str	r2, [r3, #0]
20000698:	f7ff fef8 	bl	2000048c <reset_non_control_endpoints>
2000069c:	ae01      	add	r6, sp, #4
2000069e:	220c      	movs	r2, #12
200006a0:	2100      	movs	r1, #0
200006a2:	0030      	movs	r0, r6
200006a4:	f000 fae4 	bl	20000c70 <____wrap_memset_veneer>
200006a8:	2301      	movs	r3, #1
200006aa:	7073      	strb	r3, [r6, #1]
200006ac:	2101      	movs	r1, #1
200006ae:	0030      	movs	r0, r6
200006b0:	f000 f99c 	bl	200009ec <dcd_event_handler>
200006b4:	4b1d      	ldr	r3, [pc, #116]	; (2000072c <dcd_rp2040_irq+0x1bc>)
200006b6:	2280      	movs	r2, #128	; 0x80
200006b8:	0312      	lsls	r2, r2, #12
200006ba:	651a      	str	r2, [r3, #80]	; 0x50
200006bc:	e7de      	b.n	2000067c <dcd_rp2040_irq+0x10c>
200006be:	2380      	movs	r3, #128	; 0x80
200006c0:	01db      	lsls	r3, r3, #7
200006c2:	431c      	orrs	r4, r3
200006c4:	ae01      	add	r6, sp, #4
200006c6:	220c      	movs	r2, #12
200006c8:	2100      	movs	r1, #0
200006ca:	0030      	movs	r0, r6
200006cc:	f000 fad0 	bl	20000c70 <____wrap_memset_veneer>
200006d0:	2304      	movs	r3, #4
200006d2:	7073      	strb	r3, [r6, #1]
200006d4:	2101      	movs	r1, #1
200006d6:	0030      	movs	r0, r6
200006d8:	f000 f988 	bl	200009ec <dcd_event_handler>
200006dc:	4b13      	ldr	r3, [pc, #76]	; (2000072c <dcd_rp2040_irq+0x1bc>)
200006de:	2210      	movs	r2, #16
200006e0:	651a      	str	r2, [r3, #80]	; 0x50
200006e2:	e7cd      	b.n	20000680 <dcd_rp2040_irq+0x110>
200006e4:	2380      	movs	r3, #128	; 0x80
200006e6:	021b      	lsls	r3, r3, #8
200006e8:	431c      	orrs	r4, r3
200006ea:	ae01      	add	r6, sp, #4
200006ec:	220c      	movs	r2, #12
200006ee:	2100      	movs	r1, #0
200006f0:	0030      	movs	r0, r6
200006f2:	f000 fabd 	bl	20000c70 <____wrap_memset_veneer>
200006f6:	2305      	movs	r3, #5
200006f8:	7073      	strb	r3, [r6, #1]
200006fa:	2101      	movs	r1, #1
200006fc:	0030      	movs	r0, r6
200006fe:	f000 f975 	bl	200009ec <dcd_event_handler>
20000702:	4b0a      	ldr	r3, [pc, #40]	; (2000072c <dcd_rp2040_irq+0x1bc>)
20000704:	2280      	movs	r2, #128	; 0x80
20000706:	0112      	lsls	r2, r2, #4
20000708:	651a      	str	r2, [r3, #80]	; 0x50
2000070a:	e7bb      	b.n	20000684 <dcd_rp2040_irq+0x114>
2000070c:	0021      	movs	r1, r4
2000070e:	4069      	eors	r1, r5
20000710:	4809      	ldr	r0, [pc, #36]	; (20000738 <dcd_rp2040_irq+0x1c8>)
20000712:	f000 fa85 	bl	20000c20 <__panic_veneer>
20000716:	46c0      	nop			; (mov r8, r8)
20000718:	50110000 	.word	0x50110000
2000071c:	40054000 	.word	0x40054000
20000720:	20001f00 	.word	0x20001f00
20000724:	20001f14 	.word	0x20001f14
20000728:	2000258a 	.word	0x2000258a
2000072c:	50113000 	.word	0x50113000
20000730:	ffff8000 	.word	0xffff8000
20000734:	50100000 	.word	0x50100000
20000738:	1000ae2c 	.word	0x1000ae2c

2000073c <e15_is_bulkin_ep>:
2000073c:	4b09      	ldr	r3, [pc, #36]	; (20000764 <e15_is_bulkin_ep+0x28>)
2000073e:	6c1b      	ldr	r3, [r3, #64]	; 0x40
20000740:	079b      	lsls	r3, r3, #30
20000742:	d40c      	bmi.n	2000075e <e15_is_bulkin_ep+0x22>
20000744:	7883      	ldrb	r3, [r0, #2]
20000746:	09db      	lsrs	r3, r3, #7
20000748:	2b01      	cmp	r3, #1
2000074a:	d001      	beq.n	20000750 <e15_is_bulkin_ep+0x14>
2000074c:	2000      	movs	r0, #0
2000074e:	e007      	b.n	20000760 <e15_is_bulkin_ep+0x24>
20000750:	7ec3      	ldrb	r3, [r0, #27]
20000752:	2b02      	cmp	r3, #2
20000754:	d001      	beq.n	2000075a <e15_is_bulkin_ep+0x1e>
20000756:	2000      	movs	r0, #0
20000758:	e002      	b.n	20000760 <e15_is_bulkin_ep+0x24>
2000075a:	2001      	movs	r0, #1
2000075c:	e000      	b.n	20000760 <e15_is_bulkin_ep+0x24>
2000075e:	2000      	movs	r0, #0
20000760:	4770      	bx	lr
20000762:	46c0      	nop			; (mov r8, r8)
20000764:	50110000 	.word	0x50110000

20000768 <e15_is_critical_frame_period>:
20000768:	b510      	push	{r4, lr}
2000076a:	f7ff ffe7 	bl	2000073c <e15_is_bulkin_ep>
2000076e:	2800      	cmp	r0, #0
20000770:	d009      	beq.n	20000786 <e15_is_critical_frame_period+0x1e>
20000772:	4b06      	ldr	r3, [pc, #24]	; (2000078c <e15_is_critical_frame_period+0x24>)
20000774:	6a9b      	ldr	r3, [r3, #40]	; 0x28
20000776:	4a06      	ldr	r2, [pc, #24]	; (20000790 <e15_is_critical_frame_period+0x28>)
20000778:	6812      	ldr	r2, [r2, #0]
2000077a:	1a9b      	subs	r3, r3, r2
2000077c:	4a05      	ldr	r2, [pc, #20]	; (20000794 <e15_is_critical_frame_period+0x2c>)
2000077e:	4694      	mov	ip, r2
20000780:	4463      	add	r3, ip
20000782:	2bc6      	cmp	r3, #198	; 0xc6
20000784:	d800      	bhi.n	20000788 <e15_is_critical_frame_period+0x20>
20000786:	bd10      	pop	{r4, pc}
20000788:	2000      	movs	r0, #0
2000078a:	e7fc      	b.n	20000786 <e15_is_critical_frame_period+0x1e>
2000078c:	40054000 	.word	0x40054000
20000790:	20001f00 	.word	0x20001f00
20000794:	fffffce0 	.word	0xfffffce0

20000798 <prepare_ep_buffer>:
20000798:	b5f8      	push	{r3, r4, r5, r6, r7, lr}
2000079a:	0004      	movs	r4, r0
2000079c:	000f      	movs	r7, r1
2000079e:	8a83      	ldrh	r3, [r0, #20]
200007a0:	8b02      	ldrh	r2, [r0, #24]
200007a2:	1c1e      	adds	r6, r3, #0
200007a4:	4293      	cmp	r3, r2
200007a6:	d900      	bls.n	200007aa <prepare_ep_buffer+0x12>
200007a8:	1c16      	adds	r6, r2, #0
200007aa:	b2b6      	uxth	r6, r6
200007ac:	1b9b      	subs	r3, r3, r6
200007ae:	82a3      	strh	r3, [r4, #20]
200007b0:	2580      	movs	r5, #128	; 0x80
200007b2:	00ed      	lsls	r5, r5, #3
200007b4:	4335      	orrs	r5, r6
200007b6:	78e3      	ldrb	r3, [r4, #3]
200007b8:	2b00      	cmp	r3, #0
200007ba:	d013      	beq.n	200007e4 <prepare_ep_buffer+0x4c>
200007bc:	2280      	movs	r2, #128	; 0x80
200007be:	0192      	lsls	r2, r2, #6
200007c0:	4315      	orrs	r5, r2
200007c2:	2201      	movs	r2, #1
200007c4:	4053      	eors	r3, r2
200007c6:	70e3      	strb	r3, [r4, #3]
200007c8:	7863      	ldrb	r3, [r4, #1]
200007ca:	2b00      	cmp	r3, #0
200007cc:	d00c      	beq.n	200007e8 <prepare_ep_buffer+0x50>
200007ce:	8aa3      	ldrh	r3, [r4, #20]
200007d0:	2b00      	cmp	r3, #0
200007d2:	d102      	bne.n	200007da <prepare_ep_buffer+0x42>
200007d4:	2380      	movs	r3, #128	; 0x80
200007d6:	01db      	lsls	r3, r3, #7
200007d8:	431d      	orrs	r5, r3
200007da:	2f00      	cmp	r7, #0
200007dc:	d000      	beq.n	200007e0 <prepare_ep_buffer+0x48>
200007de:	042d      	lsls	r5, r5, #16
200007e0:	0028      	movs	r0, r5
200007e2:	bdf8      	pop	{r3, r4, r5, r6, r7, pc}
200007e4:	2200      	movs	r2, #0
200007e6:	e7eb      	b.n	200007c0 <prepare_ep_buffer+0x28>
200007e8:	01b8      	lsls	r0, r7, #6
200007ea:	68e3      	ldr	r3, [r4, #12]
200007ec:	469c      	mov	ip, r3
200007ee:	4460      	add	r0, ip
200007f0:	0032      	movs	r2, r6
200007f2:	6921      	ldr	r1, [r4, #16]
200007f4:	f000 fa2c 	bl	20000c50 <____wrap_memcpy_veneer>
200007f8:	6923      	ldr	r3, [r4, #16]
200007fa:	469c      	mov	ip, r3
200007fc:	4466      	add	r6, ip
200007fe:	6126      	str	r6, [r4, #16]
20000800:	2380      	movs	r3, #128	; 0x80
20000802:	021b      	lsls	r3, r3, #8
20000804:	431d      	orrs	r5, r3
20000806:	e7e2      	b.n	200007ce <prepare_ep_buffer+0x36>

20000808 <sync_ep_buffer>:
20000808:	b570      	push	{r4, r5, r6, lr}
2000080a:	0004      	movs	r4, r0
2000080c:	6883      	ldr	r3, [r0, #8]
2000080e:	681b      	ldr	r3, [r3, #0]
20000810:	2900      	cmp	r1, #0
20000812:	d000      	beq.n	20000816 <sync_ep_buffer+0xe>
20000814:	0c1b      	lsrs	r3, r3, #16
20000816:	059d      	lsls	r5, r3, #22
20000818:	0dad      	lsrs	r5, r5, #22
2000081a:	7862      	ldrb	r2, [r4, #1]
2000081c:	2a00      	cmp	r2, #0
2000081e:	d112      	bne.n	20000846 <sync_ep_buffer+0x3e>
20000820:	041b      	lsls	r3, r3, #16
20000822:	d409      	bmi.n	20000838 <sync_ep_buffer+0x30>
20000824:	8ae3      	ldrh	r3, [r4, #22]
20000826:	195b      	adds	r3, r3, r5
20000828:	82e3      	strh	r3, [r4, #22]
2000082a:	8b23      	ldrh	r3, [r4, #24]
2000082c:	42ab      	cmp	r3, r5
2000082e:	d901      	bls.n	20000834 <sync_ep_buffer+0x2c>
20000830:	2300      	movs	r3, #0
20000832:	82a3      	strh	r3, [r4, #20]
20000834:	0028      	movs	r0, r5
20000836:	bd70      	pop	{r4, r5, r6, pc}
20000838:	2181      	movs	r1, #129	; 0x81
2000083a:	4b0f      	ldr	r3, [pc, #60]	; (20000878 <sync_ep_buffer+0x70>)
2000083c:	4a0f      	ldr	r2, [pc, #60]	; (2000087c <sync_ep_buffer+0x74>)
2000083e:	0049      	lsls	r1, r1, #1
20000840:	480f      	ldr	r0, [pc, #60]	; (20000880 <sync_ep_buffer+0x78>)
20000842:	f000 f9e5 	bl	20000c10 <____assert_func_veneer>
20000846:	041b      	lsls	r3, r3, #16
20000848:	d50e      	bpl.n	20000868 <sync_ep_buffer+0x60>
2000084a:	0189      	lsls	r1, r1, #6
2000084c:	68e3      	ldr	r3, [r4, #12]
2000084e:	469c      	mov	ip, r3
20000850:	4461      	add	r1, ip
20000852:	002a      	movs	r2, r5
20000854:	6920      	ldr	r0, [r4, #16]
20000856:	f000 f9fb 	bl	20000c50 <____wrap_memcpy_veneer>
2000085a:	8ae3      	ldrh	r3, [r4, #22]
2000085c:	195b      	adds	r3, r3, r5
2000085e:	82e3      	strh	r3, [r4, #22]
20000860:	6923      	ldr	r3, [r4, #16]
20000862:	195b      	adds	r3, r3, r5
20000864:	6123      	str	r3, [r4, #16]
20000866:	e7e0      	b.n	2000082a <sync_ep_buffer+0x22>
20000868:	210a      	movs	r1, #10
2000086a:	4b06      	ldr	r3, [pc, #24]	; (20000884 <sync_ep_buffer+0x7c>)
2000086c:	4a03      	ldr	r2, [pc, #12]	; (2000087c <sync_ep_buffer+0x74>)
2000086e:	31ff      	adds	r1, #255	; 0xff
20000870:	4803      	ldr	r0, [pc, #12]	; (20000880 <sync_ep_buffer+0x78>)
20000872:	f000 f9cd 	bl	20000c10 <____assert_func_veneer>
20000876:	46c0      	nop			; (mov r8, r8)
20000878:	1000aeac 	.word	0x1000aeac
2000087c:	1000afa8 	.word	0x1000afa8
20000880:	1000aecc 	.word	0x1000aecc
20000884:	1000af3c 	.word	0x1000af3c

20000888 <_hw_endpoint_xfer_sync>:
20000888:	b510      	push	{r4, lr}
2000088a:	0004      	movs	r4, r0
2000088c:	6883      	ldr	r3, [r0, #8]
2000088e:	681b      	ldr	r3, [r3, #0]
20000890:	2100      	movs	r1, #0
20000892:	f7ff ffb9 	bl	20000808 <sync_ep_buffer>
20000896:	6863      	ldr	r3, [r4, #4]
20000898:	681b      	ldr	r3, [r3, #0]
2000089a:	005b      	lsls	r3, r3, #1
2000089c:	d502      	bpl.n	200008a4 <_hw_endpoint_xfer_sync+0x1c>
2000089e:	8b23      	ldrh	r3, [r4, #24]
200008a0:	4283      	cmp	r3, r0
200008a2:	d000      	beq.n	200008a6 <_hw_endpoint_xfer_sync+0x1e>
200008a4:	bd10      	pop	{r4, pc}
200008a6:	2101      	movs	r1, #1
200008a8:	0020      	movs	r0, r4
200008aa:	f7ff ffad 	bl	20000808 <sync_ep_buffer>
200008ae:	e7f9      	b.n	200008a4 <_hw_endpoint_xfer_sync+0x1c>

200008b0 <hw_endpoint_reset_transfer>:
200008b0:	2300      	movs	r3, #0
200008b2:	7683      	strb	r3, [r0, #26]
200008b4:	8283      	strh	r3, [r0, #20]
200008b6:	82c3      	strh	r3, [r0, #22]
200008b8:	6103      	str	r3, [r0, #16]
200008ba:	4770      	bx	lr

200008bc <_hw_endpoint_buffer_control_update32>:
200008bc:	b510      	push	{r4, lr}
200008be:	2900      	cmp	r1, #0
200008c0:	d002      	beq.n	200008c8 <_hw_endpoint_buffer_control_update32+0xc>
200008c2:	6883      	ldr	r3, [r0, #8]
200008c4:	681b      	ldr	r3, [r3, #0]
200008c6:	4019      	ands	r1, r3
200008c8:	2a00      	cmp	r2, #0
200008ca:	d00f      	beq.n	200008ec <_hw_endpoint_buffer_control_update32+0x30>
200008cc:	4311      	orrs	r1, r2
200008ce:	0553      	lsls	r3, r2, #21
200008d0:	d50c      	bpl.n	200008ec <_hw_endpoint_buffer_control_update32+0x30>
200008d2:	6882      	ldr	r2, [r0, #8]
200008d4:	6813      	ldr	r3, [r2, #0]
200008d6:	055b      	lsls	r3, r3, #21
200008d8:	d40b      	bmi.n	200008f2 <_hw_endpoint_buffer_control_update32+0x36>
200008da:	4b0b      	ldr	r3, [pc, #44]	; (20000908 <_hw_endpoint_buffer_control_update32+0x4c>)
200008dc:	400b      	ands	r3, r1
200008de:	6013      	str	r3, [r2, #0]
200008e0:	e7ff      	b.n	200008e2 <_hw_endpoint_buffer_control_update32+0x26>
200008e2:	e7ff      	b.n	200008e4 <_hw_endpoint_buffer_control_update32+0x28>
200008e4:	e7ff      	b.n	200008e6 <_hw_endpoint_buffer_control_update32+0x2a>
200008e6:	e7ff      	b.n	200008e8 <_hw_endpoint_buffer_control_update32+0x2c>
200008e8:	e7ff      	b.n	200008ea <_hw_endpoint_buffer_control_update32+0x2e>
200008ea:	e7ff      	b.n	200008ec <_hw_endpoint_buffer_control_update32+0x30>
200008ec:	6883      	ldr	r3, [r0, #8]
200008ee:	6019      	str	r1, [r3, #0]
200008f0:	bd10      	pop	{r4, pc}
200008f2:	7883      	ldrb	r3, [r0, #2]
200008f4:	217f      	movs	r1, #127	; 0x7f
200008f6:	4019      	ands	r1, r3
200008f8:	09db      	lsrs	r3, r3, #7
200008fa:	009b      	lsls	r3, r3, #2
200008fc:	4a03      	ldr	r2, [pc, #12]	; (2000090c <_hw_endpoint_buffer_control_update32+0x50>)
200008fe:	589a      	ldr	r2, [r3, r2]
20000900:	4803      	ldr	r0, [pc, #12]	; (20000910 <_hw_endpoint_buffer_control_update32+0x54>)
20000902:	f000 f98d 	bl	20000c20 <__panic_veneer>
20000906:	46c0      	nop			; (mov r8, r8)
20000908:	fffffbff 	.word	0xfffffbff
2000090c:	20000dc0 	.word	0x20000dc0
20000910:	1000af5c 	.word	0x1000af5c

20000914 <hw_endpoint_start_next_buffer>:
20000914:	b570      	push	{r4, r5, r6, lr}
20000916:	0004      	movs	r4, r0
20000918:	6843      	ldr	r3, [r0, #4]
2000091a:	681e      	ldr	r6, [r3, #0]
2000091c:	2100      	movs	r1, #0
2000091e:	f7ff ff3b 	bl	20000798 <prepare_ep_buffer>
20000922:	2580      	movs	r5, #128	; 0x80
20000924:	016d      	lsls	r5, r5, #5
20000926:	4305      	orrs	r5, r0
20000928:	4b19      	ldr	r3, [pc, #100]	; (20000990 <hw_endpoint_start_next_buffer+0x7c>)
2000092a:	6c1b      	ldr	r3, [r3, #64]	; 0x40
2000092c:	2202      	movs	r2, #2
2000092e:	0011      	movs	r1, r2
20000930:	4019      	ands	r1, r3
20000932:	421a      	tst	r2, r3
20000934:	d102      	bne.n	2000093c <hw_endpoint_start_next_buffer+0x28>
20000936:	78a3      	ldrb	r3, [r4, #2]
20000938:	09db      	lsrs	r3, r3, #7
2000093a:	d006      	beq.n	2000094a <hw_endpoint_start_next_buffer+0x36>
2000093c:	2900      	cmp	r1, #0
2000093e:	d006      	beq.n	2000094e <hw_endpoint_start_next_buffer+0x3a>
20000940:	78a3      	ldrb	r3, [r4, #2]
20000942:	065b      	lsls	r3, r3, #25
20000944:	d116      	bne.n	20000974 <hw_endpoint_start_next_buffer+0x60>
20000946:	2300      	movs	r3, #0
20000948:	e002      	b.n	20000950 <hw_endpoint_start_next_buffer+0x3c>
2000094a:	2301      	movs	r3, #1
2000094c:	e000      	b.n	20000950 <hw_endpoint_start_next_buffer+0x3c>
2000094e:	2300      	movs	r3, #0
20000950:	8aa2      	ldrh	r2, [r4, #20]
20000952:	2a00      	cmp	r2, #0
20000954:	d001      	beq.n	2000095a <hw_endpoint_start_next_buffer+0x46>
20000956:	2b00      	cmp	r3, #0
20000958:	d00e      	beq.n	20000978 <hw_endpoint_start_next_buffer+0x64>
2000095a:	4b0e      	ldr	r3, [pc, #56]	; (20000994 <hw_endpoint_start_next_buffer+0x80>)
2000095c:	401e      	ands	r6, r3
2000095e:	2380      	movs	r3, #128	; 0x80
20000960:	059b      	lsls	r3, r3, #22
20000962:	4333      	orrs	r3, r6
20000964:	6862      	ldr	r2, [r4, #4]
20000966:	6013      	str	r3, [r2, #0]
20000968:	002a      	movs	r2, r5
2000096a:	2100      	movs	r1, #0
2000096c:	0020      	movs	r0, r4
2000096e:	f7ff ffa5 	bl	200008bc <_hw_endpoint_buffer_control_update32>
20000972:	bd70      	pop	{r4, r5, r6, pc}
20000974:	2301      	movs	r3, #1
20000976:	e7eb      	b.n	20000950 <hw_endpoint_start_next_buffer+0x3c>
20000978:	2101      	movs	r1, #1
2000097a:	0020      	movs	r0, r4
2000097c:	f7ff ff0c 	bl	20000798 <prepare_ep_buffer>
20000980:	4305      	orrs	r5, r0
20000982:	4b05      	ldr	r3, [pc, #20]	; (20000998 <hw_endpoint_start_next_buffer+0x84>)
20000984:	401e      	ands	r6, r3
20000986:	23a0      	movs	r3, #160	; 0xa0
20000988:	05db      	lsls	r3, r3, #23
2000098a:	4333      	orrs	r3, r6
2000098c:	e7ea      	b.n	20000964 <hw_endpoint_start_next_buffer+0x50>
2000098e:	46c0      	nop			; (mov r8, r8)
20000990:	50110000 	.word	0x50110000
20000994:	afffffff 	.word	0xafffffff
20000998:	dfffffff 	.word	0xdfffffff

2000099c <hw_endpoint_xfer_continue>:
2000099c:	b570      	push	{r4, r5, r6, lr}
2000099e:	0004      	movs	r4, r0
200009a0:	7e85      	ldrb	r5, [r0, #26]
200009a2:	2d00      	cmp	r5, #0
200009a4:	d006      	beq.n	200009b4 <hw_endpoint_xfer_continue+0x18>
200009a6:	f7ff ff6f 	bl	20000888 <_hw_endpoint_xfer_sync>
200009aa:	8aa3      	ldrh	r3, [r4, #20]
200009ac:	2b00      	cmp	r3, #0
200009ae:	d10b      	bne.n	200009c8 <hw_endpoint_xfer_continue+0x2c>
200009b0:	0028      	movs	r0, r5
200009b2:	bd70      	pop	{r4, r5, r6, pc}
200009b4:	7883      	ldrb	r3, [r0, #2]
200009b6:	217f      	movs	r1, #127	; 0x7f
200009b8:	4019      	ands	r1, r3
200009ba:	09db      	lsrs	r3, r3, #7
200009bc:	009b      	lsls	r3, r3, #2
200009be:	4a09      	ldr	r2, [pc, #36]	; (200009e4 <hw_endpoint_xfer_continue+0x48>)
200009c0:	589a      	ldr	r2, [r3, r2]
200009c2:	4809      	ldr	r0, [pc, #36]	; (200009e8 <hw_endpoint_xfer_continue+0x4c>)
200009c4:	f000 f92c 	bl	20000c20 <__panic_veneer>
200009c8:	0020      	movs	r0, r4
200009ca:	f7ff fecd 	bl	20000768 <e15_is_critical_frame_period>
200009ce:	1e05      	subs	r5, r0, #0
200009d0:	d003      	beq.n	200009da <hw_endpoint_xfer_continue+0x3e>
200009d2:	2301      	movs	r3, #1
200009d4:	7723      	strb	r3, [r4, #28]
200009d6:	2500      	movs	r5, #0
200009d8:	e7ea      	b.n	200009b0 <hw_endpoint_xfer_continue+0x14>
200009da:	0020      	movs	r0, r4
200009dc:	f7ff ff9a 	bl	20000914 <hw_endpoint_start_next_buffer>
200009e0:	e7e6      	b.n	200009b0 <hw_endpoint_xfer_continue+0x14>
200009e2:	46c0      	nop			; (mov r8, r8)
200009e4:	20000dc0 	.word	0x20000dc0
200009e8:	1000af7c 	.word	0x1000af7c

200009ec <dcd_event_handler>:
200009ec:	b530      	push	{r4, r5, lr}
200009ee:	b085      	sub	sp, #20
200009f0:	0005      	movs	r5, r0
200009f2:	7843      	ldrb	r3, [r0, #1]
200009f4:	2b04      	cmp	r3, #4
200009f6:	d100      	bne.n	200009fa <dcd_event_handler+0xe>
200009f8:	e059      	b.n	20000aae <dcd_event_handler+0xc2>
200009fa:	d806      	bhi.n	20000a0a <dcd_event_handler+0x1e>
200009fc:	2b02      	cmp	r3, #2
200009fe:	d02b      	beq.n	20000a58 <dcd_event_handler+0x6c>
20000a00:	2b03      	cmp	r3, #3
20000a02:	d000      	beq.n	20000a06 <dcd_event_handler+0x1a>
20000a04:	e0cb      	b.n	20000b9e <dcd_event_handler+0x1b2>
20000a06:	2400      	movs	r4, #0
20000a08:	e083      	b.n	20000b12 <dcd_event_handler+0x126>
20000a0a:	2b05      	cmp	r3, #5
20000a0c:	d000      	beq.n	20000a10 <dcd_event_handler+0x24>
20000a0e:	e0c6      	b.n	20000b9e <dcd_event_handler+0x1b2>
20000a10:	4b70      	ldr	r3, [pc, #448]	; (20000bd4 <dcd_event_handler+0x1e8>)
20000a12:	781b      	ldrb	r3, [r3, #0]
20000a14:	07db      	lsls	r3, r3, #31
20000a16:	d548      	bpl.n	20000aaa <dcd_event_handler+0xbe>
20000a18:	4a6e      	ldr	r2, [pc, #440]	; (20000bd4 <dcd_event_handler+0x1e8>)
20000a1a:	7813      	ldrb	r3, [r2, #0]
20000a1c:	2104      	movs	r1, #4
20000a1e:	438b      	bics	r3, r1
20000a20:	7013      	strb	r3, [r2, #0]
20000a22:	4b6d      	ldr	r3, [pc, #436]	; (20000bd8 <dcd_event_handler+0x1ec>)
20000a24:	681c      	ldr	r4, [r3, #0]
20000a26:	0021      	movs	r1, r4
20000a28:	3114      	adds	r1, #20
20000a2a:	6962      	ldr	r2, [r4, #20]
20000a2c:	f3ef 8010 	mrs	r0, PRIMASK
20000a30:	b672      	cpsid	i
20000a32:	6813      	ldr	r3, [r2, #0]
20000a34:	2b00      	cmp	r3, #0
20000a36:	d0fc      	beq.n	20000a32 <dcd_event_handler+0x46>
20000a38:	f3bf 8f5f 	dmb	sy
20000a3c:	6048      	str	r0, [r1, #4]
20000a3e:	0029      	movs	r1, r5
20000a40:	0020      	movs	r0, r4
20000a42:	f000 f90d 	bl	20000c60 <__tu_fifo_write_veneer>
20000a46:	6962      	ldr	r2, [r4, #20]
20000a48:	69a3      	ldr	r3, [r4, #24]
20000a4a:	f3bf 8f5f 	dmb	sy
20000a4e:	2100      	movs	r1, #0
20000a50:	6011      	str	r1, [r2, #0]
20000a52:	f383 8810 	msr	PRIMASK, r3
20000a56:	e028      	b.n	20000aaa <dcd_event_handler+0xbe>
20000a58:	4b5e      	ldr	r3, [pc, #376]	; (20000bd4 <dcd_event_handler+0x1e8>)
20000a5a:	781a      	ldrb	r2, [r3, #0]
20000a5c:	2101      	movs	r1, #1
20000a5e:	438a      	bics	r2, r1
20000a60:	701a      	strb	r2, [r3, #0]
20000a62:	781a      	ldrb	r2, [r3, #0]
20000a64:	3101      	adds	r1, #1
20000a66:	438a      	bics	r2, r1
20000a68:	701a      	strb	r2, [r3, #0]
20000a6a:	2200      	movs	r2, #0
20000a6c:	705a      	strb	r2, [r3, #1]
20000a6e:	781a      	ldrb	r2, [r3, #0]
20000a70:	3102      	adds	r1, #2
20000a72:	438a      	bics	r2, r1
20000a74:	701a      	strb	r2, [r3, #0]
20000a76:	4b58      	ldr	r3, [pc, #352]	; (20000bd8 <dcd_event_handler+0x1ec>)
20000a78:	681c      	ldr	r4, [r3, #0]
20000a7a:	0021      	movs	r1, r4
20000a7c:	3114      	adds	r1, #20
20000a7e:	6962      	ldr	r2, [r4, #20]
20000a80:	f3ef 8010 	mrs	r0, PRIMASK
20000a84:	b672      	cpsid	i
20000a86:	6813      	ldr	r3, [r2, #0]
20000a88:	2b00      	cmp	r3, #0
20000a8a:	d0fc      	beq.n	20000a86 <dcd_event_handler+0x9a>
20000a8c:	f3bf 8f5f 	dmb	sy
20000a90:	6048      	str	r0, [r1, #4]
20000a92:	0029      	movs	r1, r5
20000a94:	0020      	movs	r0, r4
20000a96:	f000 f8e3 	bl	20000c60 <__tu_fifo_write_veneer>
20000a9a:	6962      	ldr	r2, [r4, #20]
20000a9c:	69a3      	ldr	r3, [r4, #24]
20000a9e:	f3bf 8f5f 	dmb	sy
20000aa2:	2100      	movs	r1, #0
20000aa4:	6011      	str	r1, [r2, #0]
20000aa6:	f383 8810 	msr	PRIMASK, r3
20000aaa:	b005      	add	sp, #20
20000aac:	bd30      	pop	{r4, r5, pc}
20000aae:	4b49      	ldr	r3, [pc, #292]	; (20000bd4 <dcd_event_handler+0x1e8>)
20000ab0:	781b      	ldrb	r3, [r3, #0]
20000ab2:	07db      	lsls	r3, r3, #31
20000ab4:	d5f9      	bpl.n	20000aaa <dcd_event_handler+0xbe>
20000ab6:	4a47      	ldr	r2, [pc, #284]	; (20000bd4 <dcd_event_handler+0x1e8>)
20000ab8:	7813      	ldrb	r3, [r2, #0]
20000aba:	2104      	movs	r1, #4
20000abc:	430b      	orrs	r3, r1
20000abe:	7013      	strb	r3, [r2, #0]
20000ac0:	4b45      	ldr	r3, [pc, #276]	; (20000bd8 <dcd_event_handler+0x1ec>)
20000ac2:	681c      	ldr	r4, [r3, #0]
20000ac4:	0021      	movs	r1, r4
20000ac6:	3114      	adds	r1, #20
20000ac8:	6962      	ldr	r2, [r4, #20]
20000aca:	f3ef 8010 	mrs	r0, PRIMASK
20000ace:	b672      	cpsid	i
20000ad0:	6813      	ldr	r3, [r2, #0]
20000ad2:	2b00      	cmp	r3, #0
20000ad4:	d0fc      	beq.n	20000ad0 <dcd_event_handler+0xe4>
20000ad6:	f3bf 8f5f 	dmb	sy
20000ada:	6048      	str	r0, [r1, #4]
20000adc:	0029      	movs	r1, r5
20000ade:	0020      	movs	r0, r4
20000ae0:	f000 f8be 	bl	20000c60 <__tu_fifo_write_veneer>
20000ae4:	6962      	ldr	r2, [r4, #20]
20000ae6:	69a3      	ldr	r3, [r4, #24]
20000ae8:	f3bf 8f5f 	dmb	sy
20000aec:	2100      	movs	r1, #0
20000aee:	6011      	str	r1, [r2, #0]
20000af0:	f383 8810 	msr	PRIMASK, r3
20000af4:	e7d9      	b.n	20000aaa <dcd_event_handler+0xbe>
20000af6:	0063      	lsls	r3, r4, #1
20000af8:	191b      	adds	r3, r3, r4
20000afa:	00da      	lsls	r2, r3, #3
20000afc:	4b37      	ldr	r3, [pc, #220]	; (20000bdc <dcd_event_handler+0x1f0>)
20000afe:	681b      	ldr	r3, [r3, #0]
20000b00:	189b      	adds	r3, r3, r2
20000b02:	e018      	b.n	20000b36 <dcd_event_handler+0x14a>
20000b04:	0023      	movs	r3, r4
20000b06:	e00f      	b.n	20000b28 <dcd_event_handler+0x13c>
20000b08:	7828      	ldrb	r0, [r5, #0]
20000b0a:	6869      	ldr	r1, [r5, #4]
20000b0c:	4798      	blx	r3
20000b0e:	3401      	adds	r4, #1
20000b10:	b2e4      	uxtb	r4, r4
20000b12:	4b33      	ldr	r3, [pc, #204]	; (20000be0 <dcd_event_handler+0x1f4>)
20000b14:	781b      	ldrb	r3, [r3, #0]
20000b16:	42a3      	cmp	r3, r4
20000b18:	d313      	bcc.n	20000b42 <dcd_event_handler+0x156>
20000b1a:	4a32      	ldr	r2, [pc, #200]	; (20000be4 <dcd_event_handler+0x1f8>)
20000b1c:	2a00      	cmp	r2, #0
20000b1e:	d0f1      	beq.n	20000b04 <dcd_event_handler+0x118>
20000b20:	42a3      	cmp	r3, r4
20000b22:	d8e8      	bhi.n	20000af6 <dcd_event_handler+0x10a>
20000b24:	1ae3      	subs	r3, r4, r3
20000b26:	b2db      	uxtb	r3, r3
20000b28:	2b00      	cmp	r3, #0
20000b2a:	d1f0      	bne.n	20000b0e <dcd_event_handler+0x122>
20000b2c:	005a      	lsls	r2, r3, #1
20000b2e:	18d2      	adds	r2, r2, r3
20000b30:	00d2      	lsls	r2, r2, #3
20000b32:	4b2d      	ldr	r3, [pc, #180]	; (20000be8 <dcd_event_handler+0x1fc>)
20000b34:	189b      	adds	r3, r3, r2
20000b36:	2b00      	cmp	r3, #0
20000b38:	d0e9      	beq.n	20000b0e <dcd_event_handler+0x122>
20000b3a:	695b      	ldr	r3, [r3, #20]
20000b3c:	2b00      	cmp	r3, #0
20000b3e:	d1e3      	bne.n	20000b08 <dcd_event_handler+0x11c>
20000b40:	e7e5      	b.n	20000b0e <dcd_event_handler+0x122>
20000b42:	4b24      	ldr	r3, [pc, #144]	; (20000bd4 <dcd_event_handler+0x1e8>)
20000b44:	781b      	ldrb	r3, [r3, #0]
20000b46:	075b      	lsls	r3, r3, #29
20000b48:	d5af      	bpl.n	20000aaa <dcd_event_handler+0xbe>
20000b4a:	4a22      	ldr	r2, [pc, #136]	; (20000bd4 <dcd_event_handler+0x1e8>)
20000b4c:	7813      	ldrb	r3, [r2, #0]
20000b4e:	2104      	movs	r1, #4
20000b50:	438b      	bics	r3, r1
20000b52:	7013      	strb	r3, [r2, #0]
20000b54:	220c      	movs	r2, #12
20000b56:	2100      	movs	r1, #0
20000b58:	a801      	add	r0, sp, #4
20000b5a:	f000 f889 	bl	20000c70 <____wrap_memset_veneer>
20000b5e:	782b      	ldrb	r3, [r5, #0]
20000b60:	466a      	mov	r2, sp
20000b62:	7113      	strb	r3, [r2, #4]
20000b64:	2305      	movs	r3, #5
20000b66:	7153      	strb	r3, [r2, #5]
20000b68:	4b1b      	ldr	r3, [pc, #108]	; (20000bd8 <dcd_event_handler+0x1ec>)
20000b6a:	681c      	ldr	r4, [r3, #0]
20000b6c:	0021      	movs	r1, r4
20000b6e:	3114      	adds	r1, #20
20000b70:	6962      	ldr	r2, [r4, #20]
20000b72:	f3ef 8010 	mrs	r0, PRIMASK
20000b76:	b672      	cpsid	i
20000b78:	6813      	ldr	r3, [r2, #0]
20000b7a:	2b00      	cmp	r3, #0
20000b7c:	d0fc      	beq.n	20000b78 <dcd_event_handler+0x18c>
20000b7e:	f3bf 8f5f 	dmb	sy
20000b82:	6048      	str	r0, [r1, #4]
20000b84:	a901      	add	r1, sp, #4
20000b86:	0020      	movs	r0, r4
20000b88:	f000 f86a 	bl	20000c60 <__tu_fifo_write_veneer>
20000b8c:	6962      	ldr	r2, [r4, #20]
20000b8e:	69a3      	ldr	r3, [r4, #24]
20000b90:	f3bf 8f5f 	dmb	sy
20000b94:	2100      	movs	r1, #0
20000b96:	6011      	str	r1, [r2, #0]
20000b98:	f383 8810 	msr	PRIMASK, r3
20000b9c:	e785      	b.n	20000aaa <dcd_event_handler+0xbe>
20000b9e:	4b0e      	ldr	r3, [pc, #56]	; (20000bd8 <dcd_event_handler+0x1ec>)
20000ba0:	681c      	ldr	r4, [r3, #0]
20000ba2:	0021      	movs	r1, r4
20000ba4:	3114      	adds	r1, #20
20000ba6:	6962      	ldr	r2, [r4, #20]
20000ba8:	f3ef 8010 	mrs	r0, PRIMASK
20000bac:	b672      	cpsid	i
20000bae:	6813      	ldr	r3, [r2, #0]
20000bb0:	2b00      	cmp	r3, #0
20000bb2:	d0fc      	beq.n	20000bae <dcd_event_handler+0x1c2>
20000bb4:	f3bf 8f5f 	dmb	sy
20000bb8:	6048      	str	r0, [r1, #4]
20000bba:	0029      	movs	r1, r5
20000bbc:	0020      	movs	r0, r4
20000bbe:	f000 f84f 	bl	20000c60 <__tu_fifo_write_veneer>
20000bc2:	6962      	ldr	r2, [r4, #20]
20000bc4:	69a3      	ldr	r3, [r4, #24]
20000bc6:	f3bf 8f5f 	dmb	sy
20000bca:	2100      	movs	r1, #0
20000bcc:	6011      	str	r1, [r2, #0]
20000bce:	f383 8810 	msr	PRIMASK, r3
20000bd2:	e76a      	b.n	20000aaa <dcd_event_handler+0xbe>
20000bd4:	20001b8c 	.word	0x20001b8c
20000bd8:	20001be4 	.word	0x20001be4
20000bdc:	20001864 	.word	0x20001864
20000be0:	20002589 	.word	0x20002589
20000be4:	10006381 	.word	0x10006381
20000be8:	1000b044 	.word	0x1000b044

20000bec <__aeabi_idiv0>:
20000bec:	4770      	bx	lr
20000bee:	46c0      	nop			; (mov r8, r8)

20000bf0 <__best_effort_wfe_or_timeout_veneer>:
20000bf0:	b401      	push	{r0}
20000bf2:	4802      	ldr	r0, [pc, #8]	; (20000bfc <__best_effort_wfe_or_timeout_veneer+0xc>)
20000bf4:	4684      	mov	ip, r0
20000bf6:	bc01      	pop	{r0}
20000bf8:	4760      	bx	ip
20000bfa:	bf00      	nop
20000bfc:	10002ae9 	.word	0x10002ae9

20000c00 <__hw_endpoint_get_by_addr_veneer>:
20000c00:	b401      	push	{r0}
20000c02:	4802      	ldr	r0, [pc, #8]	; (20000c0c <__hw_endpoint_get_by_addr_veneer+0xc>)
20000c04:	4684      	mov	ip, r0
20000c06:	bc01      	pop	{r0}
20000c08:	4760      	bx	ip
20000c0a:	bf00      	nop
20000c0c:	10006965 	.word	0x10006965

20000c10 <____assert_func_veneer>:
20000c10:	b401      	push	{r0}
20000c12:	4802      	ldr	r0, [pc, #8]	; (20000c1c <____assert_func_veneer+0xc>)
20000c14:	4684      	mov	ip, r0
20000c16:	bc01      	pop	{r0}
20000c18:	4760      	bx	ip
20000c1a:	bf00      	nop
20000c1c:	100038ed 	.word	0x100038ed

20000c20 <__panic_veneer>:
20000c20:	b401      	push	{r0}
20000c22:	4802      	ldr	r0, [pc, #8]	; (20000c2c <__panic_veneer+0xc>)
20000c24:	4684      	mov	ip, r0
20000c26:	bc01      	pop	{r0}
20000c28:	4760      	bx	ip
20000c2a:	bf00      	nop
20000c2c:	10003a21 	.word	0x10003a21

20000c30 <__time_us_64_veneer>:
20000c30:	b401      	push	{r0}
20000c32:	4802      	ldr	r0, [pc, #8]	; (20000c3c <__time_us_64_veneer+0xc>)
20000c34:	4684      	mov	ip, r0
20000c36:	bc01      	pop	{r0}
20000c38:	4760      	bx	ip
20000c3a:	bf00      	nop
20000c3c:	10002c3d 	.word	0x10002c3d

20000c40 <____wrap___aeabi_lmul_veneer>:
20000c40:	b401      	push	{r0}
20000c42:	4802      	ldr	r0, [pc, #8]	; (20000c4c <____wrap___aeabi_lmul_veneer+0xc>)
20000c44:	4684      	mov	ip, r0
20000c46:	bc01      	pop	{r0}
20000c48:	4760      	bx	ip
20000c4a:	bf00      	nop
20000c4c:	10005935 	.word	0x10005935

20000c50 <____wrap_memcpy_veneer>:
20000c50:	b401      	push	{r0}
20000c52:	4802      	ldr	r0, [pc, #8]	; (20000c5c <____wrap_memcpy_veneer+0xc>)
20000c54:	4684      	mov	ip, r0
20000c56:	bc01      	pop	{r0}
20000c58:	4760      	bx	ip
20000c5a:	bf00      	nop
20000c5c:	10005dd9 	.word	0x10005dd9

20000c60 <__tu_fifo_write_veneer>:
20000c60:	b401      	push	{r0}
20000c62:	4802      	ldr	r0, [pc, #8]	; (20000c6c <__tu_fifo_write_veneer+0xc>)
20000c64:	4684      	mov	ip, r0
20000c66:	bc01      	pop	{r0}
20000c68:	4760      	bx	ip
20000c6a:	bf00      	nop
20000c6c:	100087cd 	.word	0x100087cd

20000c70 <____wrap_memset_veneer>:
20000c70:	b401      	push	{r0}
20000c72:	4802      	ldr	r0, [pc, #8]	; (20000c7c <____wrap_memset_veneer+0xc>)
20000c74:	4684      	mov	ip, r0
20000c76:	bc01      	pop	{r0}
20000c78:	4760      	bx	ip
20000c7a:	bf00      	nop
20000c7c:	10005dcd 	.word	0x10005dcd

20000c80 <duty>:
20000c80:	000002ee 000002ee 000002ee 000002ee     ................

20000c90 <constansD>:
20000c90:	d2f1a9fc 3f60624d d2f1a9fc 3f60624d     ....Mb`?....Mb`?
20000ca0:	d2f1a9fc 3f60624d d2f1a9fc 3f60624d     ....Mb`?....Mb`?

20000cb0 <constansI>:
20000cb0:	30553261 3f33a92a 30553261 3f33a92a     a2U0*.3?a2U0*.3?
20000cc0:	30553261 3f33a92a 30553261 3f33a92a     a2U0*.3?a2U0*.3?

20000cd0 <constansP>:
20000cd0:	9999999a 3fa99999 eb851eb8 3faeb851     .......?....Q..?
20000ce0:	9999999a 3fa99999 4189374c 3fb0e560     .......?L7.A`..?

20000cf0 <striped_spin_lock_num>:
20000cf0:	00000010                                ....

20000cf4 <irq_handler_chain_slots>:
20000cf4:	00000000 	.word	0x00000000
20000cf8:	00010000 	.word	0x00010000
	...
20000d04:	00020000 	.word	0x00020000
	...
20000d10:	00030000 	.word	0x00030000
	...
20000d1c:	00ff0000 	.word	0x00ff0000
20000d20:	00000000 	.word	0x00000000

20000d24 <irq_handler_chain_first_slot>:
20000d24:	b501      	push	{r0, lr}
20000d26:	6848      	ldr	r0, [r1, #4]
20000d28:	3101      	adds	r1, #1
20000d2a:	468e      	mov	lr, r1
20000d2c:	4700      	bx	r0

20000d2e <irq_handler_chain_remove_tail>:
20000d2e:	4670      	mov	r0, lr
20000d30:	3809      	subs	r0, #9
20000d32:	4901      	ldr	r1, [pc, #4]	; (20000d38 <irq_handler_chain_remove_tail+0xa>)
20000d34:	4788      	blx	r1
20000d36:	bd01      	pop	{r0, pc}
20000d38:	10001e6d 	.word	0x10001e6d

20000d3c <default_alarm_pool>:
20000d3c:	20000d54 00000000 20001668 20001e94     T.. ....h.. ... 
	...

20000d54 <default_alarm_pool_heap>:
20000d54:	20001ea4 00000000 00000000 00000010     ... ............
	...

20000d70 <aeabi_bits_funcs>:
20000d70:	00003350 	.word	0x00003350
20000d74:	0000334c 	.word	0x0000334c
20000d78:	00003354 	.word	0x00003354
20000d7c:	00003352 	.word	0x00003352

20000d80 <aeabi_bits_funcs_end>:
20000d80:	0000534d 	.word	0x0000534d
20000d84:	0000434d 	.word	0x0000434d
20000d88:	00003453 	.word	0x00003453
20000d8c:	00003443 	.word	0x00003443

20000d90 <stdio_uart>:
20000d90:	100060b1 00000000 10006125 100061cd     .`......%a...a..
20000da0:	00000000 00000100                       ........

20000da8 <stdio_usb>:
20000da8:	1000671d 00000000 10006659 100063b5     .g......Yf...c..
20000db8:	00000000 00000100                       ........

20000dc0 <ep_dir_string>:
20000dc0:	1000a9bc 1000a99c                       ........

20000dc8 <_usbd_qdef>:
20000dc8:	20001be8 000c0010 00000000 00000000     ... ............
	...

20000de4 <_usbd_rhport>:
20000de4:	000000ff                                ....

20000de8 <i2c0_inst>:
20000de8:	40044000 00000000                       .@.@....

20000df0 <i2c1_inst>:
20000df0:	40048000 00000000                       ...@....

20000df8 <_impure_ptr>:
20000df8:	20000e00 00000000                       ... ....

20000e00 <impure_data>:
20000e00:	00000000 200010ec 20001154 200011bc     ....... T.. ... 
	...
20000ea8:	00000001 00000000 abcd330e e66d1234     .........3..4.m.
20000eb8:	0005deec 0000000b 00000000 00000000     ................
	...

20001228 <__malloc_av_>:
	...
20001230:	20001228 20001228 20001230 20001230     (.. (.. 0.. 0.. 
20001240:	20001238 20001238 20001240 20001240     8.. 8.. @.. @.. 
20001250:	20001248 20001248 20001250 20001250     H.. H.. P.. P.. 
20001260:	20001258 20001258 20001260 20001260     X.. X.. `.. `.. 
20001270:	20001268 20001268 20001270 20001270     h.. h.. p.. p.. 
20001280:	20001278 20001278 20001280 20001280     x.. x.. ... ... 
20001290:	20001288 20001288 20001290 20001290     ... ... ... ... 
200012a0:	20001298 20001298 200012a0 200012a0     ... ... ... ... 
200012b0:	200012a8 200012a8 200012b0 200012b0     ... ... ... ... 
200012c0:	200012b8 200012b8 200012c0 200012c0     ... ... ... ... 
200012d0:	200012c8 200012c8 200012d0 200012d0     ... ... ... ... 
200012e0:	200012d8 200012d8 200012e0 200012e0     ... ... ... ... 
200012f0:	200012e8 200012e8 200012f0 200012f0     ... ... ... ... 
20001300:	200012f8 200012f8 20001300 20001300     ... ... ... ... 
20001310:	20001308 20001308 20001310 20001310     ... ... ... ... 
20001320:	20001318 20001318 20001320 20001320     ... ...  ..  .. 
20001330:	20001328 20001328 20001330 20001330     (.. (.. 0.. 0.. 
20001340:	20001338 20001338 20001340 20001340     8.. 8.. @.. @.. 
20001350:	20001348 20001348 20001350 20001350     H.. H.. P.. P.. 
20001360:	20001358 20001358 20001360 20001360     X.. X.. `.. `.. 
20001370:	20001368 20001368 20001370 20001370     h.. h.. p.. p.. 
20001380:	20001378 20001378 20001380 20001380     x.. x.. ... ... 
20001390:	20001388 20001388 20001390 20001390     ... ... ... ... 
200013a0:	20001398 20001398 200013a0 200013a0     ... ... ... ... 
200013b0:	200013a8 200013a8 200013b0 200013b0     ... ... ... ... 
200013c0:	200013b8 200013b8 200013c0 200013c0     ... ... ... ... 
200013d0:	200013c8 200013c8 200013d0 200013d0     ... ... ... ... 
200013e0:	200013d8 200013d8 200013e0 200013e0     ... ... ... ... 
200013f0:	200013e8 200013e8 200013f0 200013f0     ... ... ... ... 
20001400:	200013f8 200013f8 20001400 20001400     ... ... ... ... 
20001410:	20001408 20001408 20001410 20001410     ... ... ... ... 
20001420:	20001418 20001418 20001420 20001420     ... ...  ..  .. 
20001430:	20001428 20001428 20001430 20001430     (.. (.. 0.. 0.. 
20001440:	20001438 20001438 20001440 20001440     8.. 8.. @.. @.. 
20001450:	20001448 20001448 20001450 20001450     H.. H.. P.. P.. 
20001460:	20001458 20001458 20001460 20001460     X.. X.. `.. `.. 
20001470:	20001468 20001468 20001470 20001470     h.. h.. p.. p.. 
20001480:	20001478 20001478 20001480 20001480     x.. x.. ... ... 
20001490:	20001488 20001488 20001490 20001490     ... ... ... ... 
200014a0:	20001498 20001498 200014a0 200014a0     ... ... ... ... 
200014b0:	200014a8 200014a8 200014b0 200014b0     ... ... ... ... 
200014c0:	200014b8 200014b8 200014c0 200014c0     ... ... ... ... 
200014d0:	200014c8 200014c8 200014d0 200014d0     ... ... ... ... 
200014e0:	200014d8 200014d8 200014e0 200014e0     ... ... ... ... 
200014f0:	200014e8 200014e8 200014f0 200014f0     ... ... ... ... 
20001500:	200014f8 200014f8 20001500 20001500     ... ... ... ... 
20001510:	20001508 20001508 20001510 20001510     ... ... ... ... 
20001520:	20001518 20001518 20001520 20001520     ... ...  ..  .. 
20001530:	20001528 20001528 20001530 20001530     (.. (.. 0.. 0.. 
20001540:	20001538 20001538 20001540 20001540     8.. 8.. @.. @.. 
20001550:	20001548 20001548 20001550 20001550     H.. H.. P.. P.. 
20001560:	20001558 20001558 20001560 20001560     X.. X.. `.. `.. 
20001570:	20001568 20001568 20001570 20001570     h.. h.. p.. p.. 
20001580:	20001578 20001578 20001580 20001580     x.. x.. ... ... 
20001590:	20001588 20001588 20001590 20001590     ... ... ... ... 
200015a0:	20001598 20001598 200015a0 200015a0     ... ... ... ... 
200015b0:	200015a8 200015a8 200015b0 200015b0     ... ... ... ... 
200015c0:	200015b8 200015b8 200015c0 200015c0     ... ... ... ... 
200015d0:	200015c8 200015c8 200015d0 200015d0     ... ... ... ... 
200015e0:	200015d8 200015d8 200015e0 200015e0     ... ... ... ... 
200015f0:	200015e8 200015e8 200015f0 200015f0     ... ... ... ... 
20001600:	200015f8 200015f8 20001600 20001600     ... ... ... ... 
20001610:	20001608 20001608 20001610 20001610     ... ... ... ... 
20001620:	20001618 20001618 20001620 20001620     ... ...  ..  .. 

20001630 <__malloc_sbrk_base>:
20001630:	ffffffff                                ....

20001634 <__malloc_trim_threshold>:
20001634:	00020000                                ....

20001638 <malloc_mutex>:
	...

20001640 <print_mutex>:
	...

20001648 <__mutex_array_end>:
20001648:	10005dbd 	.word	0x10005dbd
2000164c:	10004b91 	.word	0x10004b91
20001650:	100052a9 	.word	0x100052a9
20001654:	10005a9d 	.word	0x10005a9d

20001658 <__frame_dummy_init_array_entry>:
20001658:	100002e5 100068ad                       .....h..
